{
  "main_library": {
    "exported_symbols": [
      {
        "data": {
          "global": [
            "__ZTVN9Scintilla8Internal15LineLayoutCacheE",
            "__ZTSN9Scintilla8Internal17CaseFolderUnicodeE",
            "__ZTVN9Scintilla8Internal11LineMarkersE",
            "__ZTSN9Scintilla8Internal15LineLayoutCacheE",
            "__ZTIN9Scintilla8Internal8EditViewE",
            "__ZTIN9Scintilla8Internal8LexStateE",
            "_ScintillaRecPboardType",
            "__ZTSN9Scintilla8Internal9EditModelE",
            "__ZTIN9Scintilla8Internal13ScintillaBaseE",
            "__ZTSN9Scintilla8Internal7ListBoxE",
            "__ZTSN9Scintilla8Internal8DocumentE",
            "__ZTVN9Scintilla8Internal9LineStateE",
            "__ZTSN9Scintilla8Internal8EditViewE",
            "__ZTIN9Scintilla8Internal14LineAnnotationE",
            "_ScintillaVersionNumber",
            "__ZTVN9Scintilla8Internal14ScintillaCocoaE",
            "__ZTVN9Scintilla8Internal10LineLevelsE",
            "__ZTVN9Scintilla8Internal7ListBoxE",
            "__ZTSN9Scintilla8Internal8LexStateE",
            "__ZTIN9Scintilla8Internal11LineMarkersE",
            "__ZTVN9Scintilla8Internal9EditModelE",
            "__ZTVN9Scintilla8Internal14LineAnnotationE",
            "__ZTI13PositionCache",
            "__ZN9Scintilla8Internal6KeyMap10MapDefaultE",
            "__ZTVN9Scintilla8Internal8LexStateE",
            "__ZTI12BuiltinRegex",
            "__ZTSN9Scintilla8Internal6EditorE",
            "__ZTS12BuiltinRegex",
            "__ZTVN9Scintilla8Internal8DocumentE",
            "__ZTSN9Scintilla8Internal15CaseFolderTableE",
            "__ZTSN9Scintilla8Internal13ScintillaBaseE",
            "__ZTVN9Scintilla8Internal15CaseFolderTableE",
            "__ZTIN9Scintilla8Internal14ScintillaCocoaE",
            "__ZTVN9Scintilla8Internal11SurfaceImplE",
            "__ZTVN9Scintilla8Internal10LineLayoutE",
            "__ZTIN9Scintilla8Internal6EditorE",
            "__ZTVN9Scintilla8Internal8EditViewE",
            "__ZTIN9Scintilla8Internal10LineLayoutE",
            "__ZTVN9Scintilla8Internal6WindowE",
            "__ZTIN9Scintilla8Internal10ScreenLineE",
            "__ZTIN9Scintilla8Internal9EditModelE",
            "__ZTSN9Scintilla8Internal12LineTabstopsE",
            "__ZTIN9Scintilla8Internal15CaseFolderTableE",
            "__ZTV13PositionCache",
            "__ZTIN9Scintilla8Internal7ListBoxE",
            "__ZTVN9Scintilla8Internal13ScintillaBaseE",
            "__ZTSN9Scintilla8Internal9LineStateE",
            "__ZTSN9Scintilla8Internal14LineAnnotationE",
            "__ZTSN9Scintilla8Internal11LineMarkersE",
            "__ZTIN9Scintilla8Internal9LineStateE",
            "__ZTIN9Scintilla8Internal10LineLevelsE",
            "__ZTVN9Scintilla8Internal10ScreenLineE",
            "__ZTSN9Scintilla8Internal10ScreenLineE",
            "__ZN9Scintilla8Internal15UTF8BytesOfLeadE",
            "__ZTVN9Scintilla8Internal12LexInterfaceE",
            "__ZTIN9Scintilla8Internal15LineLayoutCacheE",
            "__ZTIN9Scintilla8Internal11SurfaceImplE",
            "__ZTIN9Scintilla8Internal12LineTabstopsE",
            "__ZTSN9Scintilla8Internal10LineLayoutE",
            "__ZTSN9Scintilla8Internal12LexInterfaceE",
            "__ZTIN9Scintilla8Internal17CaseFolderUnicodeE",
            "__ZTIN9Scintilla8Internal12LexInterfaceE",
            "_ScintillaVersionString",
            "__ZTVN9Scintilla8Internal6EditorE",
            "__ZTIN9Scintilla8Internal8DocumentE",
            "__ZTSN9Scintilla8Internal14ScintillaCocoaE",
            "_SCIUpdateUINotification",
            "__ZTVN9Scintilla8Internal17CaseFolderUnicodeE",
            "__ZTS13PositionCache",
            "__ZTIN9Scintilla8Internal6WindowE",
            "__ZTSN9Scintilla8Internal11SurfaceImplE",
            "__ZTVN9Scintilla8Internal12LineTabstopsE",
            "__ZTV12BuiltinRegex",
            "__ZTSN9Scintilla8Internal6WindowE",
            "__ZTSN9Scintilla8Internal10LineLevelsE"
          ],
          "objc_class": [
            "VerticallyCenteredTextFieldCell",
            "AutoCompletionDelegate",
            "AutoCompletionDataSource",
            "CallTipView",
            "SCIMarginView",
            "TimerTarget",
            "SCIScrollView",
            "FindHighlightLayer",
            "ScintillaView",
            "InfoBar",
            "SCIContentView",
            "DragProviderSource",
            "ScintillaContextMenu"
          ],
          "objc_ivar": [
            "ScintillaContextMenu.owner",
            "TimerTarget.mTarget",
            "TimerTarget.notificationQueue",
            "CallTipView.sci",
            "AutoCompletionDataSource.box",
            "DragProviderSource.selectedText",
            "VerticallyCenteredTextFieldCell.mIsEditingOrSelecting",
            "AutoCompletionDelegate.box"
          ],
          "weak": [
            "__ZNSt3__119piecewise_constructE"
          ]
        },
        "text": {
          "global": [
            "__ZNK9Scintilla8Internal8Document16ExtendWordSelectElib",
            "__ZN9Scintilla8Internal6Editor19MoveSelectedLinesUpEv",
            "__ZNK9Scintilla8Internal10CellBuffer15ContainsLineEndEPKcl",
            "__ZN9Scintilla8Internal9Selection13TrimSelectionENS0_14SelectionRangeE",
            "__ZNK9Scintilla8Internal8Document13UndoSavePointEv",
            "__ZN9Scintilla8Internal6Editor15InsertCharacterENSt3__117basic_string_viewIcNS2_11char_traitsIcEEEENS_15CharacterSourceE",
            "__ZN9Scintilla8Internal11ChangeStack12PushDeletionElRKNS0_12EditionCountE",
            "__ZN9Scintilla8Internal6Editor8CopyTextEmPKc",
            "__ZN9Scintilla8Internal12ScaledVector8TruncateEm",
            "__ZN9Scintilla8Internal10LineLayout5ReSetEll",
            "__ZNK9Scintilla8Internal10CellBuffer7UCharAtEl",
            "__ZThn8_NK9Scintilla8Internal8Document20GetCharacterAndWidthElPl",
            "__ZN9Scintilla8Internal9IsIdStartEi",
            "__ZN9Scintilla8Internal14ScintillaCocoa16GetCaretPositionEv",
            "__ZN9Scintilla8Internal9ChangeLog11DeleteRangeEll",
            "__ZN9Scintilla8Internal9Selection5RangeEm",
            "__ZN9Scintilla8Internal6Editor11SetXYScrollENS1_16XYScrollPositionE",
            "__ZN9Scintilla8Internal6Window9SetCursorENS1_6CursorE",
            "__ZN9Scintilla8Internal12ConverterForENS0_14CaseConversionE",
            "__ZN9Scintilla8Internal6Editor3CutEv",
            "__ZNK9Scintilla8Internal8Document8GetLevelEl",
            "__ZN9Scintilla8Internal10CellBuffer12SetSavePointEv",
            "__ZN9Scintilla8Internal8EditView16ClearAllTabstopsEv",
            "__ZN9Scintilla8Internal8RESearch22GetBackslashExpressionEPKcRi",
            "__ZThn8_NK9Scintilla8Internal8Document8GetLevelEl",
            "__ZN9Scintilla8Internal20DecorationListCreateEb",
            "__ZN9Scintilla8Internal14ScintillaCocoa13KeyboardInputEP7NSEvent",
            "__ZN9Scintilla8Internal6Editor13DisplayCursorENS0_6Window6CursorE",
            "__ZNK9Scintilla8Internal8Document17UndoSequenceDepthEv",
            "__ZN9Scintilla8Internal9ReadValueEPKhm",
            "__ZN9Scintilla8Internal6Editor18EnsureCaretVisibleEbbb",
            "__ZN9Scintilla8Internal8EditView18SPositionFromLineXEPNS0_7SurfaceERKNS0_9EditModelEliRKNS0_9ViewStyleE",
            "__ZN9Scintilla8Internal6Editor21MovePositionSoVisibleEli",
            "__ZNK9Scintilla8Internal11UndoHistory8ValidateEl",
            "__ZN9Scintilla8Internal5IdlerC1Ev",
            "__ZN9Scintilla8Internal10LineLayoutC1Eli",
            "__ZNK9Scintilla8Internal9EditModel20BidirectionalEnabledEv",
            "__ZN9Scintilla8Internal6Editor9WrapCountEl",
            "__ZN9Scintilla8Internal6Editor20SetAnnotationHeightsEll",
            "__ZN9Scintilla8Internal6Editor21VCHomeDisplayPositionEl",
            "__ZNK9Scintilla8Internal8Document9LineStartEl",
            "__ZNK9Scintilla8Internal11MarginStyle12ShowsFoldingEv",
            "__ZN9Scintilla8Internal8Document16ExtendStyleRangeElib",
            "__ZN9Scintilla8Internal9ViewStyleC2ERKS1_",
            "__ZN9Scintilla8Internal14ScintillaCocoa11PaintMarginE6CGRect",
            "__ZN9Scintilla8Internal13ScintillaBase29AutoCompleteMoveToCurrentWordEv",
            "__ZN9Scintilla8Internal12LineTabstops13ClearTabstopsEl",
            "__ZN9Scintilla8Internal6Editor25ClearBeforeTentativeStartEv",
            "__ZN9Scintilla8Internal6Editor4RedoEv",
            "__ZNK9Scintilla8Internal15MarkerHandleSet9MarkValueEv",
            "__ZN9Scintilla8Internal6Editor15FineTickerStartENS1_10TickReasonEii",
            "__ZN9Scintilla8Internal6Editor16RefreshStyleDataEv",
            "__ZN9Scintilla8Internal10CellBuffer9StartRedoEv",
            "__ZN9Scintilla8Internal14ScintillaCocoa26ShouldDisplayPopupOnMarginEv",
            "__ZNK9Scintilla8Internal13ChangeHistory11DeletionsAtEl",
            "__ZN9Scintilla8Internal6Editor17NotifyMarginClickENS0_5PointENS_6KeyModE",
            "__ZN9Scintilla8Internal8DocumentC1ENS_14DocumentOptionE",
            "__ZNK9Scintilla8Internal8LexState7GetNameEv",
            "__ZThn296_N9Scintilla8Internal6Editor15NotifySavePointEPNS0_8DocumentEPvb",
            "__ZN9Scintilla8Internal13ChangeHistory24DeleteRangeSavingHistoryEllbb",
            "__ZNK9Scintilla8Internal8Document13WordPartRightEl",
            "__ZN9Scintilla8Internal8Document7AddDataEPKcl",
            "__ZN9Scintilla8Internal15LineLayoutCacheC1Ev",
            "__ZN9Scintilla8Internal6Editor13LineSelectionEllb",
            "__ZN9Scintilla8Internal12AutoComplete12SetStopCharsEPKc",
            "__ZN9Scintilla8Internal14ScintillaCocoa8CanPasteEv",
            "__ZN9Scintilla8Internal6Editor10SearchTextENS_7MessageEml",
            "__ZNK9Scintilla8Internal11UndoHistory6LengthEi",
            "__ZNK9Scintilla8Internal10LineLevels13GetFoldParentEl",
            "__ZN9Scintilla8Internal6Editor14MovePositionToElNS0_9Selection8SelTypesEb",
            "__ZNK9Scintilla8Internal14SelectionRange6LengthEv",
            "__ZNK9Scintilla8Internal9Selection15VirtualSpaceForEl",
            "__ZNK9Scintilla8Internal10CellBuffer7StyleAtEl",
            "__ZN9Scintilla8Internal10CellBuffer16SetUndoTentativeEi",
            "__ZNK9Scintilla8Internal8Document22IsDBCSLeadByteNoExceptEc",
            "__ZNK9Scintilla8Internal8Document8ParaDownEl",
            "__ZN9Scintilla8Internal6Editor19NotifyModifyAttemptEv",
            "__ZN9Scintilla8Internal6KeyMapC2Ev",
            "__ZN9Scintilla8Internal6KeyMap12AssignCmdKeyENS_4KeysENS_6KeyModENS_7MessageE",
            "__ZN9Scintilla8Internal15LineLayoutCacheD0Ev",
            "__ZN9Scintilla8Internal8Document10FindColumnEll",
            "__ZNK9Scintilla8Internal10ScrapStack6TextAtEm",
            "__ZN9Scintilla8Internal14ScintillaCocoa16ModifyScrollBarsEll",
            "__ZNK9Scintilla8Internal9LineState15GetMaxLineStateEv",
            "__ZN9Scintilla8Internal7CallTipC2Ev",
            "__ZThn296_N9Scintilla8Internal14ScintillaCocoaD1Ev",
            "__ZN9Scintilla8Internal12AutoComplete4ShowEb",
            "__ZN9Scintilla8Internal9ViewStyle12AddMultiEdgeEiNS0_10ColourRGBAE",
            "__ZN9Scintilla8Internal6Editor17SetBraceHighlightElli",
            "__ZNK9Scintilla8Internal6Editor24CreateMeasurementSurfaceEv",
            "__ZNK9Scintilla8Internal17SelectionPositionltERKS1_",
            "__ZN9Scintilla8Internal14ScintillaCocoa12NotifyChangeEv",
            "__ZN9Scintilla8Internal14ScintillaCocoa18UpdateBaseElementsEv",
            "__ZN9Scintilla8Internal6Editor11NotifyFocusEb",
            "__ZNK9Scintilla8Internal14ScintillaCocoa23CharactersFromPositionsE8_NSRange",
            "__ZN9Scintilla8Internal15WidestLineWidthEPNS0_7SurfaceERKNS0_9ViewStyleEiRKNS0_10StyledTextE",
            "__ZNK9Scintilla8Internal14ScintillaCocoa15ScrollContainerEv",
            "__ZN9Scintilla8Internal12IntersectionENS0_8IntervalES1_",
            "__ZN9Scintilla8Internal10ScreenLineC1EPKNS0_10LineLayoutEiRKNS0_9ViewStyleEdi",
            "__ZN9Scintilla8Internal11BreakFinderC2EPKNS0_10LineLayoutEPKNS0_9SelectionENS0_5RangeEldNS1_8BreakForEPKNS0_8DocumentEPKNS0_22SpecialRepresentationsEPKNS0_9ViewStyleE",
            "__ZN9Scintilla8Internal6Editor10SetTopLineEl",
            "__ZN9Scintilla8Internal14ScintillaCocoa14RightMouseDownEP7NSEvent",
            "__ZN9Scintilla8Internal14ScintillaCocoa14IdleTimerFiredEv",
            "__ZN9Scintilla8Internal8Document29DecorationSetCurrentIndicatorEi",
            "__ZNK9Scintilla8Internal6Editor16PointInSelMarginENS0_5PointE",
            "__ZN9Scintilla8Internal15CaseFolderTable4FoldEPcmPKcm",
            "__ZN9Scintilla8Internal10IsXidStartEi",
            "__ZN9Scintilla8Internal18CharacterExtractedC2EPKhm",
            "__ZN9Scintilla8Internal15CaseFolderTableC2Ev",
            "__ZN9Scintilla8Internal6Editor12FindTextFullEml",
            "__ZN9Scintilla8Internal8EditView9PaintTextEPNS0_7SurfaceERKNS0_9EditModelERKNS0_9ViewStyleENS0_10PRectangleESA_",
            "__ZNK9Scintilla8Internal11UndoHistory4TypeEi",
            "__ZN9Scintilla8Internal6Editor19VerticalCentreCaretEv",
            "__ZN9Scintilla8Internal6Editor19DisplayFromPositionEl",
            "__ZN9Scintilla8Internal6Editor13WordSelectionEl",
            "__ZN9Scintilla8Internal14ScintillaCocoa11CancelModesEv",
            "__ZN9Scintilla8Internal10CellBuffer8AllocateEl",
            "__ZNK9Scintilla8Internal14ScintillaCocoa15UTF8FromEncodedENSt3__117basic_string_viewIcNS2_11char_traitsIcEEEE",
            "__ZNK9Scintilla8Internal12LineTabstops14GetNextTabstopEli",
            "__ZN9Scintilla8Internal10CellBuffer10SetPerLineEPNS0_7PerLineE",
            "__ZN9Scintilla8Internal14LineAnnotation8ClearAllEv",
            "__ZNK9Scintilla8Internal10CellBuffer19UTF8LineEndOverlapsEl",
            "__ZN9Scintilla8Internal14ScintillaCocoa12ConvertPointE7CGPoint",
            "__ZNK9Scintilla8Internal12AutoComplete8GetValueEi",
            "__ZN9Scintilla8Internal9LineState11InsertLinesEll",
            "__ZNK9Scintilla8Internal8Document11UndoCurrentEv",
            "__ZN9Scintilla8Internal14ScintillaCocoa13HandleCommandEl",
            "__ZNK9Scintilla8Internal14SelectionRange17ContainsCharacterENS0_17SelectionPositionE",
            "__ZN9Scintilla8Internal8Document17TransformLineEndsEPKcmNS_9EndOfLineE",
            "__ZN9Scintilla8Internal13ScintillaBase27AutoCompleteNotifyCompletedEcNS_17CompletionMethodsElPKc",
            "__ZNK9Scintilla8Internal11UndoHistory11GetRedoStepEv",
            "__ZNK9Scintilla8Internal8EditView16GetLayoutThreadsEv",
            "__ZNK9Scintilla8Internal11UndoHistory7CanRedoEv",
            "__ZNK9Scintilla8Internal10CellBuffer13GetStyleRangeEPhll",
            "__ZN9Scintilla8Internal11UndoHistory16DropUndoSequenceEv",
            "__ZN9Scintilla8Internal8LexState21PrimaryStyleFromStyleEi",
            "__ZN13PositionCacheC1Ev",
            "__ZN9Scintilla8Internal8Document10AddWatcherEPNS0_10DocWatcherEPv",
            "__ZN9Scintilla8Internal11LineMarkers10InsertLineEl",
            "__ZN9Scintilla8Internal6Editor7AddCharEc",
            "__ZN9Scintilla8Internal13ScintillaBase17AutoCompleteStartElPKc",
            "__ZN9Scintilla8Internal6Editor15NotifySavePointEb",
            "__ZNK9Scintilla8Internal11UndoHistory14TentativePointEv",
            "__ZN9Scintilla8Internal14ScintillaCocoa14DeleteBackwardEv",
            "__ZN9Scintilla8Internal8Document13TentativeUndoEv",
            "__ZNK9Scintilla8Internal10ScreenLine6HeightEv",
            "__ZN9Scintilla8Internal14ScintillaCocoa24ShouldDisplayPopupOnTextEv",
            "__ZN9Scintilla8Internal14ScintillaCocoa16CompositionStartEv",
            "__ZN9Scintilla8Internal14ScintillaCocoaD2Ev",
            "__ZNK9Scintilla8Internal10ScreenLine6LengthEv",
            "__ZN9Scintilla8Internal21IsDBCSValidSingleByteEii",
            "__ZN9Scintilla8Internal14ScintillaCocoa8IdleWorkEv",
            "__ZN9Scintilla8Internal9Selection5ClearEv",
            "__ZN9Scintilla8Internal6Editor10LineDeleteEv",
            "__ZN9Scintilla8Internal9LineState10InsertLineEl",
            "__ZNK9Scintilla8Internal8Document6IsCrLfEl",
            "__ZNK9Scintilla8Internal6Editor15CurrentPositionEv",
            "__ZN9Scintilla8Internal10LineLayout10InvalidateENS1_10ValidLevelE",
            "__ZNK9Scintilla8Internal11UndoActions8LengthToEm",
            "__ZN9Scintilla8Internal11UndoHistory13EndUndoActionEv",
            "__ZN9Scintilla8Internal6Editor12PositionMoveENS_7MessageENS0_17SelectionPositionE",
            "__ZN9Scintilla8Internal15LineLayoutCacheC2Ev",
            "__ZNK9Scintilla8Internal6Editor10ClientSizeEv",
            "__ZNK9Scintilla8Internal11UndoHistory11IsSavePointEv",
            "__ZN18PositionCacheEntryC1ERKS_",
            "__ZN9Scintilla8Internal14ScintillaCocoa15UpdateForScrollEv",
            "__ZN9Scintilla8Internal14ScintillaCocoa19CreateCallTipWindowENS0_10PRectangleE",
            "__ZN9Scintilla8Internal8Document13SetCaseFolderENSt3__110unique_ptrINS0_10CaseFolderENS2_14default_deleteIS4_EEEE",
            "__ZN9Scintilla8Internal8Document13SetUndoDetachEi",
            "__ZN9Scintilla8Internal8Document20EOLAnnotationSetTextElPKc",
            "__ZN9Scintilla8Internal6Editor11LineReverseEv",
            "__ZN9Scintilla8Internal6Editor19RealizeVirtualSpaceERKNS0_17SelectionPositionE",
            "__ZNK9Scintilla8Internal10LineLayout6InLineEii",
            "__ZN9Scintilla8Internal8EditViewC1Ev",
            "__ZN9Scintilla8Internal6Editor17NotifyDoubleClickENS0_5PointENS_6KeyModE",
            "__ZN9Scintilla8Internal6Editor7TickForENS1_10TickReasonE",
            "__ZNK9Scintilla8Internal9ViewStyle14IsCaretVisibleEb",
            "__ZN9Scintilla8Internal15CaseFolderTable14SetTranslationEcc",
            "__ZNK9Scintilla8Internal6Editor18LineSelectionRangeENS0_17SelectionPositionES2_",
            "__ZN9Scintilla8Internal6Editor18VCHomeWrapPositionEl",
            "__ZNK9Scintilla8Internal14ScintillaCocoa15EncodedFromUTF8EPKcPc",
            "__ZN9Scintilla8Internal6Editor15NotifyNeedShownEll",
            "__ZN9Scintilla8Internal10LineLevels11ClearLevelsEv",
            "__ZN9Scintilla8Internal11SurfaceImpl15SupportsFeatureENS_8SupportsE",
            "__ZN9Scintilla8Internal9SelectionC1Ev",
            "__ZN9Scintilla8Internal8EditView13SetPhasesDrawEi",
            "__ZNK9Scintilla8Internal8Document12WordPartLeftEl",
            "__ZNK9Scintilla8Internal8Document14VCHomePositionEl",
            "__ZN9Scintilla8Internal8LexState17StyleFromSubStyleEi",
            "__ZN9Scintilla8Internal6Editor13DragThresholdENS0_5PointES2_",
            "__ZN9Scintilla8Internal7CallTip10SetTabSizeEi",
            "__ZN9Scintilla8Internal10CellBufferC1Ebb",
            "__ZN9Scintilla8Internal10LineLayout14ClearPositionsEv",
            "__ZN9Scintilla8Internal10CellBuffer13EndUndoActionEv",
            "__ZN9Scintilla8Internal8EditViewC2Ev",
            "__ZN9Scintilla8Internal3XPM21LinesFormFromTextFormEPKc",
            "__ZN9Scintilla8Internal9ViewStyle26SetWrapVisualFlagsLocationENS_18WrapVisualLocationE",
            "__ZNK9Scintilla8Internal10ScreenLine16TabPositionAfterEd",
            "__ZN9Scintilla8Internal14DrawStyledTextEPNS0_7SurfaceERKNS0_9ViewStyleEiNS0_10PRectangleERKNS0_10StyledTextEmmNS0_9DrawPhaseE",
            "__ZN9Scintilla8Internal9EditModel25SetDefaultFoldDisplayTextEPKc",
            "__ZN9Scintilla8Internal10LineMarkerC2ERKS1_",
            "__ZNK9Scintilla8Internal8Document19IsWordPartSeparatorEj",
            "__ZN9Scintilla8Internal23UTF16FromUTF32CharacterEjPw",
            "__ZN9Scintilla8Internal6Editor21StyleToPositionInViewEl",
            "__ZN9Scintilla8Internal9RGBAImageC2EiifPKh",
            "__ZNK9Scintilla8Internal8Document13NextWordStartEli",
            "__ZN9Scintilla8Internal15CaseFolderTableC1Ev",
            "__ZN9Scintilla8Internal14ScintillaCocoa14UpdateObserverEP19__CFRunLoopObservermPv",
            "__ZN9Scintilla8Internal10CellBuffer13ResetLineEndsEv",
            "__ZN9Scintilla8Internal14ScintillaCocoa16FineTickerCancelENS0_6Editor10TickReasonE",
            "__ZNK9Scintilla8Internal14ScintillaCocoa9GetBoundsEv",
            "__ZN9Scintilla8Internal12CharClassifyC2Ev",
            "__ZN9Scintilla8Internal20CharacterCategoryMapC1Ev",
            "__ZN9Scintilla8Internal14ScintillaCocoa13CaseMapStringERKNSt3__112basic_stringIcNS2_11char_traitsIcEENS2_9allocatorIcEEEENS0_6Editor11CaseMappingE",
            "__ZN9Scintilla8Internal7CallTip10MouseClickENS0_5PointE",
            "__ZN9Scintilla8Internal6Editor10ChangeSizeEv",
            "__ZN9Scintilla8Internal6Editor15StyleSetMessageENS_7MessageEml",
            "__ZN9Scintilla8Internal9Selection12SetSelectionENS0_14SelectionRangeE",
            "__ZN9Scintilla8Internal8Document19IncrementStyleClockEv",
            "__ZNK9Scintilla8Internal13ScintillaBase22AutoCompleteGetCurrentEv",
            "__ZN9Scintilla8Internal12AutoComplete12SetSeparatorEc",
            "__ZN9Scintilla8Internal14ActionDurationC2Eddd",
            "__ZN9Scintilla8Internal15LineLayoutCache8RetrieveElliill",
            "__ZNK9Scintilla8Internal8Document16ExtractCharacterEl",
            "__ZN9Scintilla8Internal8Document7AddMarkEli",
            "__ZN9Scintilla8Internal8LexStateC2EPNS0_8DocumentE",
            "__ZNK9Scintilla8Internal10LineLevels12GetFoldLevelEl",
            "__ZN9Scintilla8Internal9ViewStyle7RefreshERNS0_7SurfaceEi",
            "__ZN9Scintilla8Internal10CellBuffer14TentativeStepsEv",
            "__ZN9Scintilla8Internal6Editor8FindTextEml",
            "__ZN9Scintilla8Internal12RGBAImageSetC1Ev",
            "__ZN9Scintilla8Internal10CellBuffer11DeleteCharsEllRb",
            "__ZN9Scintilla8Internal12ScaledVector6ReSizeEm",
            "__ZN9Scintilla8Internal15WStringFromUTF8ENSt3__117basic_string_viewIcNS1_11char_traitsIcEEEE",
            "__ZN9Scintilla8Internal14DBCSIsLeadByteEic",
            "__ZN9Scintilla8Internal6Editor21SPositionFromLocationENS0_5PointEbbb",
            "__ZNK9Scintilla8Internal8Document11NextWordEndEli",
            "__ZN9Scintilla8Internal6Editor13PaintContainsENS0_10PRectangleE",
            "__ZN9Scintilla8Internal14ScintillaCocoaD0Ev",
            "__ZN9Scintilla8Internal9ViewStyleD1Ev",
            "__ZNK9Scintilla8Internal8Document20MarkerHandleFromLineEli",
            "__ZN9Scintilla8Internal9Selection9RangeMainEv",
            "__ZN9Scintilla8Internal6EditorC2Ev",
            "__ZNK9Scintilla8Internal10LineLayout9LineStartEi",
            "__ZNK9Scintilla8Internal11LineMarkers9MarkValueEl",
            "__ZNK9Scintilla8Internal6Editor26SelectionContainsProtectedEv",
            "__ZNK9Scintilla8Internal20CharacterCategoryMap4SizeEv",
            "__ZN9Scintilla8Internal12ScaledVector12ClearValueAtEm",
            "__ZNK9Scintilla8Internal8Document18MatchesWordOptionsEbbll",
            "__ZN9Scintilla8Internal14ScintillaCocoa17CompositionCommitEv",
            "__ZN9Scintilla8Internal6Editor13NotifyDeletedEPNS0_8DocumentEPv",
            "__ZN9Scintilla8Internal8DocumentD0Ev",
            "__ZN9Scintilla8Internal8EditViewD0Ev",
            "__ZN9Scintilla8Internal10LineMarker6SetXPMEPKPKc",
            "__ZN9Scintilla8Internal9ChangeLog12SetSavePointEv",
            "__ZN9Scintilla8Internal13ChangeHistory6InsertEllbb",
            "__ZN9Scintilla8Internal15MarkerHandleSetC1Ev",
            "__ZN9Scintilla8Internal6HexitsEPci",
            "__ZN9Scintilla8Internal6Editor7NewLineEv",
            "__ZNK9Scintilla8Internal8Document7OptionsEv",
            "__ZN9Scintilla8Internal6Editor12DropGraphicsEv",
            "__ZNK9Scintilla8Internal9ViewStyle17CaretShapeForModeEbb",
            "__ZN9Scintilla8Internal10LineLevels10InsertLineEl",
            "__ZN9Scintilla8Internal10LineLayout12AddLineStartEl",
            "__ZN9Scintilla8Internal9ViewStyle16CreateAndAddFontERKNS0_17FontSpecificationE",
            "__ZN9Scintilla8Internal14ScintillaCocoa14ObserverRemoveEv",
            "__ZN9Scintilla8Internal11SurfaceImpl4CopyENS0_10PRectangleENS0_5PointERNS0_7SurfaceE",
            "__ZN9Scintilla8Internal14ScintillaCocoa5PasteEb",
            "__ZNK9Scintilla8Internal8Document11IsWordEndAtEl",
            "__ZN9Scintilla8Internal12LexInterface11SetInstanceEPNS_7ILexer5E",
            "__ZN9Scintilla8Internal13ScintillaBase26AutoCompleteCharacterAddedEc",
            "__ZN9Scintilla8Internal8Document20DeleteMarkFromHandleEi",
            "__ZThn296_N9Scintilla8Internal6EditorD0Ev",
            "__ZN9Scintilla8Internal14ScintillaCocoa10DragScrollEv",
            "__ZN9Scintilla8Internal14LineAnnotation4InitEv",
            "__ZN9Scintilla8Internal14ScintillaCocoa12MouseEnteredEP7NSEvent",
            "__ZNK9Scintilla8Internal14LineAnnotation14MultipleStylesEl",
            "__ZNK9Scintilla8Internal10CellBuffer5LinesEv",
            "__ZN9Scintilla8Internal6Editor14CursorUpOrDownEiNS0_9Selection8SelTypesE",
            "__ZN9Scintilla8Internal8EditView14DrawForegroundEPNS0_7SurfaceERKNS0_9EditModelERKNS0_9ViewStyleEPKNS0_10LineLayoutEiNS0_10PRectangleEilNS0_5RangeElNSt3__18optionalINS0_10ColourRGBAEEE",
            "__ZN9Scintilla8Internal8EditView14RefreshPixMapsEPNS0_7SurfaceERKNS0_9ViewStyleE",
            "__ZNK9Scintilla8Internal8Document14IsDBCSLeadByteEc",
            "__ZN9Scintilla8Internal13ChangeHistory14StartReversionEv",
            "__ZNK9Scintilla8Internal6Editor25ClampPositionIntoDocumentENS0_17SelectionPositionE",
            "__ZN9Scintilla8Internal13ScintillaBase21AutoCompleteCompletedEcNS_17CompletionMethodsE",
            "__ZN9Scintilla8Internal14ScintillaCocoa28ConvertSelectionVirtualSpaceEv",
            "__ZN9Scintilla8Internal8EditView12DropGraphicsEv",
            "__ZN9Scintilla8Internal8LexState16GetSubStyleBasesEv",
            "__ZNK9Scintilla8Internal9Selection6LengthEv",
            "__ZNK9Scintilla8Internal10CellBuffer15TentativeActiveEv",
            "__ZN9Scintilla8Internal6EditorD0Ev",
            "__ZNK9Scintilla8Internal6Editor18ContractedFoldNextEl",
            "__ZN9Scintilla8Internal6Editor17PositionFromLineXEli",
            "__ZN9Scintilla8Internal6Editor14SearchInTargetEPKcl",
            "__ZN9Scintilla8Internal8Document10BraceMatchElllb",
            "__ZNK9Scintilla8Internal15MarkerHandleSet5EmptyEv",
            "__ZN9Scintilla8Internal14SelectionRange4SwapEv",
            "__ZN9Scintilla8Internal6Window4ShowEb",
            "__ZN9Scintilla8Internal6Editor25GetClientDrawingRectangleEv",
            "__ZN9Scintilla8Internal7CallTipC1Ev",
            "__ZNK9Scintilla8Internal12AutoComplete6ActiveEv",
            "__ZN9Scintilla8Internal9Selection16RemoveDuplicatesEv",
            "__ZN9Scintilla8Internal6Editor9SetCtrlIDEi",
            "__ZN9Scintilla8Internal11UndoHistory12SetSavePointEi",
            "__ZN9Scintilla8Internal12CharClassify21SetDefaultCharClassesEb",
            "__ZN9Scintilla8Internal6Editor5ClearEv",
            "__ZN9Scintilla8Internal8Document10RemoveLineEl",
            "__ZN9Scintilla8Internal9LineState10RemoveLineEl",
            "__ZN9Scintilla8Internal6Editor6GetTagEPci",
            "__ZN9Scintilla8Internal10LineLayoutD0Ev",
            "__ZN9Scintilla8Internal14ScintillaCocoa4InitEv",
            "__ZNK9Scintilla8Internal10LineLayout7CanHoldEli",
            "__ZThn24_N9Scintilla8Internal8Document7ReleaseEv",
            "__ZNK9Scintilla8Internal12ScaledVector11SizeInBytesEv",
            "__ZN9Scintilla8Internal6Editor15InvalidateCaretEv",
            "__ZN9Scintilla8Internal14SelectionRange19MoveForInsertDeleteEbll",
            "__ZN9Scintilla8Internal6Editor17SetEmptySelectionEl",
            "__ZN9Scintilla8Internal8Document12SetLineStateEli",
            "__ZN9Scintilla8Internal8LexState21LineEndTypesSupportedEv",
            "__ZN9Scintilla8Internal8Document14SetUndoCurrentEi",
            "__ZN9Scintilla8Internal6Editor16ChangeScrollBarsEv",
            "__ZNK9Scintilla8Internal9ViewStyle13ElementColourENS_7ElementE",
            "__ZNK9Scintilla8Internal10CellBuffer7LineEndEl",
            "__ZN9Scintilla8Internal6Editor19InvalidateStyleDataEv",
            "__ZN9Scintilla8Internal9Selection18TentativeSelectionENS0_14SelectionRangeE",
            "__ZNK9Scintilla8Internal14LineAnnotation4TextEl",
            "__ZThn296_N9Scintilla8Internal6Editor17NotifyStyleNeededEPNS0_8DocumentEPvl",
            "__ZN9Scintilla8Internal13ScintillaBase11ContextMenuENS0_5PointE",
            "__ZNK9Scintilla8Internal10CellBuffer11UndoCurrentEv",
            "__ZNK9Scintilla8Internal14ScintillaCocoa15EncodedFromUTF8ENSt3__117basic_string_viewIcNS2_11char_traitsIcEEEE",
            "__ZN9Scintilla8Internal6Editor8FoldLineElNS_10FoldActionE",
            "__ZN9Scintilla8Internal14LineAnnotation7SetTextElPKc",
            "__ZNK9Scintilla8Internal9Selection20CharacterInSelectionEl",
            "__ZN9Scintilla8Internal12AutoCompleteC2Ev",
            "__ZN9Scintilla8Internal6Editor18ClearDocumentStyleEv",
            "__ZN9Scintilla8Internal8Document15SetLexInterfaceENSt3__110unique_ptrINS0_12LexInterfaceENS2_14default_deleteIS4_EEEE",
            "__ZN18PositionCacheEntryD2Ev",
            "__ZN9Scintilla8Internal9Indicator8SetFlagsENS_9IndicFlagE",
            "__ZN9Scintilla8Internal11UndoActions8TruncateEm",
            "__ZN9Scintilla8Internal11BreakFinder6InsertEl",
            "__ZN9Scintilla8Internal6Window13InvalidateAllEv",
            "__ZN9Scintilla8Internal6Editor10FoldExpandElNS_10FoldActionENS_9FoldLevelE",
            "__ZN9Scintilla8Internal9ViewStyle14SetElementBaseENS_7ElementENS0_10ColourRGBAE",
            "__ZN9Scintilla8Internal8RESearch5ClearEv",
            "__ZNK9Scintilla8Internal8Document18WordCharacterClassEj",
            "__ZNK9Scintilla8Internal8EditView14NextTabstopPosEldd",
            "__ZNK9Scintilla8Internal8Document12NextPositionEli",
            "__ZNK9Scintilla8Internal9ViewStyle12ElementIsSetENS_7ElementE",
            "__ZN9Scintilla8Internal6Editor16InsertPasteShapeEPKclNS1_10PasteShapeE",
            "__ZN9Scintilla8Internal15LineLayoutCacheD2Ev",
            "__ZN9Scintilla8Internal8Document18SetLineIndentationEll",
            "__ZN9Scintilla8Internal8EditView19DisplayFromPositionEPNS0_7SurfaceERKNS0_9EditModelElRKNS0_9ViewStyleE",
            "__ZNK9Scintilla8Internal8Document17LineStartPositionEl",
            "__ZNK9Scintilla8Internal8EditView10DrawCaretsEPNS0_7SurfaceERKNS0_9EditModelERKNS0_9ViewStyleEPKNS0_10LineLayoutEliNS0_10PRectangleEi",
            "__ZNK9Scintilla8Internal11UndoHistory15BeforeSavePointEv",
            "__ZN9Scintilla8Internal11SurfaceImpl16DeviceHeightFontEi",
            "__ZN9Scintilla8Internal22UTF8FromUTF32CharacterEiPc",
            "__ZN9Scintilla8Internal8Document12GetLastChildElNSt3__18optionalINS_9FoldLevelEEEl",
            "__ZNK9Scintilla8Internal8Document6LevelsEv",
            "__ZN9Scintilla8Internal8Document24ChangeLastUndoActionTextEmPKc",
            "__ZN9Scintilla8Internal6Editor9LinesJoinEv",
            "__ZNK9Scintilla8Internal11UndoHistory16AfterDetachPointEv",
            "__ZNK9Scintilla8Internal10ScreenLine19RepresentationCountEv",
            "__ZN9Scintilla8Internal12ScaledVector8PushBackEv",
            "__ZNK9Scintilla8Internal10CellBuffer14IndexLineStartElNS_22LineCharacterIndexTypeE",
            "__ZNK9Scintilla8Internal11BreakFinder4MoreEv",
            "__ZN9Scintilla8Internal14ScintillaCocoa9SelectAllEv",
            "__ZNK9Scintilla8Internal11UndoActions6LengthEi",
            "__ZN9Scintilla8Internal11SurfaceImplC2EPKS1_ii",
            "__ZN9Scintilla8Internal11SurfaceImplD2Ev",
            "__ZN9Scintilla8Internal14ScintillaCocoa17SetPasteboardDataEP12NSPasteboardRKNS0_13SelectionTextE",
            "__ZNK9Scintilla8Internal9RGBAImage10CountBytesEv",
            "__ZThn8_NK9Scintilla8Internal8Document12GetLineStateEl",
            "__ZNK9Scintilla8Internal9ViewStyle25WhitespaceBackgroundDrawnEv",
            "__ZN9Scintilla8Internal11UndoHistory17DeleteUndoHistoryEv",
            "__ZN9Scintilla8Internal6Editor17SetEmptySelectionENS0_17SelectionPositionE",
            "__ZN9Scintilla8Internal10PixelAlignEdi",
            "__ZN9Scintilla8Internal10LineLayoutD2Ev",
            "__ZNK9Scintilla8Internal10LineMarker13BackWithAlphaEv",
            "__ZNK9Scintilla8Internal8Document11SafeSegmentENSt3__117basic_string_viewIcNS2_11char_traitsIcEEEE",
            "__ZN9Scintilla8Internal12FontRealised7RealiseERNS0_7SurfaceEiNS_10TechnologyERKNS0_17FontSpecificationEPKc",
            "__ZN9Scintilla8Internal6Editor10LinesSplitEi",
            "__ZN9Scintilla8Internal6Editor13DelWordOrLineENS_7MessageE",
            "__ZN9Scintilla8Internal6Editor15NotifySavePointEPNS0_8DocumentEPvb",
            "__ZN9Scintilla8Internal6Editor14NotifyUpdateUIEv",
            "__ZN9Scintilla8Internal6Editor20NotifyHotSpotClickedElNS_6KeyModE",
            "__ZN9Scintilla8Internal6Editor8PageMoveEiNS0_9Selection8SelTypesEb",
            "__ZN9Scintilla8Internal8Document12InsertStringElNSt3__117basic_string_viewIcNS2_11char_traitsIcEEEE",
            "__ZNK9Scintilla8Internal6Editor22RangeContainsProtectedEll",
            "__ZNK9Scintilla8Internal10ScreenLine5WidthEv",
            "__ZN9Scintilla8Internal15LineLayoutCache10InvalidateENS0_10LineLayout10ValidLevelE",
            "__ZN9Scintilla8Internal10CellBuffer15TentativeCommitEv",
            "__ZNK9Scintilla8Internal9RGBAImage6PixelsEv",
            "__ZN9Scintilla8Internal6Editor10NotifyCharEiNS_15CharacterSourceE",
            "__ZN9Scintilla8Internal8EditView14DrawAnnotationEPNS0_7SurfaceERKNS0_9EditModelERKNS0_9ViewStyleEPKNS0_10LineLayoutEliNS0_10PRectangleEiNS0_9DrawPhaseE",
            "__ZN9Scintilla8Internal8LexState11NamedStylesEv",
            "__ZN9Scintilla8Internal14ScintillaCocoa7WndProcENS_7MessageEml",
            "__ZN9Scintilla8Internal17CaseFolderUnicode4FoldEPcmPKcm",
            "__ZN9Scintilla8Internal6Editor20LocationFromPositionElNS0_8PointEndE",
            "__ZNK9Scintilla8Internal10LineLayout4SpanEii",
            "__ZNK9Scintilla8Internal8Document21GetLineIndentPositionEl",
            "__ZNK9Scintilla8Internal8Document15CountCharactersEll",
            "__ZN9Scintilla8Internal14ScintillaCocoa18ActiveStateChangedEb",
            "__ZN9Scintilla8Internal8Document9SetStylesElPKc",
            "__ZNK9Scintilla8Internal14LineAnnotation5LinesEl",
            "__ZN9Scintilla8Internal10CellBuffer11SetReadOnlyEb",
            "__ZN9Scintilla8Internal6Editor15RedrawSelMarginElb",
            "__ZN9Scintilla8Internal6Editor20KeyDownWithModifiersENS_4KeysENS_6KeyModEPb",
            "__ZN9Scintilla8Internal8LexState16DescribePropertyEPKc",
            "__ZN9Scintilla8Internal8RESearchC1EPNS0_12CharClassifyE",
            "__ZNK9Scintilla8Internal10MarginView14PaintOneMarginEPNS0_7SurfaceENS0_10PRectangleES4_RKNS0_11MarginStyleERKNS0_9EditModelERKNS0_9ViewStyleE",
            "__ZN9Scintilla8Internal6Editor9SelectAllEv",
            "__ZN9Scintilla8Internal9ViewStyle15SetElementAlphaENS_7ElementEi",
            "__ZNK9Scintilla8Internal9Selection5RangeEm",
            "__ZN9Scintilla8Internal14ScintillaCocoa16HaveMouseCaptureEv",
            "__ZN9Scintilla8Internal6Editor15StyleGetMessageENS_7MessageEml",
            "__ZN9Scintilla8Internal9LineState12GetLineStateEl",
            "__ZNK9Scintilla8Internal8Document9GetColumnEl",
            "__ZN9Scintilla8Internal14ScintillaCocoa17SetFirstResponderEb",
            "__ZN9Scintilla8Internal13ScintillaBase11CallTipShowENS0_5PointEPKc",
            "__ZN9Scintilla8Internal6Editor26CheckForChangeOutsidePaintENS0_5RangeE",
            "__ZN9Scintilla8Internal12LineTabstops10InsertLineEl",
            "__ZN9Scintilla8Internal9Selection14SetMoveExtendsEb",
            "__ZN9Scintilla8Internal8Document16SetUndoSavePointEi",
            "__ZN9Scintilla8Internal5CaretC2Ev",
            "__ZNK9Scintilla8Internal22SpecialRepresentations17GetRepresentationENSt3__117basic_string_viewIcNS2_11char_traitsIcEEEE",
            "__ZNK9Scintilla8Internal8Document8CodePageEv",
            "__ZN9Scintilla8Internal8Document13CheckReadOnlyEv",
            "__ZNK9Scintilla8Internal8Document13DBCSDrawBytesENSt3__117basic_string_viewIcNS2_11char_traitsIcEEEE",
            "__ZN9Scintilla8Internal11SurfaceImpl12FlushDrawingEv",
            "__ZN9Scintilla8Internal6Editor19NotifyModifyAttemptEPNS0_8DocumentEPv",
            "__ZN9Scintilla8Internal11UndoHistory15BeginUndoActionEb",
            "__ZN9Scintilla8Internal6Editor6DropAtENS0_17SelectionPositionEPKcbb",
            "__ZN9Scintilla8Internal9ChangeLog21InsertFrontDeletionAtElNS0_12EditionCountE",
            "__ZN9Scintilla8Internal11UTF32LengthENSt3__117basic_string_viewIcNS1_11char_traitsIcEEEE",
            "__ZNK9Scintilla8Internal10LineLayout17PointFromPositionEiiNS0_8PointEndE",
            "__ZNK9Scintilla8Internal8Document16LineFromPositionEl",
            "__ZN9Scintilla8Internal8EditView10LayoutLineERKNS0_9EditModelEPNS0_7SurfaceERKNS0_9ViewStyleEPNS0_10LineLayoutEib",
            "__ZN9Scintilla8Internal14ScintillaCocoa7SetIdleEb",
            "__ZNK9Scintilla8Internal8Document15AnnotationLinesEl",
            "__ZN9Scintilla8Internal6Editor13XFromPositionENS0_17SelectionPositionE",
            "__ZNK9Scintilla8Internal8Document9EOLStringEv",
            "__ZNK9Scintilla8Internal16SignificantLines12LineMayCacheEl",
            "__ZN9Scintilla8Internal9ViewStyleC2Em",
            "__ZNK9Scintilla8Internal17FontSpecificationeqERKS1_",
            "__ZNK9Scintilla8Internal9ViewStyle24ElementAllowsTranslucentENS_7ElementE",
            "__ZNK9Scintilla8Internal12LexInterface18UseContainerLexingEv",
            "__ZN9Scintilla8Internal12AutoCompleteD1Ev",
            "__ZN9Scintilla8Internal6Editor10KeyCommandENS_7MessageE",
            "__ZN9Scintilla8Internal10MarginViewC2Ev",
            "__ZN9Scintilla8Internal8Document10DeleteMarkEli",
            "__ZN9Scintilla8Internal6Window11SetPositionENS0_10PRectangleE",
            "__ZNK9Scintilla8Internal9ChangeLog6LengthEv",
            "__ZN9Scintilla8Internal6Editor21MoveSelectedLinesDownEv",
            "__ZNK9Scintilla8Internal13ScintillaBase18ShouldDisplayPopupENS0_5PointE",
            "__ZNK9Scintilla8Internal8Document18UndoActionPositionEi",
            "__ZN9Scintilla8Internal6Editor7WndProcENS_7MessageEml",
            "__ZN9Scintilla8Internal9ChangeLog24DeleteRangeSavingHistoryEll",
            "__ZN9Scintilla8Internal6Editor11FormatRangeENS_7MessageEml",
            "__ZN9Scintilla8Internal9ViewStyle24SetElementColourOptionalENS_7ElementEml",
            "__ZN9Scintilla8Internal6Editor15SetDragPositionENS0_17SelectionPositionE",
            "__ZN9Scintilla8Internal6Editor12ParaUpOrDownEiNS0_9Selection8SelTypesE",
            "__ZNK9Scintilla8Internal9Selection9RangeTypeEm",
            "__ZN9Scintilla8Internal9ViewStyle11AllocStylesEm",
            "__ZNK9Scintilla8Internal8Document10MarkerNextEli",
            "__ZN9Scintilla8Internal11SurfaceImpl16AverageCharWidthEPKNS0_4FontE",
            "__ZN9Scintilla8Internal6Editor9NeedShownEll",
            "__ZN9Scintilla8Internal12LexInterfaceD2Ev",
            "__ZThn8_N9Scintilla8Internal8Document8SetLevelEli",
            "__ZNK9Scintilla8Internal8Document6StatesEv",
            "__ZN9Scintilla8Internal9EditModelD0Ev",
            "__ZN9Scintilla8Internal6Editor23ButtonDownWithModifiersENS0_5PointEjNS_6KeyModE",
            "__ZN9Scintilla8Internal8LexState15SubStylesLengthEi",
            "__ZN9Scintilla8Internal12LexInterfaceD0Ev",
            "__ZN9Scintilla8Internal15PixelAlignFloorEdi",
            "__ZN9Scintilla8Internal8Platform6ChromeEv",
            "__ZN9Scintilla8Internal12CharClassify14SetCharClassesEPKhNS0_14CharacterClassE",
            "__ZN9Scintilla8Internal6Editor11ScrollRangeENS0_14SelectionRangeE",
            "__ZN9Scintilla8Internal8Document15NotifySavePointEb",
            "__ZN9Scintilla8Internal10LineLayout22RestoreBracesHighlightENS0_5RangeEPKlb",
            "__ZN9Scintilla8Internal12AutoComplete4MoveEi",
            "__ZN9Scintilla8Internal5TimerC2Ev",
            "__ZN9Scintilla8Internal8Document19DecorationFillRangeElil",
            "__ZN9Scintilla8Internal8Document14EnsureStyledToEl",
            "__ZN9Scintilla8Internal6KeyMap5ClearEv",
            "__ZN9Scintilla8Internal22SpecialRepresentations17SetRepresentationENSt3__117basic_string_viewIcNS2_11char_traitsIcEEEES6_",
            "__ZN9Scintilla8Internal6Editor21MovePositionSoVisibleENS0_17SelectionPositionEi",
            "__ZN9Scintilla8Internal14UndoActionTypeC2Ev",
            "__ZN9Scintilla8Internal13ChangeHistory14UndoDeleteStepEllb",
            "__ZN9Scintilla8Internal6Editor12CutAllowLineEv",
            "__ZN9Scintilla8Internal8Platform11DebugPrintfEPKcz",
            "__ZN9Scintilla8Internal10CellBuffer14SetUndoCurrentEi",
            "__ZN9Scintilla8Internal11SurfaceImpl11InitialisedEv",
            "__ZNK9Scintilla8Internal14LineAnnotation6StylesEl",
            "__ZNK9Scintilla8Internal9ChangeLog5CheckEv",
            "__ZN9Scintilla8Internal6Editor13SetDocPointerEPNS0_8DocumentE",
            "__ZN9Scintilla8Internal20CharacterCategoryMapC2Ev",
            "__ZNK9Scintilla8Internal10CellBuffer16LineFromPositionEl",
            "__ZN9Scintilla8Internal9Selection15CommitTentativeEv",
            "__ZN9Scintilla8Internal14ScintillaCocoa11ContentViewEv",
            "__ZN9Scintilla8Internal6Editor14SetLastXChosenEv",
            "__ZN9Scintilla8Internal13ChangeHistory12SetSavePointEv",
            "__ZN9Scintilla8Internal8Document22SetLineEndTypesAllowedENS_11LineEndTypeE",
            "__ZNK9Scintilla8Internal10CellBuffer10IsReadOnlyEv",
            "__ZNK9Scintilla8Internal8Document13IsWordStartAtEl",
            "__ZN9Scintilla8Internal14ScintillaCocoa11SetDelegateEPU40objcproto29ScintillaNotificationProtocol11objc_object",
            "__ZNK9Scintilla8Internal8Document15GetMaxLineStateEv",
            "__ZN9Scintilla8Internal10LineLayout14EnsureBidiDataEv",
            "__ZN9Scintilla8Internal8Document17ConvertToDocumentEv",
            "__ZNK9Scintilla8Internal10CellBuffer14UndoActionTextEi",
            "__ZNK9Scintilla8Internal6Window17GetClientPositionEv",
            "__ZN9Scintilla8Internal8Document13AllocateLinesEl",
            "__ZN9Scintilla8Internal14ScintillaCocoa7CanRedoEv",
            "__ZNK9Scintilla8Internal11ChangeStack5CheckEv",
            "__ZNK9Scintilla8Internal11LineMarkers10MarkerNextEli",
            "__ZN9Scintilla8Internal8Document14MarginClearAllEv",
            "__ZNK9Scintilla8Internal9Selection11MoveExtendsEv",
            "__ZN9Scintilla8Internal11UndoHistoryC2Ev",
            "__ZN9Scintilla8Internal7CallTip7PaintCTEPNS0_7SurfaceE",
            "__ZN9Scintilla8Internal10LineLayout4FreeEv",
            "__ZN9Scintilla8Internal10CellBuffer9StartUndoEv",
            "__ZN9Scintilla8Internal8DocumentD1Ev",
            "__ZN9Scintilla8Internal10LineMarker6SetXPMEPKc",
            "__ZN9Scintilla8Internal10CellBuffer15PerformUndoStepEv",
            "__ZN9Scintilla8Internal14ScintillaCocoa7TickForENS0_6Editor10TickReasonE",
            "__ZN9Scintilla8Internal14ScintillaCocoa12NotifyParentENS_16NotificationDataE",
            "__ZNK9Scintilla8Internal8Document15TrimReplacementERNSt3__117basic_string_viewIcNS2_11char_traitsIcEEEERNS0_5RangeE",
            "__ZN9Scintilla8Internal11SurfaceImpl23DrawTextTransparentUTF8ENS0_10PRectangleEPKNS0_4FontEdNSt3__117basic_string_viewIcNS6_11char_traitsIcEEEENS0_10ColourRGBAE",
            "__ZNK9Scintilla8Internal13ChangeHistory6LengthEv",
            "__ZN9Scintilla8Internal3XPMC1EPKPKc",
            "__ZNK9Scintilla8Internal9Selection9RangeMainEv",
            "__ZN9Scintilla8Internal12AutoComplete6SelectEPKc",
            "__ZN9Scintilla8Internal9ViewStyle23CalcLargestMarkerHeightEv",
            "__ZNK9Scintilla8Internal10CellBuffer6CharAtEl",
            "__ZNK9Scintilla8Internal11UndoHistory24BeforeReachableSavePointEv",
            "__ZN9Scintilla8Internal14ScintillaCocoa4DrawE6CGRectP9CGContext",
            "__ZN9Scintilla8Internal6EditorD1Ev",
            "__ZN9Scintilla8Internal13ChangeHistoryC2El",
            "__ZNK9Scintilla8Internal10LineLayout7XInLineEl",
            "__ZN9Scintilla8Internal14LineAnnotation10InsertLineEl",
            "__ZN9Scintilla8Internal11LineMarkers4InitEv",
            "__ZNK9Scintilla8Internal10LineLayout12SubLineRangeEiNS1_5ScopeE",
            "__ZN9Scintilla8Internal8EditViewD1Ev",
            "__ZN9Scintilla8Internal9Selection20DropAdditionalRangesEv",
            "__ZN9Scintilla8Internal17CaseFolderUnicodeC2Ev",
            "__ZN9Scintilla8Internal11SurfaceImpl9WidthTextEPKNS0_4FontENSt3__117basic_string_viewIcNS5_11char_traitsIcEEEE",
            "__ZN9Scintilla8Internal14FixInvalidUTF8ERKNSt3__112basic_stringIcNS1_11char_traitsIcEENS1_9allocatorIcEEEE",
            "__ZN9Scintilla8Internal16UniqueStringCopyEPKc",
            "__ZN9Scintilla8Internal10CellBuffer13AllocateLinesEl",
            "__ZN9Scintilla8Internal12LineTabstops10AddTabstopEli",
            "__ZN9Scintilla8Internal8Platform15DefaultFontSizeEv",
            "__ZN9Scintilla8Internal11SurfaceImplD1Ev",
            "__ZN9Scintilla8Internal8Document12InsertStringElPKcl",
            "__ZN9Scintilla8Internal6Editor17FineTickerRunningENS1_10TickReasonE",
            "__ZN9Scintilla8Internal8Document14DeleteAllMarksEi",
            "__ZN9Scintilla8Internal8Document14SetCharClassesEPKhNS0_14CharacterClassE",
            "__ZNK9Scintilla8Internal8Document20GetCharacterAndWidthElPl",
            "__ZN9Scintilla8Internal10MarginView11PaintMarginEPNS0_7SurfaceElNS0_10PRectangleES4_RKNS0_9EditModelERKNS0_9ViewStyleE",
            "__ZN9Scintilla8Internal11SurfaceImpl6AscentEPKNS0_4FontE",
            "__ZN9Scintilla8Internal22ControlCharacterStringEh",
            "__ZNK9Scintilla8Internal6Editor13IsUnicodeModeEv",
            "__ZNK9Scintilla8Internal8Document9DEVersionEv",
            "__ZN9Scintilla8Internal8Document10InsertLineEl",
            "__ZN9Scintilla8Internal11ChangeStack13PushInsertionElli",
            "__ZNK9Scintilla8Internal22SpecialRepresentations27RepresentationFromCharacterENSt3__117basic_string_viewIcNS2_11char_traitsIcEEEE",
            "__ZN9Scintilla8Internal10PixelAlignERKNS0_5PointEi",
            "__ZN9Scintilla8Internal11SurfaceImpl14RectangleFrameENS0_10PRectangleENS0_6StrokeE",
            "__ZN9Scintilla8Internal15MarkerHandleSet12RemoveNumberEib",
            "__ZNK9Scintilla8Internal9ViewStyle19ExternalMarginWidthEv",
            "__ZN9Scintilla8Internal9ViewStyle12ResetElementENS_7ElementE",
            "__ZNK9Scintilla8Internal8Document10UndoDetachEv",
            "__ZNK9Scintilla8Internal3XPM14ColourFromCodeEi",
            "__ZN9Scintilla8Internal14ScintillaCocoa11ObserverAddEv",
            "__ZNK9Scintilla8Internal9RGBAImage14GetScaledWidthEv",
            "__ZN9Scintilla8Internal14ScintillaCocoa8WillDrawE6CGRect",
            "__ZN9Scintilla8Internal22ContractionStateCreateEb",
            "__ZN9Scintilla8Internal14ScintillaCocoa9SyncPaintEPvNS0_10PRectangleE",
            "__ZN9Scintilla8Internal10CellBuffer16SetUTF8SubstanceEb",
            "__ZN9Scintilla8Internal15UniqueStringSet5ClearEv",
            "__ZN9Scintilla8Internal4Menu4ShowENS0_5PointERKNS0_6WindowE",
            "__ZNK9Scintilla8Internal6Editor13TopLineOfMainEv",
            "__ZNK9Scintilla8Internal8Document7MarkersEv",
            "__ZN9Scintilla8Internal10LineMarkerC1ERKS1_",
            "__ZN9Scintilla8Internal14ScintillaCocoa13SetDocPointerEPNS0_8DocumentE",
            "__ZNK9Scintilla8Internal6Editor17PositionIsHotspotEl",
            "__ZN9Scintilla8Internal11SurfaceImplC1EPKS1_ii",
            "__ZN9Scintilla8Internal8EditView10AddTabstopEli",
            "__ZNK9Scintilla8Internal12RGBAImageSet9GetHeightEv",
            "__ZN9Scintilla8Internal8Platform15ChromeHighlightEv",
            "__ZNK9Scintilla8Internal11UndoHistory7CurrentEv",
            "__ZN9Scintilla8Internal6Editor18SelectionFromPointENS0_5PointE",
            "__ZN9Scintilla8Internal6Editor13QueueIdleWorkENS0_9WorkItemsEl",
            "__ZN9Scintilla8Internal6Editor12StringResultElPKc",
            "__ZNK9Scintilla8Internal10CellBuffer7AllViewEv",
            "__ZNK9Scintilla8Internal17SelectionPositiongtERKS1_",
            "__ZN9Scintilla8Internal6Editor9TextWidthEmPKc",
            "__ZNK9Scintilla8Internal11UndoActions5SSizeEv",
            "__ZN18PositionCacheEntryC2Ev",
            "__ZN9Scintilla8Internal6Editor19LineEndWrapPositionEl",
            "__ZN9Scintilla8Internal10CellBuffer25ReleaseLineCharacterIndexENS_22LineCharacterIndexTypeE",
            "__ZN9Scintilla8Internal6Editor25SetHoverIndicatorPositionEl",
            "__ZN9Scintilla8Internal9ViewStyle18SetWrapVisualFlagsENS_14WrapVisualFlagE",
            "__ZN9Scintilla8Internal14ScintillaCocoa17HideFindIndicatorEv",
            "__ZNK9Scintilla8Internal8Document20MarkerNumberFromLineEli",
            "__ZN9Scintilla8Internal6Editor12SetSelectionENS0_17SelectionPositionES2_",
            "__ZNK9Scintilla8Internal10CellBuffer9HasStylesEv",
            "__ZNK9Scintilla8Internal5Chunk6LengthEv",
            "__ZN9Scintilla8Internal8Document10AddMarkSetEli",
            "__ZNK9Scintilla8Internal6Editor11ValidMarginEm",
            "__ZN9Scintilla8Internal13ChangeHistory8SetEpochEi",
            "__ZN9Scintilla8Internal8Document15SetDBCSCodePageEi",
            "__ZN9Scintilla8Internal4MenuC1Ev",
            "__ZN9Scintilla8Internal8Document10ModifiedAtEl",
            "__ZNK9Scintilla8Internal9ViewStyle13GetFrameWidthEv",
            "__ZN9Scintilla8Internal14UndoActionTypeC1Ev",
            "__ZN9Scintilla8Internal13ScintillaBase11CancelModesEv",
            "__ZN9Scintilla8Internal9ViewStyle11EnsureStyleEm",
            "__ZNK9Scintilla8Internal11LineMarkers14HandleFromLineEli",
            "__ZN9Scintilla8Internal8Document15MarginSetStylesElPKh",
            "__ZN9Scintilla8Internal8Document6AddRefEv",
            "__ZN9Scintilla8Internal14ScintillaCocoa16CallTipMouseDownE7CGPoint",
            "__ZN9Scintilla8Internal7CallTipD2Ev",
            "__ZN9Scintilla8Internal11SurfaceImpl18DrawTextNoClipUTF8ENS0_10PRectangleEPKNS0_4FontEdNSt3__117basic_string_viewIcNS6_11char_traitsIcEEEENS0_10ColourRGBAESB_",
            "__ZN9Scintilla8Internal11UndoHistory12SetTentativeEi",
            "__ZNK9Scintilla8Internal13ChangeHistory13EditionEndRunEl",
            "__ZN9Scintilla8Internal8LexState25DistanceToSecondaryStylesEv",
            "__ZN9Scintilla8Internal10CellBuffer12RangePointerEll",
            "__ZNK9Scintilla8Internal8Document7MarginsEv",
            "__ZNK9Scintilla8Internal10CellBuffer13UndoSavePointEv",
            "__ZNK9Scintilla8Internal14SelectionRange8ContainsEl",
            "__ZN9Scintilla8Internal10PixelAlignERKNS0_10PRectangleEi",
            "__ZN9Scintilla8Internal14ScintillaCocoa15DraggingUpdatedEPU25objcproto14NSDraggingInfo11objc_object",
            "__ZNK9Scintilla8Internal15MarkerHandleSet8ContainsEi",
            "__ZNK9Scintilla8Internal8Document17IsLineEndPositionEl",
            "__ZNK9Scintilla8Internal10CellBuffer13UndoTentativeEv",
            "__ZNK9Scintilla8Internal8Document21LineFromPositionAfterEll",
            "__ZN9Scintilla8Internal6Editor13SetFocusStateEb",
            "__ZNK9Scintilla8Internal6Editor13LinesToScrollEv",
            "__ZNK9Scintilla8Internal13ChangeHistory16EditionDeletesAtEl",
            "__ZN9Scintilla8Internal11SurfaceImpl8PolyLineEPKNS0_5PointEmNS0_6StrokeE",
            "__ZN9Scintilla8Internal11SurfaceImpl13MeasureWidthsEPKNS0_4FontENSt3__117basic_string_viewIcNS5_11char_traitsIcEEEEPd",
            "__ZN9Scintilla8Internal8Document4RedoEv",
            "__ZN9Scintilla8Internal14ScintillaCocoa17GetPasteboardDataEP12NSPasteboardPNS0_13SelectionTextE",
            "__ZNK9Scintilla8Internal8Document8IsWordAtEll",
            "__ZN9Scintilla8Internal11SurfaceImpl4InitEPv",
            "__ZN18PositionCacheEntry3SetEjbNSt3__117basic_string_viewIcNS0_11char_traitsIcEEEEPKdt",
            "__ZNK9Scintilla8Internal8Document18LineCharacterIndexEv",
            "__ZN9Scintilla8Internal8EditView8DrawLineEPNS0_7SurfaceERKNS0_9EditModelERKNS0_9ViewStyleEPKNS0_10LineLayoutElliNS0_10PRectangleEiNS0_9DrawPhaseE",
            "__ZNK9Scintilla8Internal6Editor17PositionAfterAreaENS0_10PRectangleE",
            "__ZN9Scintilla8Internal14ScintillaCocoa4UndoEv",
            "__ZN9Scintilla8Internal6Editor10ExpandLineEl",
            "__ZN9Scintilla8Internal23CompareNCaseInsensitiveEPKcS2_m",
            "__ZN9Scintilla8Internal9ChangeLog9SaveRangeEll",
            "__ZN9Scintilla8Internal6Editor13AddStyledTextEPKcl",
            "__ZNK9Scintilla8Internal12ScaledVector4SizeEv",
            "__ZN9Scintilla8Internal14ScintillaCocoa8FinaliseEv",
            "__ZNK9Scintilla8Internal11UndoHistory14PreviousActionEv",
            "__ZNK9Scintilla8Internal8Document15GetCharsOfClassENS0_14CharacterClassEPh",
            "__ZN9Scintilla8Internal11SurfaceImpl20FillRectangleAlignedENS0_10PRectangleENS0_4FillE",
            "__ZThn296_N9Scintilla8Internal13ScintillaBaseD0Ev",
            "__ZN9Scintilla8Internal14ScintillaCocoa16NotifyURIDroppedEPKc",
            "__ZN9Scintilla8Internal5ClampENS0_10PRectangleENS0_4EdgeEd",
            "__ZN9Scintilla8Internal11SurfaceImpl16RoundedRectangleENS0_10PRectangleENS0_10FillStrokeE",
            "__ZNK9Scintilla8Internal6Editor21DocumentPointFromViewENS0_5PointE",
            "__ZN9Scintilla8Internal8DocumentC2ENS_14DocumentOptionE",
            "__ZN9Scintilla8Internal6Editor12SetSelectionEll",
            "__ZN9Scintilla8Internal6Editor12SetSelectionENS0_17SelectionPositionE",
            "__ZNK9Scintilla8Internal8Document24GetRelativePositionUTF16Ell",
            "__ZNK9Scintilla8Internal8Document15GetLexInterfaceEv",
            "__ZN9Scintilla8Internal8EditView19StartEndDisplayLineEPNS0_7SurfaceERKNS0_9EditModelElbRKNS0_9ViewStyleE",
            "__ZNK9Scintilla8Internal10LineLayout10FindBeforeEdNS0_5RangeE",
            "__ZN9Scintilla8Internal11BreakFinderD1Ev",
            "__ZN9Scintilla8Internal11SurfaceImpl16FlushCachedStateEv",
            "__ZN9Scintilla8Internal9Selection7SetMainEm",
            "__ZNK9Scintilla8Internal10CellBuffer10UndoDetachEv",
            "__ZN9Scintilla8Internal6Editor21InvalidateStyleRedrawEv",
            "__ZNK9Scintilla8Internal10LineLayout15LineLastVisibleEiNS1_5ScopeE",
            "__ZN9Scintilla8Internal7CallTip12CallTipStartElNS0_5PointEiPKciPNS0_7SurfaceERKNSt3__110shared_ptrINS0_4FontEEE",
            "__ZNK9Scintilla8Internal11UndoHistory14AfterSavePointEv",
            "__ZN9Scintilla8Internal11SurfaceImpl15DrawTextClippedENS0_10PRectangleEPKNS0_4FontEdNSt3__117basic_string_viewIcNS6_11char_traitsIcEEEENS0_10ColourRGBAESB_",
            "__ZN9Scintilla8Internal14ScintillaCocoa14DraggingExitedEPU25objcproto14NSDraggingInfo11objc_object",
            "__ZN9Scintilla8Internal6Editor17UpdateSystemCaretEv",
            "__ZNK9Scintilla8Internal6Editor18GetClientRectangleEv",
            "__ZN9Scintilla8Internal6Editor24CheckModificationForWrapENS0_15DocModificationE",
            "__ZThn16_N9Scintilla8Internal8Document7AddDataEPKcl",
            "__ZN9Scintilla8Internal8Document18AsDocumentEditableEv",
            "__ZN9Scintilla8Internal8Document8SetLevelEli",
            "__ZN9Scintilla8Internal8Document18PushUndoActionTypeEil",
            "__ZN9Scintilla8Internal9Selection12AddSelectionENS0_14SelectionRangeE",
            "__ZNK9Scintilla8Internal13ScintillaBase26AutoCompleteGetCurrentTextEPc",
            "__ZNK9Scintilla8Internal17SelectionPositionleERKS1_",
            "__ZN9Scintilla8Internal10CellBuffer18PushUndoActionTypeEil",
            "__ZN9Scintilla8Internal8LexStateC1EPNS0_8DocumentE",
            "__ZN9Scintilla8Internal12LexInterfaceC1EPNS0_8DocumentE",
            "__ZN9Scintilla8Internal14ScintillaCocoa10MouseWheelEP7NSEvent",
            "__ZN9Scintilla8Internal11SurfaceImpl7PopClipEv",
            "__ZN9Scintilla8Internal6Editor17NotifyStyleNeededEPNS0_8DocumentEPvl",
            "__ZN13PositionCache13MeasureWidthsEPN9Scintilla8Internal7SurfaceERKNS1_9ViewStyleEjbNSt3__117basic_string_viewIcNS7_11char_traitsIcEEEEPdb",
            "__ZN9Scintilla8Internal15UniqueStringSetC2Ev",
            "__ZN9Scintilla8Internal6Window19SetPositionRelativeENS0_10PRectangleEPKS1_",
            "__ZN9Scintilla8Internal10CellBuffer11SetStyleForEllc",
            "__ZN9Scintilla8Internal15LineLayoutCache16AllocateForLevelEll",
            "__ZN9Scintilla8Internal9LineState4InitEv",
            "__ZN9Scintilla8Internal9ViewStyle13SetElementRGBENS_7ElementEi",
            "__ZN9Scintilla8Internal14ScintillaCocoa4RedoEv",
            "__ZN9Scintilla8Internal3XPMC2EPKPKc",
            "__ZN9Scintilla8Internal13ScintillaBase10ListNotifyEPNS0_12ListBoxEventE",
            "__ZNK9Scintilla8Internal13ChangeHistory17EditionNextDeleteEl",
            "__ZN9Scintilla8Internal12LineTabstops11InsertLinesEll",
            "__ZN9Scintilla8Internal9RGBAImageC1ERKNS0_3XPME",
            "__ZN9Scintilla8Internal10CellBuffer15BeginUndoActionEb",
            "__ZN9Scintilla8Internal8Document11DeleteCharsEll",
            "__ZNK9Scintilla8Internal10CellBuffer17UndoSequenceDepthEv",
            "__ZThn8_N9Scintilla8Internal8Document11SetStyleForElc",
            "__ZN9Scintilla8Internal10ScreenLineD0Ev",
            "__ZN9Scintilla8Internal9Selection23AddSelectionWithoutTrimENS0_14SelectionRangeE",
            "__ZNK9Scintilla8Internal10CellBuffer7CanRedoEv",
            "__ZN9Scintilla8Internal10CellBuffer14TentativeStartEv",
            "__ZNK9Scintilla8Internal11UndoHistory17UndoSequenceDepthEv",
            "__ZN9Scintilla8Internal11SurfaceImpl7SetClipENS0_10PRectangleE",
            "__ZN9Scintilla8Internal6Editor8GoToLineEl",
            "__ZN9Scintilla8Internal10LineLayoutC2Eli",
            "__ZN9Scintilla8Internal12LineTabstops4InitEv",
            "__ZNK9Scintilla8Internal6Editor13LinesOnScreenEv",
            "__ZN9Scintilla8Internal10ScrapStack11MoveForwardEm",
            "__ZN9Scintilla8Internal9ChangeLog11PopDeletionEll",
            "__ZN9Scintilla8Internal7CallTip13CallTipCancelEv",
            "__ZN9Scintilla8Internal20CharacterCategoryMap8OptimizeEi",
            "__ZN9Scintilla8Internal17CaseConvertStringERKNSt3__112basic_stringIcNS1_11char_traitsIcEENS1_9allocatorIcEEEENS0_14CaseConversionE",
            "__ZN18PositionCacheEntry10ResetClockEv",
            "__ZN9Scintilla8Internal14ScintillaCocoa3CutEv",
            "__ZN9Scintilla8Internal11UndoHistory15TentativeCommitEv",
            "__ZN9Scintilla8Internal6Editor25NotifyHotSpotReleaseClickElNS_6KeyModE",
            "__ZN9Scintilla8Internal11BreakFinderC1EPKNS0_10LineLayoutEPKNS0_9SelectionENS0_5RangeEldNS1_8BreakForEPKNS0_8DocumentEPKNS0_22SpecialRepresentationsEPKNS0_9ViewStyleE",
            "__ZN9Scintilla8Internal6Editor16PointInSelectionENS0_5PointE",
            "__ZNK9Scintilla8Internal8Document6ParaUpEl",
            "__ZN9Scintilla8Internal19CategoriseCharacterEi",
            "__ZN9Scintilla8Internal4SideENS0_10PRectangleENS0_4EdgeEd",
            "__ZNK9Scintilla8Internal12AutoComplete12IsFillUpCharEc",
            "__ZN9Scintilla8Internal13ScintillaBase19NotifyStyleToNeededEl",
            "__ZNK9Scintilla8Internal8Document11AnnotationsEv",
            "__ZN9Scintilla8Internal11SurfaceImpl14AllocatePixMapEii",
            "__ZN9Scintilla8Internal11SurfaceImpl17GradientRectangleENS0_10PRectangleERKNSt3__16vectorINS0_10ColourStopENS3_9allocatorIS5_EEEENS0_7Surface15GradientOptionsE",
            "__ZNK9Scintilla8Internal14ScintillaCocoa18GetClientRectangleEv",
            "__ZThn8_N9Scintilla8Internal8Document18GetLineIndentationEl",
            "__ZN9Scintilla8Internal10CellBuffer17SetUndoCollectionEb",
            "__ZN9Scintilla8Internal8Document19NotifyModifyAttemptEv",
            "__ZN9Scintilla8Internal8Document12StartStylingEl",
            "__ZN9Scintilla8Internal11ChangeStack12SetSavePointEv",
            "__ZN9Scintilla8Internal9RGBAImage8SetPixelEiiNS0_10ColourRGBAE",
            "__ZNK9Scintilla8Internal6Editor22GetVisibleOriginInMainEv",
            "__ZNK9Scintilla8Internal8Document14UndoActionTypeEi",
            "__ZN9Scintilla8Internal6Editor21ReconfigureScrollBarsEv",
            "__ZNK9Scintilla8Internal8Document12GetFoldLevelEl",
            "__ZN9Scintilla8Internal6Editor12SearchAnchorEv",
            "__ZN9Scintilla8Internal14ScintillaCocoa17CreateContextMenuEP7NSEvent",
            "__ZN9Scintilla8Internal13UTF16FromUTF8ENSt3__117basic_string_viewIcNS1_11char_traitsIcEEEEPwm",
            "__ZN9Scintilla8Internal6Editor8ScrollToElb",
            "__ZN9Scintilla8Internal14ScintillaCocoa21CaseFolderForEncodingEv",
            "__ZN9Scintilla8Internal6Window19InvalidateRectangleENS0_10PRectangleE",
            "__ZNK9Scintilla8Internal8LexState7PropGetEPKc",
            "__ZN9Scintilla8Internal8Platform6AssertEPKcS3_i",
            "__ZN9Scintilla8Internal13ChangeHistory12EndReversionEv",
            "__ZN9Scintilla8Internal14ScintillaCocoa18ClearAllSelectionsEv",
            "__ZN9Scintilla8Internal12LexInterfaceC2EPNS0_8DocumentE",
            "__ZN9Scintilla8Internal11UndoActions5ClearEv",
            "__ZN9Scintilla8Internal11SurfaceImpl7DescentEPKNS0_4FontE",
            "__ZN9Scintilla8Internal10CellBuffer13AddUndoActionElb",
            "__ZN9Scintilla8Internal6Window14GetMonitorRectENS0_5PointE",
            "__ZN9Scintilla8Internal14ScintillaCocoa10RedrawRectENS0_10PRectangleE",
            "__ZNK9Scintilla8Internal10CellBuffer11IsSavePointEv",
            "__ZN9Scintilla8Internal6WindowD2Ev",
            "__ZN9Scintilla8Internal9SelectionC2Ev",
            "__ZN9Scintilla8Internal13ScintillaBase10KeyCommandENS_7MessageE",
            "__ZN9Scintilla8Internal6Editor13CopyLineRangeEPNS0_13SelectionTextEb",
            "__ZN9Scintilla8Internal10MarginViewC1Ev",
            "__ZN9Scintilla8Internal14ScintillaCocoaC2EP13ScintillaViewP14SCIContentViewP13SCIMarginView",
            "__ZN9Scintilla8Internal6Editor11DelCharBackEb",
            "__ZNK9Scintilla8Internal14SelectionRange17ContainsCharacterEl",
            "__ZNK18PositionCacheEntry9NewerThanERKS_",
            "__ZNK9Scintilla8Internal8Document12GetLineStateEl",
            "__ZThn8_NK9Scintilla8Internal8Document8CodePageEv",
            "__ZN9Scintilla8Internal8LexState11SetWordListEiPKc",
            "__ZNK9Scintilla8Internal8Document14CodePageFamilyEv",
            "__ZN9Scintilla8Internal10ScreenLineD2Ev",
            "__ZN9Scintilla8Internal6Editor19NotifyStyleToNeededEl",
            "__ZN9Scintilla8Internal10LineLayout18SetBracesHighlightENS0_5RangeEPKlcib",
            "__ZN9Scintilla8Internal11ChangeStack7AddStepEv",
            "__ZNK9Scintilla8Internal10ScreenLine19RepresentationWidthEm",
            "__ZNK9Scintilla8Internal10CellBuffer7CanUndoEv",
            "__ZN9Scintilla8Internal13UTF32FromUTF8ENSt3__117basic_string_viewIcNS1_11char_traitsIcEEEEPjm",
            "__ZN9Scintilla8Internal9EditModelD2Ev",
            "__ZN9Scintilla8Internal10CellBuffer12InsertStringElPKclRb",
            "__ZNK9Scintilla8Internal8Document19IsPositionInLineEndEl",
            "__ZN9Scintilla8Internal14ScintillaCocoa7CanUndoEv",
            "__ZNK9Scintilla8Internal11UndoHistory11GetUndoStepEv",
            "__ZNK9Scintilla8Internal10CellBuffer13EditionEndRunEl",
            "__ZNK9Scintilla8Internal8Document14IndexLineStartElNS_22LineCharacterIndexTypeE",
            "__ZN9Scintilla8Internal6Editor8CanPasteEv",
            "__ZN9Scintilla8Internal6EditorD2Ev",
            "__ZN9Scintilla8Internal12IsIdContinueEi",
            "__ZN9Scintilla8Internal8Document11InsertLinesEll",
            "__ZN9Scintilla8Internal10CellBuffer15SetLineEndTypesENS_11LineEndTypeE",
            "__ZN9Scintilla8Internal14ScintillaCocoa10TimerFiredEP7NSTimer",
            "__ZN9Scintilla8Internal14ScintillaCocoa23SelectOnlyMainSelectionEv",
            "__ZN9Scintilla8Internal8Document26AllocateLineCharacterIndexENS_22LineCharacterIndexTypeE",
            "__ZN9Scintilla8Internal6Editor26ShowCaretAtCurrentPositionEv",
            "__ZN9Scintilla8Internal19CreatePositionCacheEv",
            "__ZN9Scintilla8Internal8LexState18DescriptionOfStyleEi",
            "__ZN9Scintilla8Internal11SurfaceImpl13FillRectangleENS0_10PRectangleENS0_4FillE",
            "__ZNK9Scintilla8Internal9EditModel18CurrentSurfaceModeEv",
            "__ZNK9Scintilla8Internal12ScaledVector13SignedValueAtEm",
            "__ZN9Scintilla8Internal14ScintillaCocoa7MouseUpEP7NSEvent",
            "__ZN9Scintilla8Internal10MarginView14RefreshPixMapsEPNS0_7SurfaceERKNS0_9ViewStyleE",
            "__ZN9Scintilla8Internal18CharacterExtractedC1EPKhm",
            "__ZNK9Scintilla8Internal14SelectionRange8ContainsENS0_17SelectionPositionE",
            "__ZN9Scintilla8Internal8Document18AnnotationSetStyleEli",
            "__ZN9Scintilla8Internal11LineMarkers7AddMarkElil",
            "__ZN9Scintilla8Internal8LexState13FreeSubStylesEv",
            "__ZN9Scintilla8Internal8Document11SetStyleForElc",
            "__ZN9Scintilla8Internal17CreateRegexSearchEPNS0_12CharClassifyE",
            "__ZN9Scintilla8Internal10LineLevels10RemoveLineEl",
            "__ZN9Scintilla8Internal19DrawTextNoClipPhaseEPNS0_7SurfaceENS0_10PRectangleERKNS0_5StyleEdNSt3__117basic_string_viewIcNS7_11char_traitsIcEEEENS0_9DrawPhaseE",
            "__ZNK9Scintilla8Internal10LineLevels8GetLevelEl",
            "__ZN9Scintilla8Internal8Platform12DebugDisplayEPKc",
            "__ZN9Scintilla8Internal11SurfaceImplC2Ev",
            "__ZN9Scintilla8Internal9ViewStyleC1Em",
            "__ZN9Scintilla8Internal6Editor23ButtonMoveWithModifiersENS0_5PointEjNS_6KeyModE",
            "__ZN9Scintilla8Internal9ViewStyle24SetWrapVisualStartIndentEi",
            "__ZN9Scintilla8Internal14ScintillaCocoa15DiscardOverdrawEv",
            "__ZN9Scintilla8Internal11UndoHistory17CompletedUndoStepEv",
            "__ZN9Scintilla8Internal14ScintillaCocoa9MouseMoveEP7NSEvent",
            "__ZN9Scintilla8Internal11SurfaceImpl10LogPixelsYEv",
            "__ZNK9Scintilla8Internal9ChangeLog13DeletionCountEll",
            "__ZN9Scintilla8Internal11SurfaceImpl17MeasureWidthsUTF8EPKNS0_4FontENSt3__117basic_string_viewIcNS5_11char_traitsIcEEEEPd",
            "__ZThn8_N9Scintilla8Internal8Document14SetErrorStatusEi",
            "__ZN9Scintilla8Internal6Editor6IndentEbb",
            "__ZNK9Scintilla8Internal9Selection13IsRectangularEv",
            "__ZN9Scintilla8Internal3XPM4InitEPKPKc",
            "__ZN9Scintilla8Internal22SpecialRepresentations23SetRepresentationColourENSt3__117basic_string_viewIcNS2_11char_traitsIcEEEENS0_10ColourRGBAE",
            "__ZN9Scintilla8Internal6Editor13ReplaceTargetENS1_11ReplaceTypeENSt3__117basic_string_viewIcNS3_11char_traitsIcEEEE",
            "__ZN9Scintilla8Internal11UndoHistory14SetDetachPointEi",
            "__ZN9Scintilla8Internal6Editor14RefreshPixMapsEPNS0_7SurfaceE",
            "__ZN9Scintilla8Internal7ListBox8AllocateEv",
            "__ZN9Scintilla8Internal8Document7ReleaseEv",
            "__ZNK9Scintilla8Internal8Document23MovePositionOutsideCharEllb",
            "__ZNK9Scintilla8Internal6Editor12GetTextRangeEPcll",
            "__ZN9Scintilla8Internal5CaretC1Ev",
            "__ZN9Scintilla8Internal12CharClassifyC1Ev",
            "__ZNK9Scintilla8Internal9ViewStyle17IsBlockCaretStyleEv",
            "__ZN9Scintilla8Internal8EditView15DrawIndentGuideEPNS0_7SurfaceEdNS0_10PRectangleEbb",
            "__ZN9Scintilla8Internal9ViewStyle27CalculateMarginWidthAndMaskEv",
            "__ZN9Scintilla8Internal11SurfaceImpl11CreateImageEv",
            "__ZN9Scintilla8Internal14ScintillaCocoa15CompositionUndoEv",
            "__ZN9Scintilla8Internal10CellBuffer24ChangeLastUndoActionTextEmPKc",
            "__ZNK9Scintilla8Internal9EditModel7GetMarkEl",
            "__ZNK9Scintilla8Internal10LineLayout8SpanByteEi",
            "__ZN9Scintilla8Internal6Editor9DuplicateEb",
            "__ZN9Scintilla8Internal6Editor18RectangleFromRangeENS0_5RangeEi",
            "__ZN9Scintilla8Internal13IsXidContinueEi",
            "__ZNK9Scintilla8Internal10CellBuffer12GetCharRangeEPcll",
            "__ZN9Scintilla8Internal5StyleC2EPKc",
            "__ZNK9Scintilla8Internal14ActionDuration20ActionsInAllowedTimeEd",
            "__ZN9Scintilla8Internal11UndoHistoryD1Ev",
            "__ZN9Scintilla8Internal8RESearchC2EPNS0_12CharClassifyE",
            "__ZN9Scintilla8Internal9ViewStyleC1ERKS1_",
            "__ZNK9Scintilla8Internal8EditView12LinesOverlapEv",
            "__ZN9Scintilla8Internal11UndoHistoryD2Ev",
            "__ZNK9Scintilla8Internal8Document25ClampPositionIntoDocumentEl",
            "__ZNK9Scintilla8Internal8Document9LineRangeEl",
            "__ZN9Scintilla8Internal6Editor5PaintEPNS0_7SurfaceENS0_10PRectangleE",
            "__ZN9Scintilla8Internal15UniqueStringSet4SaveEPKc",
            "__ZN9Scintilla8Internal14ScintillaCocoa6ResizeEv",
            "__ZN9Scintilla8Internal6Editor15DiscardOverdrawEv",
            "__ZN9Scintilla8Internal6Editor13LineTransposeEv",
            "__ZNK9Scintilla8Internal9Indicator4DrawEPNS0_7SurfaceERKNS0_10PRectangleES6_S6_NS1_5StateEi",
            "__ZN9Scintilla8Internal6KeyMapC1Ev",
            "__ZN9Scintilla8Internal7ListBoxD0Ev",
            "__ZNK9Scintilla8Internal10ColourRGBA9MixedWithES1_d",
            "__ZNK9Scintilla8Internal17FontSpecificationltERKS1_",
            "__ZNK9Scintilla8Internal8Document10LinesTotalEv",
            "__ZN9Scintilla8Internal8Document18AnnotationClearAllEv",
            "__ZNK9Scintilla8Internal8Document14UndoActionTextEi",
            "__ZN9Scintilla8Internal11SurfaceImpl13SetFillStrokeENS0_10FillStrokeE",
            "__ZN18PositionCacheEntry5ClearEv",
            "__ZN9Scintilla8Internal10CellBuffer16ChangeHistorySetEb",
            "__ZN9Scintilla8Internal22SpecialRepresentations27SetRepresentationAppearanceENSt3__117basic_string_viewIcNS2_11char_traitsIcEEEENS_24RepresentationAppearanceE",
            "__ZN9Scintilla8Internal12IntersectionENS0_10PRectangleENS0_8IntervalE",
            "__ZNK9Scintilla8Internal6Editor23PositionAfterMaxStylingElb",
            "__ZN9Scintilla8Internal14ScintillaCocoa10AddToPopUpEPKcib",
            "__ZN9Scintilla8Internal11SurfaceImplD0Ev",
            "__ZThn8_N9Scintilla8Internal8Document19DecorationFillRangeElil",
            "__ZNK9Scintilla8Internal10CellBuffer11GetRedoStepEv",
            "__ZNK9Scintilla8Internal8Document23IsDBCSTrailByteNoExceptEc",
            "__ZNK9Scintilla8Internal14ScintillaCocoa22GetVisibleOriginInMainEv",
            "__ZN9Scintilla8Internal4MenuC2Ev",
            "__ZNK9Scintilla8Internal3XPM7PixelAtEii",
            "__ZNK9Scintilla8Internal6Editor8WrappingEv",
            "__ZN9Scintilla8Internal14SelectionRange20MinimizeVirtualSpaceEv",
            "__ZN9Scintilla8Internal10ScreenLineD1Ev",
            "__ZN9Scintilla8Internal11UTF16LengthENSt3__117basic_string_viewIcNS1_11char_traitsIcEEEE",
            "__ZNK9Scintilla8Internal6Editor12MaxScrollPosEv",
            "__ZN9Scintilla8Internal10CellBuffer16BasicDeleteCharsEll",
            "__ZN9Scintilla8Internal8Document21SetDefaultCharClassesEb",
            "__ZNK9Scintilla8Internal8Document16MarginStyledTextEl",
            "__ZN9Scintilla8Internal6Editor20LocationFromPositionENS0_17SelectionPositionENS0_8PointEndE",
            "__ZN9Scintilla8Internal11ChangeStack7PopSpanEi",
            "__ZN9Scintilla8Internal6Editor15SupportsFeatureENS_8SupportsE",
            "__ZN9Scintilla8Internal8Document17AnnotationSetTextElPKc",
            "__ZNK9Scintilla8Internal11UndoHistory9SavePointEv",
            "__ZN9Scintilla8Internal8Document16SetUndoTentativeEi",
            "__ZNK9Scintilla8Internal8Document14LineFromHandleEi",
            "__ZN9Scintilla8Internal6Editor18CopySelectionRangeEPNS0_13SelectionTextEb",
            "__ZN9Scintilla8Internal10CellBuffer10InsertLineEllb",
            "__ZN9Scintilla8Internal14ScintillaCocoa4CopyEv",
            "__ZNK9Scintilla8Internal10LineLayout12EndLineStyleEv",
            "__ZNK9Scintilla8Internal14ActionDuration8DurationEv",
            "__ZN9Scintilla8Internal6Editor16SetSelectionModeEmb",
            "__ZN9Scintilla8Internal10LineLayout8WrapLineEPKNS0_8DocumentElNS_4WrapEd",
            "__ZN9Scintilla8Internal17PixelAlignOutsideERKNS0_10PRectangleEi",
            "__ZN9Scintilla8Internal9ViewStyle24ReleaseAllExtendedStylesEv",
            "__ZNK18PositionCacheEntry8RetrieveEjbNSt3__117basic_string_viewIcNS0_11char_traitsIcEEEEPd",
            "__ZN9Scintilla8Internal10LineLevels11InsertLinesEll",
            "__ZN9Scintilla8Internal13ScintillaBase7WndProcENS_7MessageEml",
            "__ZThn24_N9Scintilla8Internal8Document6AddRefEv",
            "__ZNK9Scintilla8Internal6Window11GetPositionEv",
            "__ZN9Scintilla8Internal11SurfaceImpl19DrawTextTransparentENS0_10PRectangleEPKNS0_4FontEdNSt3__117basic_string_viewIcNS6_11char_traitsIcEEEENS0_10ColourRGBAE",
            "__ZN9Scintilla8Internal4Menu11CreatePopUpEv",
            "__ZN9Scintilla8Internal8RESearch7ExecuteERKNS0_16CharacterIndexerEll",
            "__ZN9Scintilla8Internal11UndoHistory4TextEi",
            "__ZNK9Scintilla8Internal9ViewStyle16ProtectionActiveEv",
            "__ZN9Scintilla8Internal9EditModelC2Ev",
            "__ZN9Scintilla8Internal6Editor13DropSelectionEm",
            "__ZN13PositionCache5ClearEv",
            "__ZN9Scintilla8Internal14ScintillaCocoa15DraggingEnteredEPU25objcproto14NSDraggingInfo11objc_object",
            "__ZNK9Scintilla8Internal8Document10CountUTF16Ell",
            "__ZN9Scintilla8Internal10LineLevels4InitEv",
            "__ZN9Scintilla8Internal6Editor14PaintSelMarginEPNS0_7SurfaceERKNS0_10PRectangleE",
            "__ZN9Scintilla8Internal6Editor20SetAnnotationVisibleENS_17AnnotationVisibleE",
            "__ZThn296_N9Scintilla8Internal6Editor19NotifyErrorOccurredEPNS0_8DocumentEPvNS_6StatusE",
            "__ZN9Scintilla8Internal6Editor22SetHoverIndicatorPointENS0_5PointE",
            "__ZN9Scintilla8Internal14ScintillaCocoa19VisibleLineForIndexEl",
            "__ZNK9Scintilla8Internal8Document19GetRelativePositionEll",
            "__ZN9Scintilla8Internal9ViewStyle22AllocateExtendedStylesEi",
            "__ZN9Scintilla8Internal9Selection11RectangularEv",
            "__ZNK9Scintilla8Internal8LexState13GetIdentifierEv",
            "__ZNK9Scintilla8Internal7CallTip14IsTabCharacterEc",
            "__ZN9Scintilla8Internal6Editor16StartIdleStylingEb",
            "__ZN9Scintilla8Internal13ScintillaBaseD2Ev",
            "__ZNK9Scintilla8Internal11LineMarkers14NumberFromLineEli",
            "__ZN9Scintilla8Internal8Document14SetErrorStatusEi",
            "__ZN9Scintilla8Internal3XPMC2EPKc",
            "__ZThn296_N9Scintilla8Internal14ScintillaCocoaD0Ev",
            "__ZN9Scintilla8Internal11SurfaceImpl7StadiumENS0_10PRectangleENS0_10FillStrokeENS0_7Surface4EndsE",
            "__ZN9Scintilla8Internal6Editor11BytesResultElNSt3__117basic_string_viewIcNS2_11char_traitsIcEEEE",
            "__ZN9Scintilla8Internal6Editor6DropAtENS0_17SelectionPositionEPKcmbb",
            "__ZN9Scintilla8Internal8Platform19ShowAssertionPopUpsEb",
            "__ZN9Scintilla8Internal6Editor15InvalidateRangeEll",
            "__ZNK9Scintilla8Internal10CellBuffer16IsCollectingUndoEv",
            "__ZThn8_NK9Scintilla8Internal8Document9LineStartEl",
            "__ZN9Scintilla8Internal14ScintillaCocoa10ScrollTextEl",
            "__ZN9Scintilla8Internal9ViewStyle16SetElementColourENS_7ElementENS0_10ColourRGBAE",
            "__ZN9Scintilla8Internal11SurfaceImpl18CopyImageRectangleEPS1_NS0_10PRectangleES3_",
            "__ZN9Scintilla8Internal14ScintillaCocoa22RegisterNotifyCallbackElPFvljmmE",
            "__ZN9Scintilla8Internal6Editor20NotifyIndicatorClickEblNS_6KeyModE",
            "__ZN9Scintilla8Internal6WindowD1Ev",
            "__ZN9Scintilla8Internal13ChangeHistory20EditionCreateHistoryEll",
            "__ZNK9Scintilla8Internal10CellBuffer14UndoActionTypeEi",
            "__ZN9Scintilla8Internal14ScintillaCocoa19RangeForVisibleLineEl",
            "__ZN9Scintilla8Internal6Editor20PositionFromLocationENS0_5PointEbb",
            "__ZN9Scintilla8Internal11UndoActionsC1Ev",
            "__ZN9Scintilla8Internal8BidiData6ResizeEm",
            "__ZN9Scintilla8Internal8Document25ReleaseLineCharacterIndexENS_22LineCharacterIndexTypeE",
            "__ZN9Scintilla8Internal11UndoActionsC2Ev",
            "__ZN9Scintilla8Internal6Editor16PasteRectangularENS0_17SelectionPositionEPKcl",
            "__ZNK9Scintilla8Internal10CellBuffer18LineCharacterIndexEv",
            "__ZNK9Scintilla8Internal6Editor23MovePositionOutsideCharEllb",
            "__ZN9Scintilla8Internal8RESearch13ChSetWithCaseEhb",
            "__ZN9Scintilla8Internal14ScintillaCocoa12HasSelectionEv",
            "__Z18PRectangleToNSRectRKN9Scintilla8Internal10PRectangleE",
            "__ZN9Scintilla8Internal15PrintParametersC2Ev",
            "__ZN9Scintilla8Internal8EditView25DrawIndentGuidesOverEmptyEPNS0_7SurfaceERKNS0_9EditModelERKNS0_9ViewStyleEPKNS0_10LineLayoutEliNS0_10PRectangleEil",
            "__ZThn296_N9Scintilla8Internal6Editor13NotifyDeletedEPNS0_8DocumentEPv",
            "__ZN9Scintilla8Internal11SurfaceImpl7ReleaseEv",
            "__ZN9Scintilla8Internal10MarginView12DropGraphicsEv",
            "__ZNK9Scintilla8Internal11UndoHistory20AfterOrAtDetachPointEv",
            "__ZThn16_N9Scintilla8Internal8Document7ReleaseEv",
            "__ZN9Scintilla8Internal11SurfaceImpl13WidthTextUTF8EPKNS0_4FontENSt3__117basic_string_viewIcNS5_11char_traitsIcEEEE",
            "__ZN9Scintilla8Internal6Editor21XYScrollToMakeVisibleERKNS0_14SelectionRangeENS0_15XYScrollOptionsENS0_13CaretPoliciesE",
            "__ZN9Scintilla8Internal6Editor9IdleStyleEv",
            "__ZNK9Scintilla8Internal11UndoHistory23PreviousBeforeSavePointEv",
            "__ZNK9Scintilla8Internal8Document21LineFromPositionIndexElNS_22LineCharacterIndexTypeE",
            "__ZN9Scintilla8Internal11CaseConvertEiNS0_14CaseConversionE",
            "__ZN9Scintilla8Internal14ScintillaCocoa15CopyToClipboardERKNS0_13SelectionTextE",
            "__ZN9Scintilla8Internal6Editor10KeyDefaultENS_4KeysENS_6KeyModE",
            "__ZNK9Scintilla8Internal10CellBuffer11GapPositionEv",
            "__ZN9Scintilla8Internal5IdlerC2Ev",
            "__ZN9Scintilla8Internal9ViewStyle17SetWrapIndentModeENS_14WrapIndentModeE",
            "__ZN9Scintilla8Internal8Document4UndoEv",
            "__ZN9Scintilla8Internal14DrawWrapMarkerEPNS0_7SurfaceENS0_10PRectangleEbNS0_10ColourRGBAE",
            "__ZN9Scintilla8Internal10CellBuffer17BasicInsertStringElPKcl",
            "__ZN9Scintilla8Internal22SpecialRepresentations25SetDefaultRepresentationsEi",
            "__ZNK9Scintilla8Internal8Document15LineEndPositionEl",
            "__ZN9Scintilla8Internal6Editor14NotifyModifiedEPNS0_8DocumentENS0_15DocModificationEPv",
            "__ZN9Scintilla8Internal8Document13RemoveWatcherEPNS0_10DocWatcherEPv",
            "__ZNK9Scintilla8Internal15MarkerHandleSet21GetMarkerHandleNumberEi",
            "__ZN9Scintilla8Internal6Editor11FoldChangedElNS_9FoldLevelES2_",
            "__ZNK9Scintilla8Internal8Document13GetFoldParentEl",
            "__ZNK9Scintilla8Internal8Document15CharacterBeforeEl",
            "__ZN9Scintilla8Internal10ScrapStack4PushEPKcm",
            "__ZThn8_NK9Scintilla8Internal8Document14IsDBCSLeadByteEc",
            "__ZNK9Scintilla8Internal9Selection6LimitsEv",
            "__ZN9Scintilla8Internal11MarginStyleC1ENS_10MarginTypeEii",
            "__ZNK9Scintilla8Internal14ScintillaCocoa10ClientSizeEv",
            "__ZN9Scintilla8Internal8LexState11PrivateCallEiPv",
            "__ZNK9Scintilla8Internal9ViewStyle10BackgroundEibb",
            "__ZNK9Scintilla8Internal11UndoHistory14TentativeStepsEv",
            "__ZN9Scintilla8Internal7Surface8AllocateENS_10TechnologyE",
            "__ZN9Scintilla8Internal8EditView16SetLayoutThreadsEj",
            "__ZN9Scintilla8Internal6Editor14NotifyDwellingENS0_5PointEb",
            "__ZNK9Scintilla8Internal10ColourRGBA9MixedWithES1_",
            "__ZN9Scintilla8Internal9RGBAImageC1EiifPKh",
            "__ZThn8_N9Scintilla8Internal8Document12StartStylingEl",
            "__ZN9Scintilla8Internal14ScintillaCocoa13FrameForRangeE8_NSRange",
            "__ZN9Scintilla8Internal14ScintillaCocoa14ClaimSelectionEv",
            "__ZN9Scintilla8Internal11SurfaceImpl14DrawTextNoClipENS0_10PRectangleEPKNS0_4FontEdNSt3__117basic_string_viewIcNS6_11char_traitsIcEEEENS0_10ColourRGBAESB_",
            "__ZN9Scintilla8Internal11SurfaceImpl14PixelDivisionsEv",
            "__ZNK9Scintilla8Internal6KeyMap9GetKeyMapEv",
            "__ZN9Scintilla8Internal8EditView13ClearTabstopsEl",
            "__ZN9Scintilla8Internal13ScintillaBase16DocumentLexStateEv",
            "__ZNK9Scintilla8Internal8Document13HasCaseFolderEv",
            "__ZThn296_N9Scintilla8Internal6EditorD1Ev",
            "__ZNK9Scintilla8Internal10CellBuffer17EditionNextDeleteEl",
            "__ZN9Scintilla8Internal9Selection13DropSelectionEm",
            "__ZN9Scintilla8Internal12LexInterfaceD1Ev",
            "__ZN9Scintilla8Internal9Selection19TrimOtherSelectionsEmNS0_14SelectionRangeE",
            "__ZN9Scintilla8Internal8Document21EOLAnnotationSetStyleEli",
            "__ZN9Scintilla8Internal14ScintillaCocoaC1EP13ScintillaViewP14SCIContentViewP13SCIMarginView",
            "__ZN9Scintilla8Internal6Editor10ScrollTextEl",
            "__ZN9Scintilla8Internal10LineMarkeraSERKS1_",
            "__ZN9Scintilla8Internal6Editor12NeedWrappingEll",
            "__ZN9Scintilla8Internal14PixelAlignCeilEdi",
            "__ZN9Scintilla8Internal10UTF8LengthENSt3__117basic_string_viewIwNS1_11char_traitsIwEEEE",
            "__ZNK9Scintilla8Internal8Document21LineEndTypesSupportedEv",
            "__ZN9Scintilla8Internal8LexState13PropertyNamesEv",
            "__ZN9Scintilla8Internal7ListBoxD2Ev",
            "__ZN9Scintilla8Internal11UndoHistory10SetCurrentEil",
            "__ZN9Scintilla8Internal10CellBuffer26RecalculateIndexLineStartsEll",
            "__ZN9Scintilla8Internal10CellBuffer13SetUndoDetachEi",
            "__ZNK9Scintilla8Internal14SelectionRange9IntersectENS0_16SelectionSegmentE",
            "__ZNK9Scintilla8Internal10ScreenLine8TabWidthEv",
            "__ZN9Scintilla8Internal14ActionDuration9AddSampleEmd",
            "__ZN9Scintilla8Internal11ChangeStack7PopStepEv",
            "__ZN9Scintilla8Internal11SurfaceImpl13DrawRGBAImageENS0_10PRectangleEiiPKh",
            "__ZN9Scintilla8Internal15MarkerHandleSet12InsertHandleEii",
            "__ZN9Scintilla8Internal17CaseFolderUnicodeC1Ev",
            "__ZN13PositionCacheC2Ev",
            "__ZNK9Scintilla8Internal9Selection10MainAnchorEv",
            "__ZN9Scintilla8Internal6Editor16HomeWrapPositionEl",
            "__ZN9Scintilla8Internal6Editor18SPositionFromLineXEli",
            "__ZN9Scintilla8Internal16CGContextCurrentEv",
            "__ZNK9Scintilla8Internal12ScaledVector7ValueAtEm",
            "__ZN9Scintilla8Internal10CellBuffer10SetStyleAtElc",
            "__ZNK9Scintilla8Internal10CellBuffer11GetUndoStepEv",
            "__ZN9Scintilla8Internal8Document14NotifyModifiedENS0_15DocModificationE",
            "__ZNK9Scintilla8Internal8Document14CharacterAfterEl",
            "__ZN9Scintilla8Internal14ScintillaCocoa9MouseDownEP7NSEvent",
            "__ZN9Scintilla8Internal12UTF8ClassifyEPKhm",
            "__ZN9Scintilla8Internal8EditViewD2Ev",
            "__ZN9Scintilla8Internal13ScintillaBase18AutoCompleteInsertEllNSt3__117basic_string_viewIcNS2_11char_traitsIcEEEE",
            "__ZN9Scintilla8Internal6Editor13NotifyPaintedEv",
            "__ZN9Scintilla8Internal8Document12SetSavePointEv",
            "__ZN9Scintilla8Internal8EditView20LocationFromPositionEPNS0_7SurfaceERKNS0_9EditModelENS0_17SelectionPositionElRKNS0_9ViewStyleENS0_8PointEndENS0_10PRectangleE",
            "__ZN9Scintilla8Internal15LineLayoutCache8SetLevelENS_9LineCacheE",
            "__ZN9Scintilla8Internal6Editor14HorizontalMoveENS_7MessageE",
            "__ZN9Scintilla8Internal8Document14MarginSetStyleEli",
            "__ZN9Scintilla8Internal8EditView19LinesAddedOrRemovedEll",
            "__ZN9Scintilla8Internal9ViewStyle12SetWrapStateENS_4WrapE",
            "__ZNK9Scintilla8Internal10CellBuffer29MaintainingLineCharacterIndexEv",
            "__ZN9Scintilla8Internal8EditView7DrawEOLEPNS0_7SurfaceERKNS0_9EditModelERKNS0_9ViewStyleEPKNS0_10LineLayoutEliNS0_10PRectangleEildNSt3__18optionalINS0_10ColourRGBAEEE",
            "__ZN9Scintilla8Internal6Editor20ContainerNeedsUpdateENS_6UpdateE",
            "__ZN9Scintilla8Internal8Document21EOLAnnotationClearAllEv",
            "__ZN9Scintilla8Internal8LexState11NameOfStyleEi",
            "__ZN9Scintilla8Internal14ScintillaCocoa14DirectFunctionEljml",
            "__ZN9Scintilla8Internal6Editor6RedrawEv",
            "__ZN9Scintilla8Internal12AutoCompleteC1Ev",
            "__ZN9Scintilla8Internal6Editor18SetRepresentationsEv",
            "__ZN9Scintilla8Internal5StyleC1EPKc",
            "__ZN9Scintilla8Internal10LineMarker12SetRGBAImageENS0_5PointEfPKh",
            "__ZN9Scintilla8Internal13ScintillaBase18AutoCompleteCancelEv",
            "__ZNK9Scintilla8Internal13ChangeHistory9EditionAtEl",
            "__ZN9Scintilla8Internal13ChangeHistory5CheckEv",
            "__ZNK9Scintilla8Internal11SurfaceImpl11UnicodeModeEv",
            "__ZN9Scintilla8Internal11BreakFinderD2Ev",
            "__ZN9Scintilla8Internal6Editor17MultipleSelectAddENS1_9AddNumberE",
            "__ZN9Scintilla8Internal6Editor17NotifyMacroRecordENS_7MessageEml",
            "__ZN9Scintilla8Internal6Editor10MovedCaretENS0_17SelectionPositionES2_bNS0_13CaretPoliciesE",
            "__ZN9Scintilla8Internal6Editor9StartDragEv",
            "__ZNK9Scintilla8Internal6Editor15GetMarginCursorENS0_5PointE",
            "__ZN9Scintilla8Internal7CallTip12SetHighlightEmm",
            "__ZN9Scintilla8Internal13ScintillaBase15InsertCharacterENSt3__117basic_string_viewIcNS2_11char_traitsIcEEEENS_15CharacterSourceE",
            "__ZN9Scintilla8Internal6Editor26NotifyHotSpotDoubleClickedElNS_6KeyModE",
            "__ZN9Scintilla8Internal11SurfaceImpl14PenColourAlphaENS0_10ColourRGBAE",
            "__ZN9Scintilla8Internal8Document19AnnotationSetStylesElPKh",
            "__ZN9Scintilla8Internal8LexState14SetIdentifiersEiPKc",
            "__ZN9Scintilla8Internal9ChangeLog6InsertElli",
            "__ZNK9Scintilla8Internal12CharClassify15GetCharsOfClassENS0_14CharacterClassEPh",
            "__ZNK9Scintilla8Internal11UndoHistory9StartRedoEv",
            "__ZN12BuiltinRegex8FindTextEPN9Scintilla8Internal8DocumentEllPKcbbbNS0_10FindOptionEPl",
            "__ZN9Scintilla8Internal6Editor19InvalidateSelectionENS0_14SelectionRangeEb",
            "__ZN9Scintilla8Internal13ScintillaBase8FinaliseEv",
            "__ZN9Scintilla8Internal8LexState7PropSetEPKcS3_",
            "__ZN9Scintilla8Internal6Editor19StartEndDisplayLineElb",
            "__ZNK9Scintilla8Internal12AutoComplete12GetSeparatorEv",
            "__ZN9Scintilla8Internal14ScintillaCocoa15FineTickerStartENS0_6Editor10TickReasonEii",
            "__ZN9Scintilla8Internal6Editor8DwellEndEb",
            "__ZN9Scintilla8Internal11SurfaceImpl19DrawTextClippedUTF8ENS0_10PRectangleEPKNS0_4FontEdNSt3__117basic_string_viewIcNS6_11char_traitsIcEEEENS0_10ColourRGBAESB_",
            "__ZN9Scintilla8Internal6Editor18ChangeMouseCaptureEb",
            "__ZN9Scintilla8Internal6Editor14MovePositionToENS0_17SelectionPositionENS0_9Selection8SelTypesEb",
            "__ZNK9Scintilla8Internal9EditModel16BidirectionalR2LEv",
            "__ZN9Scintilla8Internal9ChangeLog13CollapseRangeEll",
            "__ZNK9Scintilla8Internal8Document7GetMarkElb",
            "__ZN9Scintilla8Internal14ScintillaCocoa20PerformDragOperationEPU25objcproto14NSDraggingInfo11objc_object",
            "__ZN9Scintilla8Internal22CompareCaseInsensitiveEPKcS2_",
            "__ZN9Scintilla8Internal11SurfaceImpl8LineDrawENS0_5PointES2_NS0_6StrokeE",
            "__ZN9Scintilla8Internal8Document16ChangeLexerStateEll",
            "__ZN9Scintilla8Internal5Style4CopyENSt3__110shared_ptrINS0_4FontEEERKNS0_16FontMeasurementsE",
            "__ZNK9Scintilla8Internal8Document29CharacterCategoryOptimizationEv",
            "__ZN9Scintilla8Internal6Editor20ThinRectangularRangeEv",
            "__ZN9Scintilla8Internal14LineAnnotation8SetStyleEli",
            "__ZNK9Scintilla8Internal8Document19IsLineStartPositionEl",
            "__ZN9Scintilla8Internal12AutoComplete10SetTypesepEc",
            "__ZNK9Scintilla8Internal10LineMarker15DrawFoldingMarkEPNS0_7SurfaceERKNS0_10PRectangleENS1_8FoldPartE",
            "__ZN9Scintilla8Internal8Document15ConvertLineEndsENS_9EndOfLineE",
            "__Z24EncodingFromCharacterSetbN9Scintilla12CharacterSetE",
            "__ZN9Scintilla8Internal11SurfaceImpl10FillColourENS0_10ColourRGBAE",
            "__ZThn296_N9Scintilla8Internal6Editor19NotifyModifyAttemptEPNS0_8DocumentEPv",
            "__ZThn296_N9Scintilla8Internal6Editor14NotifyModifiedEPNS0_8DocumentENS0_15DocModificationEPv",
            "__ZN9Scintilla8Internal10CellBuffer15PerformRedoStepEv",
            "__ZNK9Scintilla8Internal8Document10InGoodUTF8ElRlS2_",
            "__ZNK9Scintilla8Internal9ViewStyle24SelectionBackgroundDrawnEv",
            "__ZN9Scintilla8Internal6Editor24InvalidateWholeSelectionEv",
            "__ZN9Scintilla8Internal8EditView11FormatRangeEbNS_18CharacterRangeFullENS_9RectangleEPNS0_7SurfaceES5_RKNS0_9EditModelERKNS0_9ViewStyleE",
            "__ZN9Scintilla8Internal6Editor9WrapLinesENS1_9WrapScopeE",
            "__ZN9Scintilla8Internal13ScintillaBase28AutoCompleteCharacterDeletedEv",
            "__ZN9Scintilla8Internal13UTF8FromUTF16ENSt3__117basic_string_viewIwNS1_11char_traitsIwEEEEPcm",
            "__ZN9Scintilla8Internal12LexInterface9ColouriseEll",
            "__ZN9Scintilla8Internal11UndoHistory24ChangeLastUndoActionTextEmPKc",
            "__ZN9Scintilla8Internal10LineLevels12ExpandLevelsEl",
            "__ZNK9Scintilla8Internal9ViewStyle24DrawCaretInsideSelectionEbb",
            "__ZN9Scintilla8Internal9ViewStyleD2Ev",
            "__ZN9Scintilla8Internal8EditView19DrawFoldDisplayTextEPNS0_7SurfaceERKNS0_9EditModelERKNS0_9ViewStyleEPKNS0_10LineLayoutEliNS0_10PRectangleEidNS0_9DrawPhaseE",
            "__ZN9Scintilla8Internal14ScintillaCocoa10DefWndProcENS_7MessageEml",
            "__ZN9Scintilla8Internal9ViewStyle11ClearStylesEv",
            "__ZN9Scintilla8Internal6Editor19TrimAndSetSelectionEll",
            "__ZNK9Scintilla8Internal6Editor23MovePositionOutsideCharENS0_17SelectionPositionElb",
            "__ZNK9Scintilla8Internal10CellBuffer9LineStartEl",
            "__ZN9Scintilla8Internal12AutoComplete14SetFillUpCharsEPKc",
            "__ZN9Scintilla8Internal3XPM4DrawEPNS0_7SurfaceERKNS0_10PRectangleE",
            "__ZN9Scintilla8Internal12AutoComplete6CancelEv",
            "__ZThn8_N9Scintilla8Internal8Document29DecorationSetCurrentIndicatorEi",
            "__ZNK9Scintilla8Internal11UndoHistory5DeltaEi",
            "__ZN9Scintilla8Internal9ViewStyle20FindMaxAscentDescentEv",
            "__ZN9Scintilla8Internal9ViewStyle17SetFontLocaleNameEPKc",
            "__ZN9Scintilla8Internal15MarkerHandleSet11CombineWithEPS1_",
            "__ZN9Scintilla8Internal6Editor11InsertPasteEPKcl",
            "__ZNK9Scintilla8Internal10LineLayout10LineNumberEv",
            "__ZThn8_NK9Scintilla8Internal8Document16LineFromPositionEl",
            "__ZNK9Scintilla8Internal10LineMarker4DrawEPNS0_7SurfaceERKNS0_10PRectangleEPKNS0_4FontENS1_8FoldPartENS_10MarginTypeE",
            "__ZN9Scintilla8Internal6Editor16PositionUpOrDownENS0_17SelectionPositionEii",
            "__ZN9Scintilla8Internal6Editor11BytesResultElPKhm",
            "__ZN9Scintilla8Internal6Editor16RangeDisplayLineEl",
            "__ZN12BuiltinRegex20SubstituteByPositionEPN9Scintilla8Internal8DocumentEPKcPl",
            "__ZN9Scintilla8Internal14LineAnnotation11InsertLinesEll",
            "__ZThn8_NK9Scintilla8Internal8Document19GetRelativePositionEll",
            "__ZNK9Scintilla8Internal10CellBuffer11UndoActionsEv",
            "__ZN9Scintilla8Internal13ScintillaBase21AutoCompleteSelectionEv",
            "__ZN9Scintilla8Internal12UTF8ClassifyEPKcm",
            "__ZN9Scintilla8Internal3XPMC1EPKc",
            "__ZNK9Scintilla8Internal11UndoHistory8PositionEi",
            "__ZN9Scintilla8Internal11SurfaceImpl6HeightEPKNS0_4FontE",
            "__ZN9Scintilla8Internal15ValidStyledTextERKNS0_9ViewStyleEmRKNS0_10StyledTextE",
            "__ZN9Scintilla8Internal11UndoHistory12SetSavePointEv",
            "__ZN9Scintilla8Internal7ListBoxD1Ev",
            "__ZN9Scintilla8Internal9ChangeLog11InsertSpaceEll",
            "__ZNK9Scintilla8Internal8Document16IsDBCSDualByteAtEl",
            "__ZThn8_N9Scintilla8Internal8Document16ChangeLexerStateEll",
            "__ZNK9Scintilla8Internal3XPM7FillRunEPNS0_7SurfaceEiiii",
            "__Z18NSRectToPRectangleRK6CGRect",
            "__ZN9Scintilla8Internal12RGBAImageSet5ClearEv",
            "__ZNK9Scintilla8Internal9ViewStyle18SelectionTextDrawnEv",
            "__ZN9Scintilla8Internal8LexState14SubStylesStartEi",
            "__ZN9Scintilla8Internal6Editor20CopyRangeToClipboardEll",
            "__ZN9Scintilla8Internal14ScintillaCocoa5PasteEv",
            "__ZNK9Scintilla8Internal12AutoComplete10IsStopCharEc",
            "__ZN9Scintilla8Internal14ScintillaCocoa13QueueIdleWorkENS0_9WorkItemsEl",
            "__ZN9Scintilla8Internal15CaseFolderTable13StandardASCIIEv",
            "__ZN9Scintilla8Internal14LineAnnotation9SetStylesElPKh",
            "__ZN9Scintilla8Internal6Editor14CaretSetPeriodEi",
            "__ZN9Scintilla8Internal7CallTip13PaintContentsEPNS0_7SurfaceEb",
            "__ZN9Scintilla8Internal6Editor10NotifyZoomEv",
            "__ZN9Scintilla8Internal12ScaledVector5ClearEv",
            "__ZN9Scintilla8Internal11UndoHistory12AppendActionENS0_10ActionTypeElPKclRbb",
            "__ZNK9Scintilla8Internal8Document11UndoActionsEv",
            "__ZN9Scintilla8Internal11SurfaceImpl14AlphaRectangleENS0_10PRectangleEdNS0_10FillStrokeE",
            "__ZN9Scintilla8Internal10ScreenLineC2EPKNS0_10LineLayoutEiRKNS0_9ViewStyleEdi",
            "__ZN9Scintilla8Internal14ScintillaCocoa9StartDragEv",
            "__ZN9Scintilla8Internal13ScintillaBase7CommandEi",
            "__ZNK9Scintilla8Internal8Document19SciLineFromPositionEl",
            "__ZN9Scintilla8Internal14ScintillaCocoaD1Ev",
            "__ZN9Scintilla8Internal8EditView15SetTwoPhaseDrawEb",
            "__ZN9Scintilla8Internal8Document28StyleToAdjustingLineDurationEl",
            "__ZN9Scintilla8Internal8Document11DelCharBackEl",
            "__ZNK9Scintilla8Internal11UndoActions7AtStartEm",
            "__ZN9Scintilla8Internal6Editor19NotifyErrorOccurredEPNS0_8DocumentEPvNS_6StatusE",
            "__ZN9Scintilla8Internal6Editor16FilterSelectionsEv",
            "__ZN9Scintilla8Internal11UndoHistory18PushUndoActionTypeEil",
            "__ZN18PositionCacheEntryC1Ev",
            "__ZN9Scintilla8Internal6Editor22NotifyMarginRightClickENS0_5PointENS_6KeyModE",
            "__ZN9Scintilla8Internal6Editor17MoveSelectedLinesEi",
            "__ZN9Scintilla8Internal14ScintillaCocoa20DirectStatusFunctionEljmlPi",
            "__ZN9Scintilla8Internal6Editor11CancelModesEv",
            "__ZN9Scintilla8Internal16DecorationCreateEbi",
            "__ZN9Scintilla8Internal9EditModelD1Ev",
            "__ZNK9Scintilla8Internal9EditModel18LineEndInSelectionEl",
            "__ZN9Scintilla8Internal15MarkerHandleSetC2Ev",
            "__ZN9Scintilla8Internal12RGBAImageSet3GetEi",
            "__ZN9Scintilla8Internal9RGBAImageC2ERKNS0_3XPME",
            "__ZNK9Scintilla8Internal9RGBAImage15GetScaledHeightEv",
            "__ZN9Scintilla8Internal17SelectionPosition19MoveForInsertDeleteEbllb",
            "__ZN9Scintilla8Internal14ScintillaCocoa14WindowWillMoveEv",
            "__ZN9Scintilla8Internal6Editor4UndoEv",
            "__ZNK9Scintilla8Internal10ScrapStack11CurrentTextEv",
            "__ZN9Scintilla8Internal11SurfaceImpl13FillRectangleENS0_10PRectangleERNS0_7SurfaceE",
            "__ZN9Scintilla8Internal16HorizontalBoundsENS0_10PRectangleE",
            "__ZN9Scintilla8Internal14ScintillaCocoa16SetScrollingSizeEv",
            "__ZN9Scintilla8Internal12LexInterface21LineEndTypesSupportedEv",
            "__ZN9Scintilla8Internal8Platform11DefaultFontEv",
            "__ZN9Scintilla8Internal9ViewStyle4FindERKNS0_17FontSpecificationE",
            "__ZN9Scintilla8Internal8Document15ChangeInsertionEPKcl",
            "__ZNK9Scintilla8Internal9EditModel18GetFoldDisplayTextEl",
            "__ZN9Scintilla8Internal8Document7DelCharEl",
            "__ZN9Scintilla8Internal9Selection10RotateMainEv",
            "__ZN9Scintilla8Internal8Document13MarginSetTextElPKc",
            "__ZN9Scintilla8Internal14ScintillaCocoa20SetVerticalScrollPosEv",
            "__ZNK9Scintilla8Internal9Selection9MainCaretEv",
            "__ZN9Scintilla8Internal11UndoHistory14TentativeStartEv",
            "__ZN9Scintilla8Internal13ScintillaBaseD0Ev",
            "__ZN9Scintilla8Internal14ScintillaCocoa19SetFocusActiveStateEv",
            "__ZN9Scintilla8Internal10ScrapStack10SetCurrentEm",
            "__ZN9Scintilla8Internal6Editor14PointIsHotspotENS0_5PointE",
            "__ZThn24_NK9Scintilla8Internal8Document9DEVersionEv",
            "__ZN9Scintilla8Internal8RESearch7CompileEPKclbb",
            "__ZN9Scintilla8Internal10ScrapStack5ClearEv",
            "__ZN9Scintilla8Internal11ChangeStack5ClearEv",
            "__ZN9Scintilla8Internal14ScintillaCocoa7CTPaintEPv6CGRect",
            "__ZN9Scintilla8Internal11SurfaceImpl28AllocatePixMapImplementationEii",
            "__ZN9Scintilla8Internal6Editor8ClearAllEv",
            "__ZNK9Scintilla8Internal6Editor8CodePageEv",
            "__ZN9Scintilla8Internal8RESearch5ChSetEh",
            "__ZNK9Scintilla8Internal10CellBuffer7IsLargeEv",
            "__ZN18PositionCacheEntryC2ERKS_",
            "__ZNK9Scintilla8Internal6Editor15HasMarginWindowEv",
            "__ZN9Scintilla8Internal14ScintillaCocoa25GetClientDrawingRectangleEv",
            "__ZN9Scintilla8Internal8Platform15DoubleClickTimeEv",
            "__ZNK9Scintilla8Internal10CellBuffer18UndoActionPositionEi",
            "__ZN9Scintilla8Internal6Editor8FinaliseEv",
            "__ZNK9Scintilla8Internal12RGBAImageSet8GetWidthEv",
            "__ZN13PositionCache7SetSizeEm",
            "__ZNK9Scintilla8Internal12AutoComplete10GetTypesepEv",
            "__ZN9Scintilla8Internal8Document22GetHighlightDelimitersERNS0_18HighlightDelimiterEll",
            "__ZN9Scintilla8Internal8Document4InitEv",
            "__ZNK9Scintilla8Internal9ViewStyle10ValidStyleEm",
            "__ZNK9Scintilla8Internal8Document14EOLAnnotationsEv",
            "__ZN9Scintilla8Internal12RGBAImageSetC2Ev",
            "__ZNK9Scintilla8Internal7CallTip15UseStyleCallTipEv",
            "__ZN9Scintilla8Internal10CellBuffer26AllocateLineCharacterIndexENS_22LineCharacterIndexTypeE",
            "__ZN9Scintilla8Internal10CellBuffer17DeleteUndoHistoryEv",
            "__ZNK9Scintilla8Internal9ViewStyle17IsLineFrameOpaqueEbb",
            "__ZN9Scintilla8Internal11SurfaceImpl13RectangleDrawENS0_10PRectangleENS0_10FillStrokeE",
            "__ZN9Scintilla8Internal15LineLayoutCacheD1Ev",
            "__ZNK9Scintilla8Internal9Selection5StartEv",
            "__ZN9Scintilla8Internal6Editor18HorizontalScrollToEi",
            "__ZN9Scintilla8Internal13ScintillaBaseC2Ev",
            "__ZN9Scintilla8Internal6Editor12SelectionEndEv",
            "__ZN9Scintilla8Internal6Editor4IdleEv",
            "__ZNK9Scintilla8Internal17SelectionPositiongeERKS1_",
            "__ZN9Scintilla8Internal8LexState12PropertyTypeEPKc",
            "__ZNK9Scintilla8Internal9Selection4LastEv",
            "__Z22scintilla_send_messagePvjml",
            "__ZN9Scintilla8Internal11LineMarkers10DeleteMarkElib",
            "__ZN9Scintilla8Internal11UndoHistory17CompletedRedoStepEv",
            "__ZN9Scintilla8Internal13ChangeHistory11DeleteRangeEllb",
            "__ZN9Scintilla8Internal6Editor7FoldAllENS_10FoldActionE",
            "__ZN9Scintilla8Internal15LineLayoutCache10DeallocateEv",
            "__ZN9Scintilla8Internal7CallTipD1Ev",
            "__ZN9Scintilla8Internal6Editor8IdleWorkEv",
            "__ZN9Scintilla8Internal6Editor9DropCaretEv",
            "__ZNK9Scintilla8Internal8Document13NextCharacterERli",
            "__ZNK9Scintilla8Internal11UndoHistory9StartUndoEv",
            "__ZN9Scintilla8Internal11LineMarkers12MergeMarkersEl",
            "__ZN9Scintilla8Internal10CellBuffer16SetUndoSavePointEi",
            "__ZN9Scintilla8Internal14SelectionRange4TrimES1_",
            "__ZThn8_N9Scintilla8Internal8Document9SetStylesElPKc",
            "__ZN9Scintilla8Internal8Document8FindTextEllPKcNS_10FindOptionEPl",
            "__ZNK9Scintilla8Internal12AutoComplete12GetSelectionEv",
            "__ZNK9Scintilla8Internal9EditModel25GetDefaultFoldDisplayTextEv",
            "__ZN9Scintilla8Internal14ScintillaCocoa10InsertTextEP8NSStringNS_15CharacterSourceE",
            "__ZNK9Scintilla8Internal9ViewStyle19ElementColourForcedENS_7ElementE",
            "__ZN9Scintilla8Internal6Editor15SetFoldExpandedElb",
            "__ZN9Scintilla8Internal15UniqueStringSetC1Ev",
            "__ZN9Scintilla8Internal9RGBAImage12BGRAFromRGBAEPhPKhm",
            "__ZN18PositionCacheEntryD1Ev",
            "__ZN9Scintilla8Internal13ScintillaBase28RightButtonDownWithModifiersENS0_5PointEjNS_6KeyModE",
            "__ZThn8_NK9Scintilla8Internal8Document7LineEndEl",
            "__ZNK9Scintilla8Internal8EditView14GetNextTabstopEli",
            "__ZN9Scintilla8Internal17CaseConvertStringEPcmPKcmNS0_14CaseConversionE",
            "__ZNK9Scintilla8Internal9Selection4MainEv",
            "__ZNK9Scintilla8Internal9Selection5CountEv",
            "__ZNK9Scintilla8Internal11UndoHistory15TentativeActiveEv",
            "__ZN9Scintilla8Internal6Editor13SetScrollBarsEv",
            "__ZNK9Scintilla8Internal10CellBuffer6LengthEv",
            "__ZN9Scintilla8Internal10LineLayoutD1Ev",
            "__ZN9Scintilla8Internal11UndoHistoryC1Ev",
            "__ZN9Scintilla8Internal14ScintillaCocoa22SetHorizontalScrollPosEv",
            "__ZN9Scintilla8Internal10CellBufferD1Ev",
            "__ZN9Scintilla8Internal11SurfaceImpl7SetModeENS0_11SurfaceModeE",
            "__ZNK9Scintilla8Internal6KeyMap4FindENS_4KeysENS_6KeyModE",
            "__ZN9Scintilla8Internal6Editor9WrapBlockEPNS0_7SurfaceEll",
            "__ZN9Scintilla8Internal11LineMarkers11InsertLinesEll",
            "__ZN9Scintilla8Internal11SurfaceImpl15InternalLeadingEPKNS0_4FontE",
            "__ZNK9Scintilla8Internal10LineLayout17FindPositionFromXEdNS0_5RangeEb",
            "__ZN9Scintilla8Internal8Document32SetCharacterCategoryOptimizationEi",
            "__ZN9Scintilla8Internal4Menu7DestroyEv",
            "__ZN9Scintilla8Internal8EditView14UpdateBidiDataERKNS0_9EditModelERKNS0_9ViewStyleEPNS0_10LineLayoutE",
            "__ZN9Scintilla8Internal7CallTip9DrawChunkEPNS0_7SurfaceEiNSt3__117basic_string_viewIcNS4_11char_traitsIcEEEEiNS0_10PRectangleEbb",
            "__ZN9Scintilla8Internal15PrintParametersC1Ev",
            "__ZN9Scintilla8Internal8Document6IndentEbll",
            "__ZN18PositionCacheEntry4HashEjbNSt3__117basic_string_viewIcNS0_11char_traitsIcEEEE",
            "__ZNK9Scintilla8Internal9ViewStyle10WrapColourEv",
            "__ZN9Scintilla8Internal6Editor15SetHotSpotRangeEPKNS0_5PointE",
            "__ZNK9Scintilla8Internal8Document20AnnotationStyledTextEl",
            "__ZNK9Scintilla8Internal11UndoActions8PositionEi",
            "__ZNK9Scintilla8Internal14LineAnnotation5StyleEl",
            "__ZN9Scintilla8Internal6Editor13CaseMapStringERKNSt3__112basic_stringIcNS2_11char_traitsIcEENS2_9allocatorIcEEEENS1_11CaseMappingE",
            "__ZNK9Scintilla8Internal10ScreenLine14FontOfPositionEm",
            "__ZN9Scintilla8Internal10WriteValueEPhmm",
            "__ZN9Scintilla8Internal13ScintillaBase12CallTipClickEv",
            "__ZN9Scintilla8Internal12RGBAImageSet8AddImageEiNSt3__110unique_ptrINS0_9RGBAImageENS2_14default_deleteIS4_EEEE",
            "__ZNK9Scintilla8Internal8Document13UndoTentativeEv",
            "__ZN9Scintilla8Internal10CellBuffer10RemoveLineEl",
            "__ZN9Scintilla8Internal15MarkerHandleSet12RemoveHandleEi",
            "__ZN9Scintilla8Internal10LineLayout6ResizeEi",
            "__ZN9Scintilla8Internal6Editor19PositionInSelectionEl",
            "__ZN9Scintilla8Internal8Document20SubstituteByPositionEPKcPl",
            "__ZN9Scintilla8Internal6Window7DestroyEv",
            "__ZN9Scintilla8Internal12LineTabstops10RemoveLineEl",
            "__ZN9Scintilla8Internal11UTF8IsValidENSt3__117basic_string_viewIcNS1_11char_traitsIcEEEE",
            "__ZNK9Scintilla8Internal8Document11IsWhiteLineEl",
            "__ZN9Scintilla8Internal8LexState11TagsOfStyleEi",
            "__ZNK9Scintilla8Internal9ViewStyle18MarginFromLocationENS0_5PointE",
            "__ZThn1760_N9Scintilla8Internal13ScintillaBase10ListNotifyEPNS0_12ListBoxEventE",
            "__ZN9Scintilla8Internal8EditView16RangeDisplayLineEPNS0_7SurfaceERKNS0_9EditModelElRKNS0_9ViewStyleE",
            "__ZN9Scintilla8Internal9ChangeLog5ClearEl",
            "__ZN9Scintilla8Internal13ScintillaBase16AutoCompleteMoveEi",
            "__ZNK9Scintilla8Internal11UndoHistory11DetachPointEv",
            "__ZN9Scintilla8Internal10LineLevels8SetLevelElil",
            "__ZNK9Scintilla8Internal8Document7LenCharEl",
            "__ZN9Scintilla8Internal29UTF8PositionFromUTF16PositionENSt3__117basic_string_viewIcNS1_11char_traitsIcEEEEm",
            "__ZN9Scintilla8Internal6Editor16FineTickerCancelENS1_10TickReasonE",
            "__ZN9Scintilla8Internal6Editor12AbandonPaintEv",
            "__ZN9Scintilla8Internal6WindowD0Ev",
            "__ZNK9Scintilla8Internal10LineLayout10LineLengthEi",
            "__ZNK9Scintilla8Internal14LineAnnotation6LengthEl",
            "__ZN9Scintilla8Internal6Editor19MoveCaretInsideViewEb",
            "__ZN9Scintilla8Internal6Editor16StyleAreaBoundedENS0_10PRectangleEb",
            "__ZN9Scintilla8Internal6Editor18UpdateBaseElementsEv",
            "__ZN9Scintilla8Internal12AutoComplete5StartERNS0_6WindowEilNS0_5PointElibNS_10TechnologyENS0_11ListOptionsE",
            "__ZNK9Scintilla8Internal10CellBuffer9EditionAtEl",
            "__ZN9Scintilla8Internal9ChangeLog14PushDeletionAtElNS0_12EditionCountE",
            "__ZNK9Scintilla8Internal9Selection28LimitsForRectangularElseMainEv",
            "__ZThn16_N9Scintilla8Internal8Document17ConvertToDocumentEv",
            "__ZN9Scintilla8Internal11SurfaceImpl6LayoutEPKNS0_11IScreenLineE",
            "__ZNK9Scintilla8Internal14ScintillaCocoa17RangeTextAsStringE8_NSRange",
            "__ZNK9Scintilla8Internal6Editor9RangeTextEll",
            "__ZN9Scintilla8Internal22SpecialRepresentations19ClearRepresentationENSt3__117basic_string_viewIcNS2_11char_traitsIcEEEE",
            "__ZN9Scintilla8Internal7CallTip11SetPositionEb",
            "__ZThn296_N9Scintilla8Internal13ScintillaBaseD1Ev",
            "__ZN9Scintilla8Internal6Editor19SetRectangularRangeEv",
            "__ZNK9Scintilla8Internal10CellBuffer21LineFromPositionIndexElNS_22LineCharacterIndexTypeE",
            "__ZN9Scintilla8Internal11LineMarkers20DeleteMarkFromHandleEi",
            "__ZN9Scintilla8Internal11MarginStyleC2ENS_10MarginTypeEii",
            "__ZN9Scintilla8Internal12AutoCompleteD2Ev",
            "__ZN9Scintilla8Internal11LineMarkers10RemoveLineEl",
            "__ZN9Scintilla8Internal6Editor15NotifyCaretMoveEv",
            "__ZNK9Scintilla8Internal6Editor13GetStyledTextEPcll",
            "__ZNK9Scintilla8Internal6Editor16LineFromLocationENS0_5PointE",
            "__ZN9Scintilla8Internal6Editor21ChangeCaseOfSelectionENS1_11CaseMappingE",
            "__ZNK9Scintilla8Internal11UndoHistory7CanUndoEv",
            "__ZN9Scintilla8Internal6Editor21CaseFolderForEncodingEv",
            "__ZN9Scintilla8Internal9LineState12SetLineStateElil",
            "__ZN9Scintilla8Internal11SurfaceImpl5ClearEv",
            "__ZNK9Scintilla8Internal6Editor20CreateDrawingSurfaceEPvNSt3__18optionalINS_10TechnologyEEE",
            "__ZN9Scintilla8Internal6Editor10MouseLeaveEv",
            "__ZN9Scintilla8Internal8Document11ClearLevelsEv",
            "__ZNK9Scintilla8Internal9Selection5EmptyEv",
            "__ZN9Scintilla8Internal9Selection13MovePositionsEbll",
            "__ZN9Scintilla8Internal11BreakFinder4NextEv",
            "__ZNK9Scintilla8Internal10LineLayout19SubLineFromPositionEiNS0_8PointEndE",
            "__ZN9Scintilla8Internal10CellBufferD2Ev",
            "__ZNK9Scintilla8Internal13ChangeHistory13DeletionCountEll",
            "__ZN9Scintilla8Internal6Editor14SelectionStartEv",
            "__ZN9Scintilla8Internal6Editor21ButtonUpWithModifiersENS0_5PointEjNS_6KeyModE",
            "__ZN9Scintilla8Internal14ActionDurationC1Eddd",
            "__ZN9Scintilla8Internal8LexState17AllocateSubStylesEii",
            "__ZNK9Scintilla8Internal10ScreenLine21TabWidthMinimumPixelsEv",
            "__ZN9Scintilla8Internal8RESearch6PMatchERKNS0_16CharacterIndexerEllPKc",
            "__ZN9Scintilla8Internal14ScintillaCocoa11MouseExitedEP7NSEvent",
            "__ZN9Scintilla8Internal7ListBoxC2Ev",
            "__ZN9Scintilla8Internal6Editor19RealizeVirtualSpaceEll",
            "__ZN9Scintilla8Internal14LineAnnotation10RemoveLineEl",
            "__ZNK9Scintilla8Internal11UndoHistory7ActionsEv",
            "__ZNK9Scintilla8Internal14ScintillaCocoa12TargetAsUTF8EPc",
            "__ZN9Scintilla8Internal7CallTip11SetForeBackENS0_10ColourRGBAES2_",
            "__ZN9Scintilla8Internal8DocumentD2Ev",
            "__ZN9Scintilla8Internal9ViewStyle16SetStyleFontNameEiPKc",
            "__ZN9Scintilla8Internal13ScintillaBaseD1Ev",
            "__ZN9Scintilla8Internal6Editor11WrapOneLineEPNS0_7SurfaceEl",
            "__ZN9Scintilla8Internal5TimerC1Ev",
            "__ZN9Scintilla8Internal6Editor13SelectionMoveENS_7MessageEm",
            "__ZN9Scintilla8Internal13ScintillaBase23ButtonDownWithModifiersENS0_5PointEjNS_6KeyModE",
            "__ZN9Scintilla8Internal8EditView21SPositionFromLocationEPNS0_7SurfaceERKNS0_9EditModelENS0_13PointDocumentEbbbRKNS0_9ViewStyleENS0_10PRectangleE",
            "__ZNK9Scintilla8Internal10ScreenLine4TextEv",
            "__ZN9Scintilla8Internal11UndoActions6CreateEmNS0_10ActionTypeEllb",
            "__ZN9Scintilla8Internal6Editor10RedrawRectENS0_10PRectangleE",
            "__ZNK9Scintilla8Internal10CellBuffer23UTF8IsCharacterBoundaryEl",
            "__ZN9Scintilla8Internal11UndoActions8PushBackEv",
            "__ZNK9Scintilla8Internal8LexState10PropGetIntEPKci",
            "__ZN9Scintilla8Internal9ChangeLog20SaveHistoryForDeleteEll",
            "__ZNK9Scintilla8Internal6Editor16GetTextRectangleEv",
            "__ZNK9Scintilla8Internal14ScintillaCocoa23PositionsFromCharactersE8_NSRange",
            "__ZN9Scintilla8Internal12AutoComplete7SetListEPKc",
            "__ZN9Scintilla8Internal12ScaledVector10SetValueAtEmm",
            "__ZN9Scintilla8Internal6Editor14PointMainCaretEv",
            "__ZN9Scintilla8Internal11SurfaceImpl4InitEPvS2_",
            "__ZN9Scintilla8Internal14ScintillaCocoa6RedrawEv",
            "__ZN9Scintilla8Internal6Editor14ClearSelectionEb",
            "__ZN9Scintilla8Internal11SurfaceImplC1Ev",
            "__ZNK9Scintilla8Internal14LineAnnotation5EmptyEv",
            "__ZN9Scintilla8Internal3XPM4InitEPKc",
            "__ZN9Scintilla8Internal13UTF8DrawBytesEPKcm",
            "__ZN9Scintilla8Internal6Editor28RightButtonDownWithModifiersENS0_5PointEjNS_6KeyModE",
            "__ZNK9Scintilla8Internal9Selection17InSelectionForEOLEl",
            "__ZN9Scintilla8Internal11SurfaceImpl7PolygonEPKNS0_5PointEmNS0_10FillStrokeE",
            "__ZNK9Scintilla8Internal10CellBuffer16EditionDeletesAtEl",
            "__ZN9Scintilla8Internal6Editor23SetEOLAnnotationVisibleENS_20EOLAnnotationVisibleE",
            "__ZThn8_N9Scintilla8Internal8Document12SetLineStateEli",
            "__ZN9Scintilla8Internal8EditView21DrawEOLAnnotationTextEPNS0_7SurfaceERKNS0_9EditModelERKNS0_9ViewStyleEPKNS0_10LineLayoutEliNS0_10PRectangleEidNS0_9DrawPhaseE",
            "__ZNK9Scintilla8Internal10LineMarker14AlignedPolygonEPNS0_7SurfaceEPKNS0_5PointEm",
            "__ZN9Scintilla8Internal10CellBufferC2Ebb",
            "__ZN9Scintilla8Internal8Document18GetLineIndentationEl",
            "__ZN9Scintilla8Internal8LexState20DescribeWordListSetsEv",
            "__ZN9Scintilla8Internal8EditView18RetrieveLineLayoutElRKNS0_9EditModelE",
            "__ZN9Scintilla8Internal6Editor17EnsureLineVisibleElb",
            "__ZN9Scintilla8Internal14ScintillaCocoa17FineTickerRunningENS0_6Editor10TickReasonE",
            "__ZNK9Scintilla8Internal8Document7LineEndEl",
            "__ZN9Scintilla8Internal6Editor13CopyAllowLineEv",
            "__ZN9Scintilla8Internal4Font8AllocateERKNS0_14FontParametersE",
            "__ZN9Scintilla8Internal6Editor19PaintContainsMarginEv",
            "__ZN9Scintilla8Internal22SpecialRepresentations5ClearEv",
            "__ZNK13PositionCache7GetSizeEv",
            "__ZNK9Scintilla8Internal8Document23EOLAnnotationStyledTextEl",
            "__ZN9Scintilla8Internal10ScrapStack8MoveBackEm",
            "__ZNK9Scintilla8Internal7CallTip10NextTabPosEi",
            "__ZNK9Scintilla8Internal15LineLayoutCache12EntryForLineEl",
            "__ZN9Scintilla8Internal10CellBuffer13BufferPointerEv",
            "__ZN9Scintilla8Internal14ScintillaCocoa15SetMouseCaptureEb",
            "__ZNK9Scintilla8Internal6Editor14SelectionEmptyEv",
            "__ZNK9Scintilla8Internal9ViewStyle17WhiteSpaceVisibleEb",
            "__ZN9Scintilla8Internal13ChangeHistoryC1El",
            "__ZN9Scintilla8Internal14ScintillaCocoa11NotifyFocusEb",
            "__ZNK9Scintilla8Internal11LineMarkers14LineFromHandleEi",
            "__ZN9Scintilla8Internal11SurfaceImpl7EllipseENS0_10PRectangleENS0_10FillStrokeE",
            "__ZN9Scintilla8Internal6Editor20SetSelectionNMessageENS_7MessageEml",
            "__ZN9Scintilla8Internal9ViewStyle17ResetDefaultStyleEv"
          ],
          "weak": [
            "__ZN9Scintilla8Internal9RunStylesIiiE9DeleteAllEv",
            "__ZNK9Scintilla8Internal9RunStylesIiiE4RunsEv",
            "__ZN9Scintilla8Internal9RunStylesIlcE10SetValueAtElc",
            "__ZNK9Scintilla8Internal9RunStylesIlcE4RunsEv",
            "__ZNK9Scintilla8Internal9RunStylesIlcE15RunFromPositionEl",
            "__ZN9Scintilla8Internal9RunStylesIiiE10SetValueAtEii",
            "__ZN9Scintilla8Internal9RunStylesIicEC2Ev",
            "__ZN9Scintilla8Internal9RunStylesIiiE11DeleteRangeEii",
            "__ZN9Scintilla8Internal9RunStylesIliE8SplitRunEl",
            "__ZNK9Scintilla8Internal9RunStylesIicE7ValueAtEi",
            "__ZNK9Scintilla8Internal9RunStylesIlcE6LengthEv",
            "__ZN9Scintilla8Internal9RunStylesIliE9FillRangeElil",
            "__ZN9Scintilla8Internal9RunStylesIliE10SetValueAtEli",
            "__ZN9Scintilla8Internal9RunStylesIlcE9DeleteAllEv",
            "__ZN9Scintilla8Internal9RunStylesIliE11DeleteRangeEll",
            "__ZN9Scintilla8Internal9RunStylesIliE16RemoveRunIfEmptyEl",
            "__ZNK9Scintilla8Internal9RunStylesIicE14FindNextChangeEii",
            "__ZN9Scintilla8Internal9RunStylesIliE9RemoveRunEl",
            "__ZNK9Scintilla8Internal9RunStylesIicE6LengthEv",
            "__ZN9Scintilla8Internal9RunStylesIicE9DeleteAllEv",
            "__ZN9Scintilla8Internal9RunStylesIlcE9RemoveRunEl",
            "__ZN9Scintilla8Internal9RunStylesIliEC2Ev",
            "__ZN9Scintilla8Internal9RunStylesIiiE16RemoveRunIfEmptyEi",
            "__ZNK9Scintilla8Internal9RunStylesIicE4FindEci",
            "__ZNK9Scintilla8Internal9RunStylesIlcE7ValueAtEl",
            "__ZN9Scintilla8Internal9RunStylesIicE11InsertSpaceEii",
            "__ZNK9Scintilla8Internal9RunStylesIicE9AllSameAsEc",
            "__ZN9Scintilla8Internal9RunStylesIicE25RemoveRunIfSameAsPreviousEi",
            "__ZNK9Scintilla8Internal9RunStylesIlcE8StartRunEl",
            "__ZNK9Scintilla8Internal9RunStylesIiiE7ValueAtEi",
            "__ZNK9Scintilla8Internal9RunStylesIliE4RunsEv",
            "__ZNK9Scintilla8Internal9RunStylesIicE15RunFromPositionEi",
            "__ZNK9Scintilla8Internal9RunStylesIiiE6LengthEv",
            "__ZNK9Scintilla8Internal9RunStylesIliE8StartRunEl",
            "__ZN9Scintilla8Internal9RunStylesIicE10SetValueAtEic",
            "__ZN9Scintilla8Internal9RunStylesIlcE8SplitRunEl",
            "__ZN9Scintilla8Internal9RunStylesIliE25RemoveRunIfSameAsPreviousEl",
            "__ZNK9Scintilla8Internal9RunStylesIicE4RunsEv",
            "__ZNK9Scintilla8Internal9RunStylesIlcE7AllSameEv",
            "__ZNK9Scintilla8Internal9RunStylesIliE6EndRunEl",
            "__ZNK9Scintilla8Internal9RunStylesIliE14FindNextChangeEll",
            "__ZN9Scintilla8Internal9RunStylesIiiE25RemoveRunIfSameAsPreviousEi",
            "__ZN9Scintilla8Internal9RunStylesIicE11DeleteRangeEii",
            "__ZNK9Scintilla8Internal9RunStylesIiiE8StartRunEi",
            "__ZNK9Scintilla8Internal9RunStylesIiiE4FindEii",
            "__ZNK9Scintilla8Internal9RunStylesIlcE9AllSameAsEc",
            "__ZNK9Scintilla8Internal9RunStylesIicE6EndRunEi",
            "__ZN9Scintilla8Internal9RunStylesIlcEC2Ev",
            "__ZN9Scintilla8Internal9RunStylesIliEC1Ev",
            "__ZN9Scintilla8Internal9RunStylesIiiEC2Ev",
            "__ZNK9Scintilla8Internal9RunStylesIicE7AllSameEv",
            "__ZNK9Scintilla8Internal9RunStylesIliE15RunFromPositionEl",
            "__ZNK9Scintilla8Internal9RunStylesIiiE5CheckEv",
            "__ZNK9Scintilla8Internal9RunStylesIiiE6EndRunEi",
            "__ZN9Scintilla8Internal9RunStylesIicE9FillRangeEici",
            "__ZNK9Scintilla8Internal9RunStylesIiiE14FindNextChangeEii",
            "__ZNK9Scintilla8Internal9RunStylesIliE6LengthEv",
            "__ZNK9Scintilla8Internal9RunStylesIlcE6EndRunEl",
            "__ZN9Scintilla8Internal9RunStylesIicE16RemoveRunIfEmptyEi",
            "__ZN9Scintilla8Internal9RunStylesIliE11InsertSpaceEll",
            "__ZNK9Scintilla8Internal9RunStylesIliE5CheckEv",
            "__ZN9Scintilla8Internal9RunStylesIiiE9FillRangeEiii",
            "__ZN9Scintilla8Internal9RunStylesIlcE25RemoveRunIfSameAsPreviousEl",
            "__ZN9Scintilla8Internal9RunStylesIicE8SplitRunEi",
            "__ZNK9Scintilla8Internal9RunStylesIlcE5CheckEv",
            "__ZN9Scintilla8Internal9RunStylesIlcE11DeleteRangeEll",
            "__ZN9Scintilla8Internal9RunStylesIiiE9RemoveRunEi",
            "__ZNK9Scintilla8Internal9RunStylesIliE9AllSameAsEi",
            "__ZNK9Scintilla8Internal9RunStylesIiiE9AllSameAsEi",
            "__ZNK9Scintilla8Internal9RunStylesIlcE14FindNextChangeEll",
            "__ZNK9Scintilla8Internal9RunStylesIliE7AllSameEv",
            "__ZNK9Scintilla8Internal9RunStylesIiiE7AllSameEv",
            "__ZNK9Scintilla8Internal9RunStylesIicE5CheckEv",
            "__ZN9Scintilla8Internal9RunStylesIiiEC1Ev",
            "__ZNK9Scintilla8Internal9RunStylesIlcE4FindEcl",
            "__ZNK9Scintilla8Internal9RunStylesIliE7ValueAtEl",
            "__ZN9Scintilla8Internal9RunStylesIlcE16RemoveRunIfEmptyEl",
            "__ZNK9Scintilla8Internal9RunStylesIicE8StartRunEi",
            "__ZNK9Scintilla8Internal9RunStylesIliE4FindEil",
            "__ZN9Scintilla8Internal9RunStylesIliE9DeleteAllEv",
            "__ZN9Scintilla8Internal9RunStylesIlcE9FillRangeElcl",
            "__ZN9Scintilla8Internal9RunStylesIiiE8SplitRunEi",
            "__ZN9Scintilla8Internal9RunStylesIicEC1Ev",
            "__ZN9Scintilla8Internal9RunStylesIlcEC1Ev",
            "__ZN9Scintilla8Internal9RunStylesIicE9RemoveRunEi",
            "__ZNK9Scintilla8Internal9RunStylesIiiE15RunFromPositionEi",
            "__ZN9Scintilla8Internal9RunStylesIiiE11InsertSpaceEii",
            "__ZN9Scintilla8Internal9RunStylesIlcE11InsertSpaceEll"
          ]
        }
      },
      {
        "targets": [
          "arm64-macos"
        ],
        "text": {
          "global": [
            "__ZN9Scintilla8Internal14ScintillaCocoa25ShowFindIndicatorForRangeE8_NSRangeb",
            "__ZN9Scintilla8Internal14ScintillaCocoa27MoveFindIndicatorWithBounceEb"
          ]
        }
      },
      {
        "data": {
          "weak": [
            "__ZTSNSt3__123__match_any_but_newlineIcEE",
            "__ZTSN9Scintilla8Internal15IDecorationListE",
            "__ZTINSt3__111__lookaheadIcNS_12regex_traitsIcEEEE",
            "__ZTINSt3__120__shared_ptr_emplaceIN9Scintilla8Internal10LineLayoutENS_9allocatorIS3_EEEE",
            "__ZTINSt3__16__loopIcEE",
            "__ZTSN9Scintilla8Internal14ICaseConverterE",
            "__ZTIN9Scintilla8Internal16CharacterIndexerE",
            "__ZTIN9Scintilla8Internal11IScreenLineE",
            "__ZTSNSt3__117__repeat_one_loopIwEE",
            "__ZTSNSt3__120__r_anchor_multilineIcEE",
            "__ZTINSt3__111__end_stateIcEE",
            "__ZTINSt3__115__word_boundaryIwNS_12regex_traitsIwEEEE",
            "__ZTSN9Scintilla8Internal10DocWatcherE",
            "__ZTSNSt3__111__alternateIwEE",
            "__ZTIN9Scintilla8Internal11IDecorationE",
            "__ZTSNSt3__113__empty_stateIcEE",
            "__ZTSN9Scintilla8Internal11IScreenLineE",
            "__ZTINSt3__123__match_any_but_newlineIwEE",
            "__ZTINSt3__120__r_anchor_multilineIcEE",
            "__ZTSNSt3__118__match_char_icaseIcNS_12regex_traitsIcEEEE",
            "__ZTINSt3__115__has_one_stateIcEE",
            "__ZTINSt3__118__back_ref_collateIcNS_12regex_traitsIcEEEE",
            "__ZTSNSt3__111__lookaheadIwNS_12regex_traitsIwEEEE",
            "__ZTINSt3__120__l_anchor_multilineIcEE",
            "__ZTSNSt3__110__back_refIcEE",
            "__ZTSNSt3__116__back_ref_icaseIcNS_12regex_traitsIcEEEE",
            "__ZTIN9Scintilla8Internal11ILineVectorE",
            "__ZTINSt3__112__match_charIwEE",
            "__ZTINSt3__118__back_ref_collateIwNS_12regex_traitsIwEEEE",
            "__ZTINSt3__113__empty_stateIcEE",
            "__ZTSN9Scintilla8Internal17IScreenLineLayoutE",
            "__ZTIN9Scintilla8Internal10CaseFolderE",
            "__ZTSN9Scintilla8Internal16CharacterIndexerE",
            "__ZTSNSt3__126__end_marked_subexpressionIcEE",
            "__ZTINSt3__111__alternateIcEE",
            "__ZTINSt3__117__owns_two_statesIcEE",
            "__ZTSNSt3__120__shared_ptr_emplaceI10FontQuartzNS_9allocatorIS1_EEEE",
            "__ZTINSt3__128__begin_marked_subexpressionIcEE",
            "__ZTINSt3__111__match_anyIwEE",
            "__ZTINSt3__121__empty_non_own_stateIwEE",
            "__ZTIN9Scintilla8Internal17IScreenLineLayoutE",
            "__ZTINSt3__120__r_anchor_multilineIwEE",
            "__ZTINSt3__115__word_boundaryIcNS_12regex_traitsIcEEEE",
            "__ZTSNSt3__120__shared_ptr_emplaceIN9Scintilla8Internal10LineLayoutENS_9allocatorIS3_EEEE",
            "__ZTINSt3__123__match_any_but_newlineIcEE",
            "__ZTSN9Scintilla9IDocumentE",
            "__ZTIN9Scintilla8Internal7PerLineE",
            "__ZTINSt3__16__nodeIcEE",
            "__ZTSNSt3__110shared_ptrINS_13__empty_stateIwEEE27__shared_ptr_default_deleteIS2_S2_EE",
            "__ZTSNSt3__116__back_ref_icaseIwNS_12regex_traitsIwEEEE",
            "__ZTSNSt3__121__empty_non_own_stateIcEE",
            "__ZTSN9Scintilla8Internal10LineMarkerE",
            "__ZTSNSt3__120__match_char_collateIcNS_12regex_traitsIcEEEE",
            "__ZTSNSt3__120__bracket_expressionIcNS_12regex_traitsIcEEEE",
            "__ZTSNSt3__120__l_anchor_multilineIcEE",
            "__ZTSN9Scintilla8Internal17IContractionStateE",
            "__ZTSNSt3__111__end_stateIcEE",
            "__ZTSNSt3__128__begin_marked_subexpressionIwEE",
            "__ZTIN9Scintilla8Internal16IListBoxDelegateE",
            "__ZTSNSt3__116__owns_one_stateIcEE",
            "__ZTSN9Scintilla8Internal10RegexErrorE",
            "__ZTSNSt3__112__match_charIcEE",
            "__ZTINSt3__115__has_one_stateIwEE",
            "__ZTSN9Scintilla8Internal14IPositionCacheE",
            "__ZTIN9Scintilla8Internal10LineMarkerE",
            "__ZTSNSt3__111__match_anyIcEE",
            "__ZTI10LineVectorIiE",
            "__ZTIN9Scintilla8Internal7SurfaceE",
            "__ZTIN9Scintilla17IDocumentEditableE",
            "__ZTINSt3__121__empty_non_own_stateIcEE",
            "__ZTSNSt3__120__shared_ptr_pointerIPNS_13__empty_stateIcEENS_10shared_ptrIS2_E27__shared_ptr_default_deleteIS2_S2_EENS_9allocatorIS2_EEEE",
            "__ZTINSt3__117__repeat_one_loopIwEE",
            "__ZTINSt3__120__bracket_expressionIwNS_12regex_traitsIwEEEE",
            "__ZTSNSt3__115__has_one_stateIcEE",
            "__ZTSNSt3__115__has_one_stateIwEE",
            "__ZTINSt3__117__owns_two_statesIwEE",
            "__ZTINSt3__117__repeat_one_loopIcEE",
            "__ZTSNSt3__118__match_char_icaseIwNS_12regex_traitsIwEEEE",
            "__ZTSN9Scintilla17IDocumentEditableE",
            "__ZTIN9Scintilla8Internal14ICaseConverterE",
            "__ZTIN9Scintilla8Internal4FontE",
            "__ZTSNSt3__113__empty_stateIwEE",
            "__ZTINSt3__111__end_stateIwEE",
            "__ZTIN9Scintilla8Internal15IDecorationListE",
            "__ZTIN9Scintilla8Internal15RegexSearchBaseE",
            "__ZTINSt3__120__shared_ptr_pointerIPNS_13__empty_stateIwEENS_10shared_ptrIS2_E27__shared_ptr_default_deleteIS2_S2_EENS_9allocatorIS2_EEEE",
            "__ZTSNSt3__120__match_char_collateIwNS_12regex_traitsIwEEEE",
            "__ZTINSt3__126__end_marked_subexpressionIcEE",
            "__ZTINSt3__110__back_refIcEE",
            "__ZTINSt3__111__lookaheadIwNS_12regex_traitsIwEEEE",
            "__ZTINSt3__118__match_char_icaseIcNS_12regex_traitsIcEEEE",
            "__ZTINSt3__16__nodeIwEE",
            "__ZTINSt3__120__shared_ptr_emplaceI10FontQuartzNS_9allocatorIS1_EEEE",
            "__ZTSN9Scintilla8Internal7PerLineE",
            "__ZTI14CaseFolderDBCS",
            "__ZTS10LineVectorIiE",
            "__ZTSNSt3__128__begin_marked_subexpressionIcEE",
            "__ZTINSt3__16__loopIwEE",
            "__ZTSNSt3__117__repeat_one_loopIcEE",
            "__ZTINSt3__112__match_charIcEE",
            "__ZTSNSt3__123__match_any_but_newlineIwEE",
            "__ZTSNSt3__120__l_anchor_multilineIwEE",
            "__ZTSN9Scintilla8Internal4FontE",
            "__ZTINSt3__120__l_anchor_multilineIwEE",
            "__ZTSNSt3__120__bracket_expressionIwNS_12regex_traitsIwEEEE",
            "__ZTSNSt3__115__word_boundaryIcNS_12regex_traitsIcEEEE",
            "__ZTSNSt3__111__match_anyIwEE",
            "__ZTINSt3__111__match_anyIcEE",
            "__ZTSNSt3__111__lookaheadIcNS_12regex_traitsIcEEEE",
            "__ZTS10LineVectorIlE",
            "__ZTSN9Scintilla7ILoaderE",
            "__ZTSNSt3__117__owns_two_statesIcEE",
            "__ZTINSt3__128__begin_marked_subexpressionIwEE",
            "__ZTSNSt3__117__owns_two_statesIwEE",
            "__ZTSNSt3__111__alternateIcEE",
            "__ZTIN9Scintilla9IDocumentE",
            "__ZTSNSt3__120__shared_ptr_pointerIPNS_13__empty_stateIwEENS_10shared_ptrIS2_E27__shared_ptr_default_deleteIS2_S2_EENS_9allocatorIS2_EEEE",
            "__ZTSNSt3__118__back_ref_collateIwNS_12regex_traitsIwEEEE",
            "__ZTS10FontQuartz",
            "__ZTSN9Scintilla8Internal7SurfaceE",
            "__ZTIN9Scintilla7ILoaderE",
            "__ZTSN9Scintilla8Internal11ILineVectorE",
            "__ZTSNSt3__116__owns_one_stateIwEE",
            "__ZTINSt3__120__shared_ptr_pointerIPNS_13__empty_stateIcEENS_10shared_ptrIS2_E27__shared_ptr_default_deleteIS2_S2_EENS_9allocatorIS2_EEEE",
            "__ZTSN9Scintilla8Internal10CaseFolderE",
            "__ZTIN9Scintilla8Internal10DocWatcherE",
            "__ZTINSt3__116__back_ref_icaseIcNS_12regex_traitsIcEEEE",
            "__ZTS14CaseFolderDBCS",
            "__ZTIN9Scintilla8Internal17IContractionStateE",
            "__ZTINSt3__111__alternateIwEE",
            "__ZTSNSt3__16__loopIcEE",
            "__ZTSN9Scintilla8Internal15RegexSearchBaseE",
            "__ZTSNSt3__120__r_anchor_multilineIwEE",
            "__ZTSNSt3__16__nodeIwEE",
            "__ZTINSt3__110__back_refIwEE",
            "__ZTINSt3__118__match_char_icaseIwNS_12regex_traitsIwEEEE",
            "__ZTSNSt3__115__word_boundaryIwNS_12regex_traitsIwEEEE",
            "__ZTINSt3__126__end_marked_subexpressionIwEE",
            "__ZTSNSt3__112__match_charIwEE",
            "__ZTINSt3__116__owns_one_stateIcEE",
            "__ZTIN9Scintilla8Internal14IPositionCacheE",
            "__ZTSNSt3__110__back_refIwEE",
            "__ZTSNSt3__16__loopIwEE",
            "__ZTSNSt3__111__end_stateIwEE",
            "__ZTINSt3__120__match_char_collateIcNS_12regex_traitsIcEEEE",
            "__ZTIN9Scintilla8Internal10RegexErrorE",
            "__ZTINSt3__113__empty_stateIwEE",
            "__ZTSNSt3__121__empty_non_own_stateIwEE",
            "__ZTINSt3__120__bracket_expressionIcNS_12regex_traitsIcEEEE",
            "__ZTSNSt3__118__back_ref_collateIcNS_12regex_traitsIcEEEE",
            "__ZTI10LineVectorIlE",
            "__ZTSNSt3__126__end_marked_subexpressionIwEE",
            "__ZTINSt3__116__owns_one_stateIwEE",
            "__ZTSN9Scintilla8Internal16IListBoxDelegateE",
            "__ZTINSt3__120__match_char_collateIwNS_12regex_traitsIwEEEE",
            "__ZTI10FontQuartz",
            "__ZTSN9Scintilla8Internal11IDecorationE",
            "__ZTSNSt3__110shared_ptrINS_13__empty_stateIcEEE27__shared_ptr_default_deleteIS2_S2_EE",
            "__ZTINSt3__116__back_ref_icaseIwNS_12regex_traitsIwEEEE",
            "__ZTSNSt3__16__nodeIcEE"
          ]
        },
        "targets": [
          "x86_64-macos"
        ],
        "text": {
          "global": [
            "__ZN9Scintilla8Internal14ScintillaCocoa25ShowFindIndicatorForRangeE8_NSRangea",
            "__ZN9Scintilla8Internal14ScintillaCocoa27MoveFindIndicatorWithBounceEa"
          ]
        }
      }
    ],
    "flags": [
      {
        "attributes": [
          "not_app_extension_safe"
        ]
      }
    ],
    "install_names": [
      {
        "name": "@rpath/Scintilla.framework/Versions/A/Scintilla"
      }
    ],
    "target_info": [
      {
        "min_deployment": "10.13",
        "target": "x86_64-macos"
      },
      {
        "min_deployment": "11",
        "target": "arm64-macos"
      }
    ]
  },
  "tapi_tbd_version": 5
}
