---
triple:          'arm64-apple-darwin'
binary-path:     '/Users/alexseifert/Downloads/scintilla/cocoa/Scintilla/build/Release/Scintilla.framework/Versions/A/Scintilla'
relocations:
  - { offset: 0x33, size: 0x8, addend: 0x0, symName: _ScintillaVersionString, symObjAddr: 0x0, symBinAddr: 0x8EAA0, symSize: 0x0 }
  - { offset: 0x67, size: 0x8, addend: 0x0, symName: _ScintillaVersionNumber, symObjAddr: 0x30, symBinAddr: 0x8EAD0, symSize: 0x0 }
  - { offset: 0xA2, size: 0x8, addend: 0x0, symName: __ZN9Scintilla8Internal17SelectionPosition19MoveForInsertDeleteEbllb, symObjAddr: 0x0, symBinAddr: 0x3778, symSize: 0x70 }
  - { offset: 0x4F38, size: 0x8, addend: 0x0, symName: __ZNSt3__119__allocate_at_leastB8ne180100INS_9allocatorIN9Scintilla8Internal14SelectionRangeEEEEENS_19__allocation_resultINS_16allocator_traitsIT_E7pointerEEERS8_m, symObjAddr: 0x1428, symBinAddr: 0x4BA0, symSize: 0x34 }
  - { offset: 0x4FD5, size: 0x8, addend: 0x0, symName: __ZSt28__throw_bad_array_new_lengthB8ne180100v, symObjAddr: 0x145C, symBinAddr: 0x4BD4, symSize: 0x28 }
  - { offset: 0x536C, size: 0x8, addend: 0x0, symName: __ZNSt3__120__throw_length_errorB8ne180100EPKc, symObjAddr: 0x13B4, symBinAddr: 0x4B2C, symSize: 0x50 }
  - { offset: 0x65E3, size: 0x8, addend: 0x0, symName: __ZSt28__throw_bad_array_new_lengthB8ne180100v, symObjAddr: 0x145C, symBinAddr: 0x4BD4, symSize: 0x28 }
  - { offset: 0x6A9C, size: 0x8, addend: 0x0, symName: __ZN9Scintilla8Internal17SelectionPosition19MoveForInsertDeleteEbllb, symObjAddr: 0x0, symBinAddr: 0x3778, symSize: 0x70 }
  - { offset: 0x6BA4, size: 0x8, addend: 0x0, symName: __ZNK9Scintilla8Internal17SelectionPositionltERKS1_, symObjAddr: 0x70, symBinAddr: 0x37E8, symSize: 0x24 }
  - { offset: 0x6BCC, size: 0x8, addend: 0x0, symName: __ZNK9Scintilla8Internal17SelectionPositiongtERKS1_, symObjAddr: 0x94, symBinAddr: 0x380C, symSize: 0x24 }
  - { offset: 0x6C1A, size: 0x8, addend: 0x0, symName: __ZNK9Scintilla8Internal17SelectionPositionleERKS1_, symObjAddr: 0xB8, symBinAddr: 0x3830, symSize: 0x30 }
  - { offset: 0x6C56, size: 0x8, addend: 0x0, symName: __ZNK9Scintilla8Internal17SelectionPositiongeERKS1_, symObjAddr: 0xE8, symBinAddr: 0x3860, symSize: 0x2C }
  - { offset: 0x6C92, size: 0x8, addend: 0x0, symName: __ZNK9Scintilla8Internal14SelectionRange6LengthEv, symObjAddr: 0x114, symBinAddr: 0x388C, symSize: 0x34 }
  - { offset: 0x6CE6, size: 0x8, addend: 0x0, symName: __ZN9Scintilla8Internal14SelectionRange19MoveForInsertDeleteEbll, symObjAddr: 0x148, symBinAddr: 0x38C0, symSize: 0x68 }
  - { offset: 0x6DC0, size: 0x8, addend: 0x0, symName: __ZNK9Scintilla8Internal14SelectionRange8ContainsEl, symObjAddr: 0x1B0, symBinAddr: 0x3928, symSize: 0x4C }
  - { offset: 0x6DF7, size: 0x8, addend: 0x0, symName: __ZNK9Scintilla8Internal14SelectionRange8ContainsEl, symObjAddr: 0x1B0, symBinAddr: 0x3928, symSize: 0x4C }
  - { offset: 0x6E5B, size: 0x8, addend: 0x0, symName: __ZNK9Scintilla8Internal14SelectionRange8ContainsENS0_17SelectionPositionE, symObjAddr: 0x1FC, symBinAddr: 0x3974, symSize: 0x9C }
  - { offset: 0x6E94, size: 0x8, addend: 0x0, symName: __ZNK9Scintilla8Internal14SelectionRange8ContainsENS0_17SelectionPositionE, symObjAddr: 0x1FC, symBinAddr: 0x3974, symSize: 0x9C }
  - { offset: 0x6F65, size: 0x8, addend: 0x0, symName: __ZNK9Scintilla8Internal14SelectionRange17ContainsCharacterEl, symObjAddr: 0x298, symBinAddr: 0x3A10, symSize: 0x4C }
  - { offset: 0x6F90, size: 0x8, addend: 0x0, symName: __ZNK9Scintilla8Internal14SelectionRange17ContainsCharacterEl, symObjAddr: 0x298, symBinAddr: 0x3A10, symSize: 0x4C }
  - { offset: 0x6FD3, size: 0x8, addend: 0x0, symName: __ZNK9Scintilla8Internal14SelectionRange17ContainsCharacterENS0_17SelectionPositionE, symObjAddr: 0x2E4, symBinAddr: 0x3A5C, symSize: 0x88 }
  - { offset: 0x700C, size: 0x8, addend: 0x0, symName: __ZNK9Scintilla8Internal14SelectionRange17ContainsCharacterENS0_17SelectionPositionE, symObjAddr: 0x2E4, symBinAddr: 0x3A5C, symSize: 0x88 }
  - { offset: 0x71AF, size: 0x8, addend: 0x0, symName: __ZNK9Scintilla8Internal14SelectionRange9IntersectENS0_16SelectionSegmentE, symObjAddr: 0x36C, symBinAddr: 0x3AE4, symSize: 0xFC }
  - { offset: 0x7323, size: 0x8, addend: 0x0, symName: __ZN9Scintilla8Internal14SelectionRange4SwapEv, symObjAddr: 0x468, symBinAddr: 0x3BE0, symSize: 0x14 }
  - { offset: 0x73D1, size: 0x8, addend: 0x0, symName: __ZN9Scintilla8Internal14SelectionRange4TrimES1_, symObjAddr: 0x47C, symBinAddr: 0x3BF4, symSize: 0x1D0 }
  - { offset: 0x7455, size: 0x8, addend: 0x0, symName: __ZN9Scintilla8Internal14SelectionRange4TrimES1_, symObjAddr: 0x47C, symBinAddr: 0x3BF4, symSize: 0x1D0 }
  - { offset: 0x75EB, size: 0x8, addend: 0x0, symName: __ZN9Scintilla8Internal14SelectionRange20MinimizeVirtualSpaceEv, symObjAddr: 0x64C, symBinAddr: 0x3DC4, symSize: 0x30 }
  - { offset: 0x7613, size: 0x8, addend: 0x0, symName: __ZN9Scintilla8Internal14SelectionRange20MinimizeVirtualSpaceEv, symObjAddr: 0x64C, symBinAddr: 0x3DC4, symSize: 0x30 }
  - { offset: 0x7873, size: 0x8, addend: 0x0, symName: __ZN9Scintilla8Internal9SelectionC2Ev, symObjAddr: 0x67C, symBinAddr: 0x3DF4, symSize: 0x84 }
  - { offset: 0x7B73, size: 0x8, addend: 0x0, symName: __ZN9Scintilla8Internal9Selection12AddSelectionENS0_14SelectionRangeE, symObjAddr: 0x700, symBinAddr: 0x3E78, symSize: 0x118 }
  - { offset: 0x8009, size: 0x8, addend: 0x0, symName: __ZN9Scintilla8Internal9SelectionC1Ev, symObjAddr: 0x818, symBinAddr: 0x3F90, symSize: 0x4 }
  - { offset: 0x801B, size: 0x8, addend: 0x0, symName: __ZN9Scintilla8Internal9SelectionC2Ev.cold.1, symObjAddr: 0x15CC, symBinAddr: 0x89C4C, symSize: 0x18 }
  - { offset: 0x8494, size: 0x8, addend: 0x0, symName: __ZN9Scintilla8Internal9Selection13TrimSelectionENS0_14SelectionRangeE, symObjAddr: 0xC74, symBinAddr: 0x43EC, symSize: 0xE0 }
  - { offset: 0x85FD, size: 0x8, addend: 0x0, symName: __ZNKSt3__16vectorIN9Scintilla8Internal14SelectionRangeENS_9allocatorIS3_EEE20__throw_length_errorB8ne180100Ev, symObjAddr: 0x13A0, symBinAddr: 0x4B18, symSize: 0x14 }
  - { offset: 0x8625, size: 0x8, addend: 0x0, symName: __ZNSt3__120__throw_length_errorB8ne180100EPKc, symObjAddr: 0x13B4, symBinAddr: 0x4B2C, symSize: 0x50 }
  - { offset: 0x8630, size: 0x8, addend: 0x0, symName: __ZN9Scintilla8Internal9SelectionC1Ev, symObjAddr: 0x818, symBinAddr: 0x3F90, symSize: 0x4 }
  - { offset: 0x865D, size: 0x8, addend: 0x0, symName: __ZN9Scintilla8Internal9SelectionC1Ev, symObjAddr: 0x818, symBinAddr: 0x3F90, symSize: 0x4 }
  - { offset: 0x866F, size: 0x8, addend: 0x0, symName: __ZNK9Scintilla8Internal9Selection13IsRectangularEv, symObjAddr: 0x81C, symBinAddr: 0x3F94, symSize: 0x14 }
  - { offset: 0x86B3, size: 0x8, addend: 0x0, symName: __ZNK9Scintilla8Internal9Selection9MainCaretEv, symObjAddr: 0x830, symBinAddr: 0x3FA8, symSize: 0x14 }
  - { offset: 0x8711, size: 0x8, addend: 0x0, symName: __ZNK9Scintilla8Internal9Selection10MainAnchorEv, symObjAddr: 0x844, symBinAddr: 0x3FBC, symSize: 0x14 }
  - { offset: 0x8779, size: 0x8, addend: 0x0, symName: __ZN9Scintilla8Internal9Selection11RectangularEv, symObjAddr: 0x858, symBinAddr: 0x3FD0, symSize: 0x8 }
  - { offset: 0x87A0, size: 0x8, addend: 0x0, symName: __ZNK9Scintilla8Internal9Selection6LimitsEv, symObjAddr: 0x860, symBinAddr: 0x3FD8, symSize: 0xCC }
  - { offset: 0x88C7, size: 0x8, addend: 0x0, symName: __ZN9Scintilla8Internal16SelectionSegment6ExtendENS0_17SelectionPositionE, symObjAddr: 0x92C, symBinAddr: 0x40A4, symSize: 0x44 }
  - { offset: 0x88FC, size: 0x8, addend: 0x0, symName: __ZN9Scintilla8Internal16SelectionSegment6ExtendENS0_17SelectionPositionE, symObjAddr: 0x92C, symBinAddr: 0x40A4, symSize: 0x44 }
  - { offset: 0x8946, size: 0x8, addend: 0x0, symName: __ZNK9Scintilla8Internal9Selection28LimitsForRectangularElseMainEv, symObjAddr: 0x970, symBinAddr: 0x40E8, symSize: 0x70 }
  - { offset: 0x896E, size: 0x8, addend: 0x0, symName: __ZNK9Scintilla8Internal9Selection28LimitsForRectangularElseMainEv, symObjAddr: 0x970, symBinAddr: 0x40E8, symSize: 0x70 }
  - { offset: 0x8A16, size: 0x8, addend: 0x0, symName: __ZNK9Scintilla8Internal9Selection5CountEv, symObjAddr: 0x9E0, symBinAddr: 0x4158, symSize: 0x10 }
  - { offset: 0x8A40, size: 0x8, addend: 0x0, symName: __ZNK9Scintilla8Internal9Selection5CountEv, symObjAddr: 0x9E0, symBinAddr: 0x4158, symSize: 0x10 }
  - { offset: 0x8A59, size: 0x8, addend: 0x0, symName: __ZNK9Scintilla8Internal9Selection4MainEv, symObjAddr: 0x9F0, symBinAddr: 0x4168, symSize: 0x8 }
  - { offset: 0x8A7A, size: 0x8, addend: 0x0, symName: __ZN9Scintilla8Internal9Selection7SetMainEm, symObjAddr: 0x9F8, symBinAddr: 0x4170, symSize: 0x8 }
  - { offset: 0x8ACF, size: 0x8, addend: 0x0, symName: __ZN9Scintilla8Internal9Selection5RangeEm, symObjAddr: 0xA00, symBinAddr: 0x4178, symSize: 0xC }
  - { offset: 0x8B06, size: 0x8, addend: 0x0, symName: __ZN9Scintilla8Internal9Selection5RangeEm, symObjAddr: 0xA00, symBinAddr: 0x4178, symSize: 0xC }
  - { offset: 0x8B26, size: 0x8, addend: 0x0, symName: __ZNK9Scintilla8Internal9Selection5RangeEm, symObjAddr: 0xA0C, symBinAddr: 0x4184, symSize: 0xC }
  - { offset: 0x8B5D, size: 0x8, addend: 0x0, symName: __ZNK9Scintilla8Internal9Selection5RangeEm, symObjAddr: 0xA0C, symBinAddr: 0x4184, symSize: 0xC }
  - { offset: 0x8B7E, size: 0x8, addend: 0x0, symName: __ZN9Scintilla8Internal9Selection9RangeMainEv, symObjAddr: 0xA18, symBinAddr: 0x4190, symSize: 0x10 }
  - { offset: 0x8BC4, size: 0x8, addend: 0x0, symName: __ZNK9Scintilla8Internal9Selection9RangeMainEv, symObjAddr: 0xA28, symBinAddr: 0x41A0, symSize: 0x10 }
  - { offset: 0x8C11, size: 0x8, addend: 0x0, symName: __ZNK9Scintilla8Internal9Selection5StartEv, symObjAddr: 0xA38, symBinAddr: 0x41B0, symSize: 0x74 }
  - { offset: 0x8C3C, size: 0x8, addend: 0x0, symName: __ZNK9Scintilla8Internal9Selection5StartEv, symObjAddr: 0xA38, symBinAddr: 0x41B0, symSize: 0x74 }
  - { offset: 0x8D2C, size: 0x8, addend: 0x0, symName: __ZNK9Scintilla8Internal9Selection11MoveExtendsEv, symObjAddr: 0xAAC, symBinAddr: 0x4224, symSize: 0x8 }
  - { offset: 0x8D55, size: 0x8, addend: 0x0, symName: __ZN9Scintilla8Internal9Selection14SetMoveExtendsEb, symObjAddr: 0xAB4, symBinAddr: 0x422C, symSize: 0x8 }
  - { offset: 0x8DB8, size: 0x8, addend: 0x0, symName: __ZNK9Scintilla8Internal9Selection5EmptyEv, symObjAddr: 0xABC, symBinAddr: 0x4234, symSize: 0x44 }
  - { offset: 0x8DDF, size: 0x8, addend: 0x0, symName: __ZNK9Scintilla8Internal9Selection5EmptyEv, symObjAddr: 0xABC, symBinAddr: 0x4234, symSize: 0x44 }
  - { offset: 0x8E18, size: 0x8, addend: 0x0, symName: __ZNK9Scintilla8Internal9Selection5EmptyEv, symObjAddr: 0xABC, symBinAddr: 0x4234, symSize: 0x44 }
  - { offset: 0x8EAE, size: 0x8, addend: 0x0, symName: __ZNK9Scintilla8Internal9Selection4LastEv, symObjAddr: 0xB00, symBinAddr: 0x4278, symSize: 0x94 }
  - { offset: 0x8EE6, size: 0x8, addend: 0x0, symName: __ZNK9Scintilla8Internal9Selection4LastEv, symObjAddr: 0xB00, symBinAddr: 0x4278, symSize: 0x94 }
  - { offset: 0x8F21, size: 0x8, addend: 0x0, symName: __ZNK9Scintilla8Internal9Selection4LastEv, symObjAddr: 0xB00, symBinAddr: 0x4278, symSize: 0x94 }
  - { offset: 0x8FDA, size: 0x8, addend: 0x0, symName: __ZNK9Scintilla8Internal9Selection6LengthEv, symObjAddr: 0xB94, symBinAddr: 0x430C, symSize: 0x50 }
  - { offset: 0x9012, size: 0x8, addend: 0x0, symName: __ZNK9Scintilla8Internal9Selection6LengthEv, symObjAddr: 0xB94, symBinAddr: 0x430C, symSize: 0x50 }
  - { offset: 0x904D, size: 0x8, addend: 0x0, symName: __ZNK9Scintilla8Internal9Selection6LengthEv, symObjAddr: 0xB94, symBinAddr: 0x430C, symSize: 0x50 }
  - { offset: 0x910E, size: 0x8, addend: 0x0, symName: __ZN9Scintilla8Internal9Selection13MovePositionsEbll, symObjAddr: 0xBE4, symBinAddr: 0x435C, symSize: 0x90 }
  - { offset: 0x9267, size: 0x8, addend: 0x0, symName: __ZN9Scintilla8Internal9Selection19TrimOtherSelectionsEmNS0_14SelectionRangeE, symObjAddr: 0xD54, symBinAddr: 0x44CC, symSize: 0x84 }
  - { offset: 0x93FB, size: 0x8, addend: 0x0, symName: __ZN9Scintilla8Internal9Selection12SetSelectionENS0_14SelectionRangeE, symObjAddr: 0xDD8, symBinAddr: 0x4550, symSize: 0x38 }
  - { offset: 0x9434, size: 0x8, addend: 0x0, symName: __ZN9Scintilla8Internal9Selection12SetSelectionENS0_14SelectionRangeE, symObjAddr: 0xDD8, symBinAddr: 0x4550, symSize: 0x38 }
  - { offset: 0x964E, size: 0x8, addend: 0x0, symName: __ZN9Scintilla8Internal9Selection23AddSelectionWithoutTrimENS0_14SelectionRangeE, symObjAddr: 0xE10, symBinAddr: 0x4588, symSize: 0xFC }
  - { offset: 0x9AC9, size: 0x8, addend: 0x0, symName: __ZN9Scintilla8Internal9Selection13DropSelectionEm, symObjAddr: 0xF0C, symBinAddr: 0x4684, symSize: 0x80 }
  - { offset: 0x9B16, size: 0x8, addend: 0x0, symName: __ZN9Scintilla8Internal9Selection13DropSelectionEm, symObjAddr: 0xF0C, symBinAddr: 0x4684, symSize: 0x80 }
  - { offset: 0x9DC3, size: 0x8, addend: 0x0, symName: __ZN9Scintilla8Internal9Selection20DropAdditionalRangesEv, symObjAddr: 0xF8C, symBinAddr: 0x4704, symSize: 0x34 }
  - { offset: 0x9EA9, size: 0x8, addend: 0x0, symName: __ZN9Scintilla8Internal9Selection18TentativeSelectionENS0_14SelectionRangeE, symObjAddr: 0xFC0, symBinAddr: 0x4738, symSize: 0x94 }
  - { offset: 0xA091, size: 0x8, addend: 0x0, symName: __ZNSt3__16vectorIN9Scintilla8Internal14SelectionRangeENS_9allocatorIS3_EEE18__assign_with_sizeB8ne180100IPS3_S8_EEvT_T0_l, symObjAddr: 0x1484, symBinAddr: 0x4BFC, symSize: 0x108 }
  - { offset: 0xA706, size: 0x8, addend: 0x0, symName: __ZNSt3__16vectorIN9Scintilla8Internal14SelectionRangeENS_9allocatorIS3_EEE11__vallocateB8ne180100Em, symObjAddr: 0x158C, symBinAddr: 0x4D04, symSize: 0x40 }
  - { offset: 0xA74A, size: 0x8, addend: 0x0, symName: __ZN9Scintilla8Internal9Selection15CommitTentativeEv, symObjAddr: 0x1054, symBinAddr: 0x47CC, symSize: 0x10 }
  - { offset: 0xA773, size: 0x8, addend: 0x0, symName: __ZN9Scintilla8Internal9Selection15CommitTentativeEv, symObjAddr: 0x1054, symBinAddr: 0x47CC, symSize: 0x10 }
  - { offset: 0xA791, size: 0x8, addend: 0x0, symName: __ZN9Scintilla8Internal9Selection15CommitTentativeEv, symObjAddr: 0x1054, symBinAddr: 0x47CC, symSize: 0x10 }
  - { offset: 0xA809, size: 0x8, addend: 0x0, symName: __ZNK9Scintilla8Internal9Selection9RangeTypeEm, symObjAddr: 0x1064, symBinAddr: 0x47DC, symSize: 0x14 }
  - { offset: 0xA834, size: 0x8, addend: 0x0, symName: __ZNK9Scintilla8Internal9Selection9RangeTypeEm, symObjAddr: 0x1064, symBinAddr: 0x47DC, symSize: 0x14 }
  - { offset: 0xA894, size: 0x8, addend: 0x0, symName: __ZNK9Scintilla8Internal9Selection20CharacterInSelectionEl, symObjAddr: 0x1078, symBinAddr: 0x47F0, symSize: 0x9C }
  - { offset: 0xA957, size: 0x8, addend: 0x0, symName: __ZNK9Scintilla8Internal9Selection17InSelectionForEOLEl, symObjAddr: 0x1114, symBinAddr: 0x488C, symSize: 0xA4 }
  - { offset: 0xAA45, size: 0x8, addend: 0x0, symName: __ZNK9Scintilla8Internal9Selection15VirtualSpaceForEl, symObjAddr: 0x11B8, symBinAddr: 0x4930, symSize: 0x58 }
  - { offset: 0xAA8C, size: 0x8, addend: 0x0, symName: __ZNK9Scintilla8Internal9Selection15VirtualSpaceForEl, symObjAddr: 0x11B8, symBinAddr: 0x4930, symSize: 0x58 }
  - { offset: 0xAAC7, size: 0x8, addend: 0x0, symName: __ZNK9Scintilla8Internal9Selection15VirtualSpaceForEl, symObjAddr: 0x11B8, symBinAddr: 0x4930, symSize: 0x58 }
  - { offset: 0xABCA, size: 0x8, addend: 0x0, symName: __ZN9Scintilla8Internal9Selection5ClearEv, symObjAddr: 0x1210, symBinAddr: 0x4988, symSize: 0x48 }
  - { offset: 0xABF3, size: 0x8, addend: 0x0, symName: __ZN9Scintilla8Internal9Selection5ClearEv, symObjAddr: 0x1210, symBinAddr: 0x4988, symSize: 0x48 }
  - { offset: 0xAEA2, size: 0x8, addend: 0x0, symName: __ZN9Scintilla8Internal9Selection16RemoveDuplicatesEv, symObjAddr: 0x1258, symBinAddr: 0x49D0, symSize: 0x124 }
  - { offset: 0xB230, size: 0x8, addend: 0x0, symName: __ZN9Scintilla8Internal9Selection10RotateMainEv, symObjAddr: 0x137C, symBinAddr: 0x4AF4, symSize: 0x24 }
  - { offset: 0xB274, size: 0x8, addend: 0x0, symName: __ZNSt12length_errorC1B8ne180100EPKc, symObjAddr: 0x1404, symBinAddr: 0x4B7C, symSize: 0x24 }
  - { offset: 0xB44B, size: 0x8, addend: 0x0, symName: __ZNSt3__16vectorIN9Scintilla8Internal14SelectionRangeENS_9allocatorIS3_EEE11__vallocateB8ne180100Em, symObjAddr: 0x158C, symBinAddr: 0x4D04, symSize: 0x40 }
  - { offset: 0xB4C6, size: 0x8, addend: 0x0, symName: __ZN9Scintilla8Internal9SelectionC2Ev.cold.1, symObjAddr: 0x15CC, symBinAddr: 0x89C4C, symSize: 0x18 }
  - { offset: 0xD8D8, size: 0x8, addend: 0x0, symName: __ZN9Scintilla8Internal10UTF8LengthENSt3__117basic_string_viewIwNS1_11char_traitsIwEEEE, symObjAddr: 0x0, symBinAddr: 0x4D44, symSize: 0x60 }
  - { offset: 0xD910, size: 0x8, addend: 0x0, symName: __ZN9Scintilla8Internal15UTF8BytesOfLeadE, symObjAddr: 0xAE8, symBinAddr: 0x8EAF0, symSize: 0x0 }
  - { offset: 0xD91E, size: 0x8, addend: 0x0, symName: __ZN9Scintilla8Internal10UTF8LengthENSt3__117basic_string_viewIwNS1_11char_traitsIwEEEE, symObjAddr: 0x0, symBinAddr: 0x4D44, symSize: 0x60 }
  - { offset: 0xD9B1, size: 0x8, addend: 0x0, symName: __ZN9Scintilla8Internal29UTF8PositionFromUTF16PositionENSt3__117basic_string_viewIcNS1_11char_traitsIcEEEEm, symObjAddr: 0x60, symBinAddr: 0x4DA4, symSize: 0x50 }
  - { offset: 0xDA50, size: 0x8, addend: 0x0, symName: __ZN9Scintilla8Internal13UTF8FromUTF16ENSt3__117basic_string_viewIwNS1_11char_traitsIwEEEEPcm, symObjAddr: 0xB0, symBinAddr: 0x4DF4, symSize: 0x104 }
  - { offset: 0xDAF6, size: 0x8, addend: 0x0, symName: __ZN9Scintilla8Internal22UTF8FromUTF32CharacterEiPc, symObjAddr: 0x1B4, symBinAddr: 0x4EF8, symSize: 0xAC }
  - { offset: 0xDB3A, size: 0x8, addend: 0x0, symName: __ZN9Scintilla8Internal11UTF16LengthENSt3__117basic_string_viewIcNS1_11char_traitsIcEEEE, symObjAddr: 0x260, symBinAddr: 0x4FA4, symSize: 0x50 }
  - { offset: 0xDB75, size: 0x8, addend: 0x0, symName: __ZN9Scintilla8Internal11UTF16LengthENSt3__117basic_string_viewIcNS1_11char_traitsIcEEEE, symObjAddr: 0x260, symBinAddr: 0x4FA4, symSize: 0x50 }
  - { offset: 0xDBF2, size: 0x8, addend: 0x0, symName: __ZN9Scintilla8Internal13UTF16FromUTF8ENSt3__117basic_string_viewIcNS1_11char_traitsIcEEEEPwm, symObjAddr: 0x2B0, symBinAddr: 0x4FF4, symSize: 0x178 }
  - { offset: 0xDCEC, size: 0x8, addend: 0x0, symName: __ZN9Scintilla8Internal11UTF32LengthENSt3__117basic_string_viewIcNS1_11char_traitsIcEEEE, symObjAddr: 0x428, symBinAddr: 0x516C, symSize: 0x3C }
  - { offset: 0xDD12, size: 0x8, addend: 0x0, symName: __ZN9Scintilla8Internal11UTF32LengthENSt3__117basic_string_viewIcNS1_11char_traitsIcEEEE, symObjAddr: 0x428, symBinAddr: 0x516C, symSize: 0x3C }
  - { offset: 0xDD49, size: 0x8, addend: 0x0, symName: __ZN9Scintilla8Internal13UTF32FromUTF8ENSt3__117basic_string_viewIcNS1_11char_traitsIcEEEEPjm, symObjAddr: 0x464, symBinAddr: 0x51A8, symSize: 0x140 }
  - { offset: 0xDE43, size: 0x8, addend: 0x0, symName: __ZN9Scintilla8Internal15WStringFromUTF8ENSt3__117basic_string_viewIcNS1_11char_traitsIcEEEE, symObjAddr: 0x5A4, symBinAddr: 0x52E8, symSize: 0xA4 }
  - { offset: 0xE0B9, size: 0x8, addend: 0x0, symName: __ZN9Scintilla8Internal23UTF16FromUTF32CharacterEjPw, symObjAddr: 0x648, symBinAddr: 0x538C, symSize: 0x34 }
  - { offset: 0xE0F4, size: 0x8, addend: 0x0, symName: __ZN9Scintilla8Internal12UTF8ClassifyEPKhm, symObjAddr: 0x67C, symBinAddr: 0x53C0, symSize: 0x148 }
  - { offset: 0xE140, size: 0x8, addend: 0x0, symName: __ZN9Scintilla8Internal12UTF8ClassifyEPKcm, symObjAddr: 0x7C4, symBinAddr: 0x5508, symSize: 0x4 }
  - { offset: 0xE166, size: 0x8, addend: 0x0, symName: __ZN9Scintilla8Internal12UTF8ClassifyEPKcm, symObjAddr: 0x7C4, symBinAddr: 0x5508, symSize: 0x4 }
  - { offset: 0xE1AA, size: 0x8, addend: 0x0, symName: __ZN9Scintilla8Internal13UTF8DrawBytesEPKcm, symObjAddr: 0x7C8, symBinAddr: 0x550C, symSize: 0x20 }
  - { offset: 0xE23D, size: 0x8, addend: 0x0, symName: __ZN9Scintilla8Internal11UTF8IsValidENSt3__117basic_string_viewIcNS1_11char_traitsIcEEEE, symObjAddr: 0x7E8, symBinAddr: 0x552C, symSize: 0x4C }
  - { offset: 0xE2F4, size: 0x8, addend: 0x0, symName: __ZN9Scintilla8Internal14FixInvalidUTF8ERKNSt3__112basic_stringIcNS1_11char_traitsIcEENS1_9allocatorIcEEEE, symObjAddr: 0x834, symBinAddr: 0x5578, symSize: 0xD0 }
  - { offset: 0x12973, size: 0x8, addend: 0x0, symName: __ZNSt3__119__allocate_at_leastB8ne180100INS_9allocatorIwEEEENS_19__allocation_resultINS_16allocator_traitsIT_E7pointerEEERS5_m, symObjAddr: 0x9B8, symBinAddr: 0x56FC, symSize: 0x34 }
  - { offset: 0x13A46, size: 0x8, addend: 0x0, symName: __ZNSt3__112basic_stringIwNS_11char_traitsIwEENS_9allocatorIwEEEC2B8ne180100Emw, symObjAddr: 0x904, symBinAddr: 0x5648, symSize: 0xA0 }
  - { offset: 0x13C1F, size: 0x8, addend: 0x0, symName: __ZNKSt3__112basic_stringIwNS_11char_traitsIwEENS_9allocatorIwEEE20__throw_length_errorB8ne180100Ev, symObjAddr: 0x9A4, symBinAddr: 0x56E8, symSize: 0x14 }
  - { offset: 0x13F3D, size: 0x8, addend: 0x0, symName: __ZNKSt3__112basic_stringIwNS_11char_traitsIwEENS_9allocatorIwEEE20__throw_length_errorB8ne180100Ev, symObjAddr: 0x9A4, symBinAddr: 0x56E8, symSize: 0x14 }
  - { offset: 0x13F65, size: 0x8, addend: 0x0, symName: __ZNSt3__119__allocate_at_leastB8ne180100INS_9allocatorIwEEEENS_19__allocation_resultINS_16allocator_traitsIT_E7pointerEEERS5_m, symObjAddr: 0x9B8, symBinAddr: 0x56FC, symSize: 0x34 }
  - { offset: 0x15EC8, size: 0x8, addend: 0x0, symName: __ZN12_GLOBAL__N_113SupportsCocoaE, symObjAddr: 0x6DFC, symBinAddr: 0x8EC34, symSize: 0x0 }
  - { offset: 0x16646, size: 0x8, addend: 0x0, symName: __ZN12_GLOBAL__N_112GetPositionsEPK8__CTLineRNSt3__16vectorIdNS3_9allocatorIdEEEE, symObjAddr: 0x2940, symBinAddr: 0x8070, symSize: 0x204 }
  - { offset: 0x173D3, size: 0x8, addend: 0x0, symName: __ZN12_GLOBAL__N_111BlobDeallocEPv, symObjAddr: 0x4CA0, symBinAddr: 0xA334, symSize: 0xC }
  - { offset: 0x17409, size: 0x8, addend: 0x0, symName: __ZN12_GLOBAL__N_112BlobGetWidthEPv, symObjAddr: 0x4CAC, symBinAddr: 0xA340, symSize: 0x8 }
  - { offset: 0x241FB, size: 0x8, addend: 0x0, symName: __ZN9Scintilla8Internal8Platform6ChromeEv, symObjAddr: 0x3FF4, symBinAddr: 0x9724, symSize: 0xC }
  - { offset: 0x2421A, size: 0x8, addend: 0x0, symName: __ZN9Scintilla8Internal8Platform15ChromeHighlightEv, symObjAddr: 0x4000, symBinAddr: 0x9730, symSize: 0x8 }
  - { offset: 0x24239, size: 0x8, addend: 0x0, symName: __ZN9Scintilla8Internal8Platform11DefaultFontEv, symObjAddr: 0x4008, symBinAddr: 0x9738, symSize: 0xC }
  - { offset: 0x24258, size: 0x8, addend: 0x0, symName: __ZN9Scintilla8Internal8Platform15DefaultFontSizeEv, symObjAddr: 0x4014, symBinAddr: 0x9744, symSize: 0x8 }
  - { offset: 0x24277, size: 0x8, addend: 0x0, symName: __ZN9Scintilla8Internal8Platform15DoubleClickTimeEv, symObjAddr: 0x401C, symBinAddr: 0x974C, symSize: 0x3C }
  - { offset: 0x242A8, size: 0x8, addend: 0x0, symName: __ZN9Scintilla8Internal8Platform12DebugDisplayEPKc, symObjAddr: 0x4058, symBinAddr: 0x9788, symSize: 0x4 }
  - { offset: 0x242CF, size: 0x8, addend: 0x0, symName: __ZN9Scintilla8Internal8Platform11DebugPrintfEPKcz, symObjAddr: 0x405C, symBinAddr: 0x978C, symSize: 0x4 }
  - { offset: 0x242F8, size: 0x8, addend: 0x0, symName: __ZN9Scintilla8Internal8Platform19ShowAssertionPopUpsEb, symObjAddr: 0x4060, symBinAddr: 0x9790, symSize: 0x14 }
  - { offset: 0x24330, size: 0x8, addend: 0x0, symName: __ZN9Scintilla8Internal8Platform6AssertEPKcS3_i, symObjAddr: 0x4074, symBinAddr: 0x97A4, symSize: 0x68 }
  - { offset: 0x271A4, size: 0x8, addend: 0x0, symName: __ZL10sizeString, symObjAddr: 0x6E14, symBinAddr: 0x8EC4C, symSize: 0x0 }
  - { offset: 0x271CB, size: 0x8, addend: 0x0, symName: __ZL15assertionPopUps, symObjAddr: 0x9A38, symBinAddr: 0xAC080, symSize: 0x0 }
  - { offset: 0x4CDF0, size: 0x8, addend: 0x0, symName: __ZNSt3__115allocate_sharedB8ne180100I10FontQuartzNS_9allocatorIS1_EEJRKN9Scintilla8Internal14FontParametersEEvEENS_10shared_ptrIT_EERKT0_DpOT1_, symObjAddr: 0x4470, symBinAddr: 0x9B04, symSize: 0x58 }
  - { offset: 0x4D58C, size: 0x8, addend: 0x0, symName: __ZNSt3__119__allocate_at_leastB8ne180100INS_9allocatorIdEEEENS_19__allocation_resultINS_16allocator_traitsIT_E7pointerEEERS5_m, symObjAddr: 0x4B2C, symBinAddr: 0xA1C0, symSize: 0x34 }
  - { offset: 0x4D629, size: 0x8, addend: 0x0, symName: __ZNSt3__120back_insert_iteratorINS_6vectorI7CGPointNS_9allocatorIS2_EEEEEaSB8ne180100EOS2_, symObjAddr: 0x4B60, symBinAddr: 0xA1F4, symSize: 0xF8 }
  - { offset: 0x4DCBB, size: 0x8, addend: 0x0, symName: __ZNSt3__119__allocate_at_leastB8ne180100INS_9allocatorIlEEEENS_19__allocation_resultINS_16allocator_traitsIT_E7pointerEEERS5_m, symObjAddr: 0x42A4, symBinAddr: 0x99D4, symSize: 0x34 }
  - { offset: 0x4DD96, size: 0x8, addend: 0x0, symName: __ZNSt3__119__allocate_at_leastB8ne180100INS_9allocatorI6CGSizeEEEENS_19__allocation_resultINS_16allocator_traitsIT_E7pointerEEERS6_m, symObjAddr: 0x443C, symBinAddr: 0x9AD0, symSize: 0x34 }
  - { offset: 0x4DE33, size: 0x8, addend: 0x0, symName: __ZNSt3__115allocate_sharedB8ne180100I10FontQuartzNS_9allocatorIS1_EEJRKN9Scintilla8Internal14FontParametersEEvEENS_10shared_ptrIT_EERKT0_DpOT1_, symObjAddr: 0x4470, symBinAddr: 0x9B04, symSize: 0x58 }
  - { offset: 0x4E56F, size: 0x8, addend: 0x0, symName: __ZNSt3__119__allocate_at_leastB8ne180100INS_9allocatorI7CGPointEEEENS_19__allocation_resultINS_16allocator_traitsIT_E7pointerEEERS6_m, symObjAddr: 0x4C6C, symBinAddr: 0xA300, symSize: 0x34 }
  - { offset: 0x4E60C, size: 0x8, addend: 0x0, symName: __ZN12_GLOBAL__N_111BlobDeallocEPv, symObjAddr: 0x4CA0, symBinAddr: 0xA334, symSize: 0xC }
  - { offset: 0x4E917, size: 0x8, addend: 0x0, symName: __ZNSt3__119__allocate_at_leastB8ne180100INS_9allocatorIN9Scintilla8Internal8IntervalEEEEENS_19__allocation_resultINS_16allocator_traitsIT_E7pointerEEERS8_m, symObjAddr: 0x5298, symBinAddr: 0xA92C, symSize: 0x34 }
  - { offset: 0x4E9B4, size: 0x8, addend: 0x0, symName: __ZN12_GLOBAL__N_19LinesDataD1Ev, symObjAddr: 0x52CC, symBinAddr: 0xA960, symSize: 0x38 }
  - { offset: 0x50343, size: 0x8, addend: 0x0, symName: __Z24EncodingFromCharacterSetbN9Scintilla12CharacterSetE, symObjAddr: 0x2380, symBinAddr: 0x7AB0, symSize: 0x120 }
  - { offset: 0x58B84, size: 0x8, addend: 0x0, symName: __Z18PRectangleToNSRectRKN9Scintilla8Internal10PRectangleE, symObjAddr: 0x0, symBinAddr: 0x5730, symSize: 0x14 }
  - { offset: 0x58C0A, size: 0x8, addend: 0x0, symName: __Z18NSRectToPRectangleRK6CGRect, symObjAddr: 0x14, symBinAddr: 0x5744, symSize: 0x14 }
  - { offset: 0x58CF3, size: 0x8, addend: 0x0, symName: __ZN9Scintilla8Internal4Font8AllocateERKNS0_14FontParametersE, symObjAddr: 0x28, symBinAddr: 0x5758, symSize: 0x3C }
  - { offset: 0x58EE0, size: 0x8, addend: 0x0, symName: __ZN9Scintilla8Internal11SurfaceImplC2Ev, symObjAddr: 0x64, symBinAddr: 0x5794, symSize: 0x44 }
  - { offset: 0x59010, size: 0x8, addend: 0x0, symName: __ZN9Scintilla8Internal11SurfaceImpl5ClearEv, symObjAddr: 0x258, symBinAddr: 0x5988, symSize: 0x40 }
  - { offset: 0x590AE, size: 0x8, addend: 0x0, symName: __ZN9Scintilla8Internal11SurfaceImplC1Ev, symObjAddr: 0xA8, symBinAddr: 0x57D8, symSize: 0x4 }
  - { offset: 0x590D1, size: 0x8, addend: 0x0, symName: __ZN9Scintilla8Internal11SurfaceImplC1Ev, symObjAddr: 0xA8, symBinAddr: 0x57D8, symSize: 0x4 }
  - { offset: 0x591D8, size: 0x8, addend: 0x0, symName: __ZN9Scintilla8Internal11SurfaceImplC2EPKS1_ii, symObjAddr: 0xAC, symBinAddr: 0x57DC, symSize: 0x164 }
  - { offset: 0x5957A, size: 0x8, addend: 0x0, symName: __ZN9Scintilla8Internal11SurfaceImplC1EPKS1_ii, symObjAddr: 0x210, symBinAddr: 0x5940, symSize: 0x4 }
  - { offset: 0x595B2, size: 0x8, addend: 0x0, symName: __ZN9Scintilla8Internal11SurfaceImplC1EPKS1_ii, symObjAddr: 0x210, symBinAddr: 0x5940, symSize: 0x4 }
  - { offset: 0x595DA, size: 0x8, addend: 0x0, symName: __ZN9Scintilla8Internal11SurfaceImplD2Ev, symObjAddr: 0x214, symBinAddr: 0x5944, symSize: 0x44 }
  - { offset: 0x596B9, size: 0x8, addend: 0x0, symName: __ZN9Scintilla8Internal11SurfaceImplD1Ev, symObjAddr: 0x2A8, symBinAddr: 0x59D8, symSize: 0x4 }
  - { offset: 0x596DC, size: 0x8, addend: 0x0, symName: __ZN9Scintilla8Internal11SurfaceImplD1Ev, symObjAddr: 0x2A8, symBinAddr: 0x59D8, symSize: 0x4 }
  - { offset: 0x5970B, size: 0x8, addend: 0x0, symName: __ZN9Scintilla8Internal11SurfaceImplD0Ev, symObjAddr: 0x2AC, symBinAddr: 0x59DC, symSize: 0x14 }
  - { offset: 0x59767, size: 0x8, addend: 0x0, symName: __ZNK9Scintilla8Internal11SurfaceImpl11UnicodeModeEv, symObjAddr: 0x2C0, symBinAddr: 0x59F0, symSize: 0x14 }
  - { offset: 0x59789, size: 0x8, addend: 0x0, symName: __ZN9Scintilla8Internal11SurfaceImpl7ReleaseEv, symObjAddr: 0x2D4, symBinAddr: 0x5A04, symSize: 0x18 }
  - { offset: 0x597C0, size: 0x8, addend: 0x0, symName: __ZN9Scintilla8Internal11SurfaceImpl11InitialisedEv, symObjAddr: 0x2EC, symBinAddr: 0x5A1C, symSize: 0x10 }
  - { offset: 0x597E9, size: 0x8, addend: 0x0, symName: __ZN9Scintilla8Internal11SurfaceImpl4InitEPv, symObjAddr: 0x2FC, symBinAddr: 0x5A2C, symSize: 0xC }
  - { offset: 0x5982C, size: 0x8, addend: 0x0, symName: __ZN9Scintilla8Internal11SurfaceImpl4InitEPvS2_, symObjAddr: 0x308, symBinAddr: 0x5A38, symSize: 0x38 }
  - { offset: 0x59A11, size: 0x8, addend: 0x0, symName: __ZN9Scintilla8Internal11SurfaceImpl14AllocatePixMapEii, symObjAddr: 0x340, symBinAddr: 0x5A70, symSize: 0x6C }
  - { offset: 0x59C5D, size: 0x8, addend: 0x0, symName: __ZN9Scintilla8Internal11SurfaceImpl28AllocatePixMapImplementationEii, symObjAddr: 0x3AC, symBinAddr: 0x5ADC, symSize: 0x6C }
  - { offset: 0x59DA4, size: 0x8, addend: 0x0, symName: __ZN9Scintilla8Internal11SurfaceImpl7SetModeENS0_11SurfaceModeE, symObjAddr: 0x418, symBinAddr: 0x5B48, symSize: 0x10 }
  - { offset: 0x59DDA, size: 0x8, addend: 0x0, symName: __ZN9Scintilla8Internal11SurfaceImpl15SupportsFeatureENS_8SupportsE, symObjAddr: 0x428, symBinAddr: 0x5B58, symSize: 0x2C }
  - { offset: 0x59F20, size: 0x8, addend: 0x0, symName: __ZN9Scintilla8Internal11SurfaceImpl10FillColourENS0_10ColourRGBAE, symObjAddr: 0x454, symBinAddr: 0x5B84, symSize: 0x50 }
  - { offset: 0x5A06F, size: 0x8, addend: 0x0, symName: __ZN9Scintilla8Internal11SurfaceImpl14PenColourAlphaENS0_10ColourRGBAE, symObjAddr: 0x4A4, symBinAddr: 0x5BD4, symSize: 0x50 }
  - { offset: 0x5A1E0, size: 0x8, addend: 0x0, symName: __ZN9Scintilla8Internal11SurfaceImpl13SetFillStrokeENS0_10FillStrokeE, symObjAddr: 0x4F4, symBinAddr: 0x5C24, symSize: 0x3C }
  - { offset: 0x5A251, size: 0x8, addend: 0x0, symName: __ZN9Scintilla8Internal11SurfaceImpl11CreateImageEv, symObjAddr: 0x530, symBinAddr: 0x5C60, symSize: 0xDC }
  - { offset: 0x5A4AD, size: 0x8, addend: 0x0, symName: __ZN9Scintilla8Internal11SurfaceImpl10LogPixelsYEv, symObjAddr: 0x60C, symBinAddr: 0x5D3C, symSize: 0x8 }
  - { offset: 0x5A4D2, size: 0x8, addend: 0x0, symName: __ZN9Scintilla8Internal11SurfaceImpl14PixelDivisionsEv, symObjAddr: 0x614, symBinAddr: 0x5D44, symSize: 0x30 }
  - { offset: 0x5A550, size: 0x8, addend: 0x0, symName: __ZN9Scintilla8Internal11SurfaceImpl16DeviceHeightFontEi, symObjAddr: 0x644, symBinAddr: 0x5D74, symSize: 0x8 }
  - { offset: 0x5A586, size: 0x8, addend: 0x0, symName: __ZN9Scintilla8Internal11SurfaceImpl8LineDrawENS0_5PointES2_NS0_6StrokeE, symObjAddr: 0x64C, symBinAddr: 0x5D7C, symSize: 0x94 }
  - { offset: 0x5A68F, size: 0x8, addend: 0x0, symName: __ZN9Scintilla8Internal11SurfaceImpl8PolyLineEPKNS0_5PointEmNS0_6StrokeE, symObjAddr: 0x6E0, symBinAddr: 0x5E10, symSize: 0xB4 }
  - { offset: 0x5A8AF, size: 0x8, addend: 0x0, symName: __ZN9Scintilla8Internal11SurfaceImpl7PolygonEPKNS0_5PointEmNS0_10FillStrokeE, symObjAddr: 0x794, symBinAddr: 0x5EC4, symSize: 0xFC }
  - { offset: 0x5ACAB, size: 0x8, addend: 0x0, symName: __ZNSt3__120back_insert_iteratorINS_6vectorI7CGPointNS_9allocatorIS2_EEEEEaSB8ne180100EOS2_, symObjAddr: 0x4B60, symBinAddr: 0xA1F4, symSize: 0xF8 }
  - { offset: 0x5B116, size: 0x8, addend: 0x0, symName: __ZNKSt3__16vectorI7CGPointNS_9allocatorIS1_EEE20__throw_length_errorB8ne180100Ev, symObjAddr: 0x4C58, symBinAddr: 0xA2EC, symSize: 0x14 }
  - { offset: 0x5B1DE, size: 0x8, addend: 0x0, symName: __ZN9Scintilla8Internal11SurfaceImpl13RectangleDrawENS0_10PRectangleENS0_10FillStrokeE, symObjAddr: 0x890, symBinAddr: 0x5FC0, symSize: 0xD8 }
  - { offset: 0x5B335, size: 0x8, addend: 0x0, symName: __ZN9Scintilla8Internal11SurfaceImpl14RectangleFrameENS0_10PRectangleENS0_6StrokeE, symObjAddr: 0x968, symBinAddr: 0x6098, symSize: 0xC8 }
  - { offset: 0x5B463, size: 0x8, addend: 0x0, symName: __ZN9Scintilla8Internal11SurfaceImpl13FillRectangleENS0_10PRectangleENS0_4FillE, symObjAddr: 0xA30, symBinAddr: 0x6160, symSize: 0x74 }
  - { offset: 0x5B526, size: 0x8, addend: 0x0, symName: __ZN9Scintilla8Internal11SurfaceImpl20FillRectangleAlignedENS0_10PRectangleENS0_4FillE, symObjAddr: 0xAA4, symBinAddr: 0x61D4, symSize: 0x5C }
  - { offset: 0x5B5AB, size: 0x8, addend: 0x0, symName: __ZN9Scintilla8Internal11SurfaceImpl13FillRectangleENS0_10PRectangleERNS0_7SurfaceE, symObjAddr: 0xB00, symBinAddr: 0x6230, symSize: 0x16C }
  - { offset: 0x5B927, size: 0x8, addend: 0x0, symName: __ZL20drawImageRefCallbackPvP9CGContext, symObjAddr: 0xC6C, symBinAddr: 0x639C, symSize: 0x50 }
  - { offset: 0x5B9EB, size: 0x8, addend: 0x0, symName: __ZL23releaseImageRefCallbackPv, symObjAddr: 0xCBC, symBinAddr: 0x63EC, symSize: 0x4 }
  - { offset: 0x5BA19, size: 0x8, addend: 0x0, symName: __ZL23releaseImageRefCallbackPv, symObjAddr: 0xCBC, symBinAddr: 0x63EC, symSize: 0x4 }
  - { offset: 0x5BA3A, size: 0x8, addend: 0x0, symName: __ZN9Scintilla8Internal11SurfaceImpl16RoundedRectangleENS0_10PRectangleENS0_10FillStrokeE, symObjAddr: 0xCC0, symBinAddr: 0x63F0, symSize: 0x1A8 }
  - { offset: 0x5BC00, size: 0x8, addend: 0x0, symName: __ZN9Scintilla8Internal11SurfaceImpl14AlphaRectangleENS0_10PRectangleEdNS0_10FillStrokeE, symObjAddr: 0xE68, symBinAddr: 0x6598, symSize: 0x1B8 }
  - { offset: 0x5BE0E, size: 0x8, addend: 0x0, symName: __ZL22DrawChamferedRectangleP9CGContextN9Scintilla8Internal10PRectangleEi17CGPathDrawingMode, symObjAddr: 0x1020, symBinAddr: 0x6750, symSize: 0x12C }
  - { offset: 0x5C4EC, size: 0x8, addend: 0x0, symName: __ZN9Scintilla8Internal11SurfaceImpl17GradientRectangleENS0_10PRectangleERKNSt3__16vectorINS0_10ColourStopENS3_9allocatorIS5_EEEENS0_7Surface15GradientOptionsE, symObjAddr: 0x114C, symBinAddr: 0x687C, symSize: 0x59C }
  - { offset: 0x5E0F6, size: 0x8, addend: 0x0, symName: __ZNKSt3__16vectorIdNS_9allocatorIdEEE20__throw_length_errorB8ne180100Ev, symObjAddr: 0x4B18, symBinAddr: 0xA1AC, symSize: 0x14 }
  - { offset: 0x5E11E, size: 0x8, addend: 0x0, symName: __ZNSt3__119__allocate_at_leastB8ne180100INS_9allocatorIdEEEENS_19__allocation_resultINS_16allocator_traitsIT_E7pointerEEERS5_m, symObjAddr: 0x4B2C, symBinAddr: 0xA1C0, symSize: 0x34 }
  - { offset: 0x5E129, size: 0x8, addend: 0x0, symName: __ZN9Scintilla8Internal11SurfaceImpl13DrawRGBAImageENS0_10PRectangleEiiPKh, symObjAddr: 0x16E8, symBinAddr: 0x6E18, symSize: 0x8C }
  - { offset: 0x5E23C, size: 0x8, addend: 0x0, symName: __ZL19ImageCreateFromRGBAiiPKhb, symObjAddr: 0x1774, symBinAddr: 0x6EA4, symSize: 0x140 }
  - { offset: 0x5E42A, size: 0x8, addend: 0x0, symName: __ZN9Scintilla8Internal11SurfaceImpl7EllipseENS0_10PRectangleENS0_10FillStrokeE, symObjAddr: 0x18B4, symBinAddr: 0x6FE4, symSize: 0xB8 }
  - { offset: 0x5E596, size: 0x8, addend: 0x0, symName: __ZN9Scintilla8Internal11SurfaceImpl7StadiumENS0_10PRectangleENS0_10FillStrokeENS0_7Surface4EndsE, symObjAddr: 0x196C, symBinAddr: 0x709C, symSize: 0x21C }
  - { offset: 0x5E7BF, size: 0x8, addend: 0x0, symName: __ZN9Scintilla8Internal11SurfaceImpl18CopyImageRectangleEPS1_NS0_10PRectangleES3_, symObjAddr: 0x1B88, symBinAddr: 0x72B8, symSize: 0x224 }
  - { offset: 0x5EAA2, size: 0x8, addend: 0x0, symName: __ZN9Scintilla8Internal11SurfaceImpl4CopyENS0_10PRectangleENS0_5PointERNS0_7SurfaceE, symObjAddr: 0x1DAC, symBinAddr: 0x74DC, symSize: 0xF0 }
  - { offset: 0x5F384, size: 0x8, addend: 0x0, symName: __ZN9Scintilla8Internal11SurfaceImpl6LayoutEPKNS0_11IScreenLineE, symObjAddr: 0x1E9C, symBinAddr: 0x75CC, symSize: 0x374 }
  - { offset: 0x5FE50, size: 0x8, addend: 0x0, symName: __ZNKSt3__112basic_stringIcNS_11char_traitsIcEENS_9allocatorIcEEE20__throw_length_errorB8ne180100Ev, symObjAddr: 0x51BC, symBinAddr: 0xA850, symSize: 0x14 }
  - { offset: 0x5FE78, size: 0x8, addend: 0x0, symName: __ZNSt3__16vectorI7CGPointNS_9allocatorIS1_EEEC2Em, symObjAddr: 0x51D0, symBinAddr: 0xA864, symSize: 0x74 }
  - { offset: 0x5FE83, size: 0x8, addend: 0x0, symName: __ZN9Scintilla8Internal11SurfaceImpl14DrawTextNoClipENS0_10PRectangleEPKNS0_4FontEdNSt3__117basic_string_viewIcNS6_11char_traitsIcEEEENS0_10ColourRGBAESB_, symObjAddr: 0x2210, symBinAddr: 0x7940, symSize: 0xA8 }
  - { offset: 0x5FF4C, size: 0x8, addend: 0x0, symName: __ZN9Scintilla8Internal11SurfaceImpl15DrawTextClippedENS0_10PRectangleEPKNS0_4FontEdNSt3__117basic_string_viewIcNS6_11char_traitsIcEEEENS0_10ColourRGBAESB_, symObjAddr: 0x22B8, symBinAddr: 0x79E8, symSize: 0xC8 }
  - { offset: 0x601E7, size: 0x8, addend: 0x0, symName: __ZN9Scintilla8Internal11SurfaceImpl19DrawTextTransparentENS0_10PRectangleEPKNS0_4FontEdNSt3__117basic_string_viewIcNS6_11char_traitsIcEEEENS0_10ColourRGBAE, symObjAddr: 0x24A0, symBinAddr: 0x7BD0, symSize: 0x154 }
  - { offset: 0x605C0, size: 0x8, addend: 0x0, symName: __ZN16QuartzTextLayoutC2ENSt3__117basic_string_viewIcNS0_11char_traitsIcEEEEjPK15QuartzTextStyle, symObjAddr: 0x40EC, symBinAddr: 0x981C, symSize: 0xAC }
  - { offset: 0x6070D, size: 0x8, addend: 0x0, symName: __ZN16QuartzTextLayout4drawEP9CGContextdd, symObjAddr: 0x25F4, symBinAddr: 0x7D24, symSize: 0x78 }
  - { offset: 0x607B6, size: 0x8, addend: 0x0, symName: __ZN16QuartzTextLayoutD2Ev, symObjAddr: 0x4198, symBinAddr: 0x98C8, symSize: 0x44 }
  - { offset: 0x608B2, size: 0x8, addend: 0x0, symName: __ZN9Scintilla8Internal11SurfaceImpl13MeasureWidthsEPKNS0_4FontENSt3__117basic_string_viewIcNS5_11char_traitsIcEEEEPd, symObjAddr: 0x266C, symBinAddr: 0x7D9C, symSize: 0x2D4 }
  - { offset: 0x6108B, size: 0x8, addend: 0x0, symName: __ZNSt3__16vectorIdNS_9allocatorIdEEEC2Em, symObjAddr: 0x4A64, symBinAddr: 0xA0F8, symSize: 0x74 }
  - { offset: 0x61608, size: 0x8, addend: 0x0, symName: __ZNSt3__16vectorIlNS_9allocatorIlEEEC2Em, symObjAddr: 0x41DC, symBinAddr: 0x990C, symSize: 0x74 }
  - { offset: 0x6189C, size: 0x8, addend: 0x0, symName: __ZNSt3__16vectorI6CGSizeNS_9allocatorIS1_EEEC2Em, symObjAddr: 0x4374, symBinAddr: 0x9A08, symSize: 0x74 }
  - { offset: 0x61B44, size: 0x8, addend: 0x0, symName: __ZN9Scintilla8Internal11SurfaceImpl9WidthTextEPKNS0_4FontENSt3__117basic_string_viewIcNS5_11char_traitsIcEEEE, symObjAddr: 0x2B44, symBinAddr: 0x8274, symSize: 0xE8 }
  - { offset: 0x61D67, size: 0x8, addend: 0x0, symName: __ZN9Scintilla8Internal11SurfaceImpl18DrawTextNoClipUTF8ENS0_10PRectangleEPKNS0_4FontEdNSt3__117basic_string_viewIcNS6_11char_traitsIcEEEENS0_10ColourRGBAESB_, symObjAddr: 0x2C2C, symBinAddr: 0x835C, symSize: 0xA8 }
  - { offset: 0x61E30, size: 0x8, addend: 0x0, symName: __ZN9Scintilla8Internal11SurfaceImpl19DrawTextClippedUTF8ENS0_10PRectangleEPKNS0_4FontEdNSt3__117basic_string_viewIcNS6_11char_traitsIcEEEENS0_10ColourRGBAESB_, symObjAddr: 0x2CD4, symBinAddr: 0x8404, symSize: 0xC8 }
  - { offset: 0x61F45, size: 0x8, addend: 0x0, symName: __ZN9Scintilla8Internal11SurfaceImpl23DrawTextTransparentUTF8ENS0_10PRectangleEPKNS0_4FontEdNSt3__117basic_string_viewIcNS6_11char_traitsIcEEEENS0_10ColourRGBAE, symObjAddr: 0x2D9C, symBinAddr: 0x84CC, symSize: 0x13C }
  - { offset: 0x6228D, size: 0x8, addend: 0x0, symName: __ZN9Scintilla8Internal11SurfaceImpl17MeasureWidthsUTF8EPKNS0_4FontENSt3__117basic_string_viewIcNS5_11char_traitsIcEEEEPd, symObjAddr: 0x2ED8, symBinAddr: 0x8608, symSize: 0x1E4 }
  - { offset: 0x628C0, size: 0x8, addend: 0x0, symName: __ZN9Scintilla8Internal11SurfaceImpl13WidthTextUTF8EPKNS0_4FontENSt3__117basic_string_viewIcNS5_11char_traitsIcEEEE, symObjAddr: 0x30BC, symBinAddr: 0x87EC, symSize: 0xC4 }
  - { offset: 0x62A75, size: 0x8, addend: 0x0, symName: __ZN9Scintilla8Internal11SurfaceImpl6AscentEPKNS0_4FontE, symObjAddr: 0x3180, symBinAddr: 0x88B0, symSize: 0x68 }
  - { offset: 0x62B75, size: 0x8, addend: 0x0, symName: __ZN9Scintilla8Internal11SurfaceImpl7DescentEPKNS0_4FontE, symObjAddr: 0x31E8, symBinAddr: 0x8918, symSize: 0x68 }
  - { offset: 0x62C61, size: 0x8, addend: 0x0, symName: __ZN9Scintilla8Internal11SurfaceImpl15InternalLeadingEPKNS0_4FontE, symObjAddr: 0x3250, symBinAddr: 0x8980, symSize: 0x8 }
  - { offset: 0x62C8E, size: 0x8, addend: 0x0, symName: __ZN9Scintilla8Internal11SurfaceImpl6HeightEPKNS0_4FontE, symObjAddr: 0x3258, symBinAddr: 0x8988, symSize: 0x50 }
  - { offset: 0x62CFC, size: 0x8, addend: 0x0, symName: __ZN9Scintilla8Internal11SurfaceImpl16AverageCharWidthEPKNS0_4FontE, symObjAddr: 0x32A8, symBinAddr: 0x89D8, symSize: 0x38 }
  - { offset: 0x62D68, size: 0x8, addend: 0x0, symName: __ZN9Scintilla8Internal11SurfaceImpl7SetClipENS0_10PRectangleE, symObjAddr: 0x32E0, symBinAddr: 0x8A10, symSize: 0x58 }
  - { offset: 0x62DFB, size: 0x8, addend: 0x0, symName: __ZN9Scintilla8Internal11SurfaceImpl7PopClipEv, symObjAddr: 0x3338, symBinAddr: 0x8A68, symSize: 0x8 }
  - { offset: 0x62E32, size: 0x8, addend: 0x0, symName: __ZN9Scintilla8Internal11SurfaceImpl16FlushCachedStateEv, symObjAddr: 0x3340, symBinAddr: 0x8A70, symSize: 0x8 }
  - { offset: 0x62E77, size: 0x8, addend: 0x0, symName: __ZN9Scintilla8Internal11SurfaceImpl12FlushDrawingEv, symObjAddr: 0x3348, symBinAddr: 0x8A78, symSize: 0x4 }
  - { offset: 0x62EB8, size: 0x8, addend: 0x0, symName: __ZN9Scintilla8Internal7Surface8AllocateENS_10TechnologyE, symObjAddr: 0x334C, symBinAddr: 0x8A7C, symSize: 0x2C }
  - { offset: 0x62FA3, size: 0x8, addend: 0x0, symName: __ZN9Scintilla8Internal6WindowD2Ev, symObjAddr: 0x3378, symBinAddr: 0x8AA8, symSize: 0x4 }
  - { offset: 0x62FCE, size: 0x8, addend: 0x0, symName: __ZN9Scintilla8Internal6WindowD1Ev, symObjAddr: 0x337C, symBinAddr: 0x8AAC, symSize: 0x4 }
  - { offset: 0x62FF9, size: 0x8, addend: 0x0, symName: __ZN9Scintilla8Internal6WindowD0Ev, symObjAddr: 0x3380, symBinAddr: 0x8AB0, symSize: 0x4 }
  - { offset: 0x63024, size: 0x8, addend: 0x0, symName: __ZNK9Scintilla8Internal6Window11GetPositionEv, symObjAddr: 0x3384, symBinAddr: 0x8AB4, symSize: 0x164 }
  - { offset: 0x630F7, size: 0x8, addend: 0x0, symName: __ZL9ScreenMaxv, symObjAddr: 0x34E8, symBinAddr: 0x8C18, symSize: 0x60 }
  - { offset: 0x63136, size: 0x8, addend: 0x0, symName: __ZN9Scintilla8Internal6Window11SetPositionENS0_10PRectangleE, symObjAddr: 0x3548, symBinAddr: 0x8C78, symSize: 0x160 }
  - { offset: 0x63246, size: 0x8, addend: 0x0, symName: __ZN9Scintilla8Internal6Window19SetPositionRelativeENS0_10PRectangleEPKS1_, symObjAddr: 0x36A8, symBinAddr: 0x8DD8, symSize: 0x60 }
  - { offset: 0x632C5, size: 0x8, addend: 0x0, symName: __ZNK9Scintilla8Internal6Window17GetClientPositionEv, symObjAddr: 0x3708, symBinAddr: 0x8E38, symSize: 0x4 }
  - { offset: 0x632EF, size: 0x8, addend: 0x0, symName: __ZNK9Scintilla8Internal6Window17GetClientPositionEv, symObjAddr: 0x3708, symBinAddr: 0x8E38, symSize: 0x4 }
  - { offset: 0x63302, size: 0x8, addend: 0x0, symName: __ZN9Scintilla8Internal6Window4ShowEb, symObjAddr: 0x370C, symBinAddr: 0x8E3C, symSize: 0xBC }
  - { offset: 0x63360, size: 0x8, addend: 0x0, symName: __ZN9Scintilla8Internal6Window13InvalidateAllEv, symObjAddr: 0x37C8, symBinAddr: 0x8EF8, symSize: 0xEC }
  - { offset: 0x633DA, size: 0x8, addend: 0x0, symName: __ZN9Scintilla8Internal6Window19InvalidateRectangleENS0_10PRectangleE, symObjAddr: 0x38B4, symBinAddr: 0x8FE4, symSize: 0xF0 }
  - { offset: 0x6348F, size: 0x8, addend: 0x0, symName: __ZN9Scintilla8Internal6Window9SetCursorENS1_6CursorE, symObjAddr: 0x39A4, symBinAddr: 0x90D4, symSize: 0x7C }
  - { offset: 0x634FD, size: 0x8, addend: 0x0, symName: __ZN9Scintilla8Internal6Window14GetMonitorRectENS0_5PointE, symObjAddr: 0x3A20, symBinAddr: 0x9150, symSize: 0x15C }
  - { offset: 0x63612, size: 0x8, addend: 0x0, symName: '-[AutoCompletionDelegate tableViewSelectionDidChange:]', symObjAddr: 0x3B7C, symBinAddr: 0x92AC, symSize: 0x18 }
  - { offset: 0x6365C, size: 0x8, addend: 0x0, symName: '-[AutoCompletionDelegate box]', symObjAddr: 0x3B94, symBinAddr: 0x92C4, symSize: 0x8 }
  - { offset: 0x63692, size: 0x8, addend: 0x0, symName: '-[AutoCompletionDelegate setBox:]', symObjAddr: 0x3B9C, symBinAddr: 0x92CC, symSize: 0x8 }
  - { offset: 0x636CE, size: 0x8, addend: 0x0, symName: '-[AutoCompletionDataSource doubleClick:]', symObjAddr: 0x3BA4, symBinAddr: 0x92D4, symSize: 0x18 }
  - { offset: 0x63718, size: 0x8, addend: 0x0, symName: '-[AutoCompletionDataSource tableView:objectValueForTableColumn:row:]', symObjAddr: 0x3BBC, symBinAddr: 0x92EC, symSize: 0xF8 }
  - { offset: 0x63794, size: 0x8, addend: 0x0, symName: '-[AutoCompletionDataSource tableView:setObjectValue:forTableColumn:row:]', symObjAddr: 0x3CB4, symBinAddr: 0x93E4, symSize: 0x4 }
  - { offset: 0x637F2, size: 0x8, addend: 0x0, symName: '-[AutoCompletionDataSource numberOfRowsInTableView:]', symObjAddr: 0x3CB8, symBinAddr: 0x93E8, symSize: 0x28 }
  - { offset: 0x63840, size: 0x8, addend: 0x0, symName: '-[AutoCompletionDataSource box]', symObjAddr: 0x3CE0, symBinAddr: 0x9410, symSize: 0x8 }
  - { offset: 0x63876, size: 0x8, addend: 0x0, symName: '-[AutoCompletionDataSource setBox:]', symObjAddr: 0x3CE8, symBinAddr: 0x9418, symSize: 0x8 }
  - { offset: 0x638CF, size: 0x8, addend: 0x0, symName: __ZN9Scintilla8Internal7ListBoxC2Ev, symObjAddr: 0x3CF0, symBinAddr: 0x9420, symSize: 0x14 }
  - { offset: 0x63905, size: 0x8, addend: 0x0, symName: __ZN9Scintilla8Internal7ListBoxD2Ev, symObjAddr: 0x3D04, symBinAddr: 0x9434, symSize: 0x4 }
  - { offset: 0x63930, size: 0x8, addend: 0x0, symName: __ZN9Scintilla8Internal7ListBoxD1Ev, symObjAddr: 0x3D08, symBinAddr: 0x9438, symSize: 0x4 }
  - { offset: 0x63959, size: 0x8, addend: 0x0, symName: __ZN9Scintilla8Internal7ListBoxD0Ev, symObjAddr: 0x3D0C, symBinAddr: 0x943C, symSize: 0x4 }
  - { offset: 0x63C70, size: 0x8, addend: 0x0, symName: __ZN9Scintilla8Internal7ListBox8AllocateEv, symObjAddr: 0x3D10, symBinAddr: 0x9440, symSize: 0x11C }
  - { offset: 0x63ED1, size: 0x8, addend: 0x0, symName: __ZN12_GLOBAL__N_19LinesDataD1Ev, symObjAddr: 0x52CC, symBinAddr: 0xA960, symSize: 0x38 }
  - { offset: 0x6403B, size: 0x8, addend: 0x0, symName: __ZN9Scintilla8Internal6Window7DestroyEv, symObjAddr: 0x3E2C, symBinAddr: 0x955C, symSize: 0xDC }
  - { offset: 0x640AC, size: 0x8, addend: 0x0, symName: '-[ScintillaContextMenu handleCommand:]', symObjAddr: 0x3F08, symBinAddr: 0x9638, symSize: 0x5C }
  - { offset: 0x640EF, size: 0x8, addend: 0x0, symName: '-[ScintillaContextMenu setOwner:]', symObjAddr: 0x3F64, symBinAddr: 0x9694, symSize: 0x10 }
  - { offset: 0x6412D, size: 0x8, addend: 0x0, symName: __ZN9Scintilla8Internal4MenuC2Ev, symObjAddr: 0x3F74, symBinAddr: 0x96A4, symSize: 0x8 }
  - { offset: 0x6416E, size: 0x8, addend: 0x0, symName: __ZN9Scintilla8Internal4MenuC1Ev, symObjAddr: 0x3F7C, symBinAddr: 0x96AC, symSize: 0x8 }
  - { offset: 0x6419B, size: 0x8, addend: 0x0, symName: __ZN9Scintilla8Internal4MenuC1Ev, symObjAddr: 0x3F7C, symBinAddr: 0x96AC, symSize: 0x8 }
  - { offset: 0x641EB, size: 0x8, addend: 0x0, symName: __ZN9Scintilla8Internal4Menu11CreatePopUpEv, symObjAddr: 0x3F84, symBinAddr: 0x96B4, symSize: 0x44 }
  - { offset: 0x6424E, size: 0x8, addend: 0x0, symName: __ZN9Scintilla8Internal4Menu7DestroyEv, symObjAddr: 0x3FC8, symBinAddr: 0x96F8, symSize: 0x28 }
  - { offset: 0x6428D, size: 0x8, addend: 0x0, symName: __ZN9Scintilla8Internal4Menu4ShowENS0_5PointERKNS0_6WindowE, symObjAddr: 0x3FF0, symBinAddr: 0x9720, symSize: 0x4 }
  - { offset: 0x642E6, size: 0x8, addend: 0x0, symName: __ZL19ProviderReleaseDataPvPKvm, symObjAddr: 0x40DC, symBinAddr: 0x980C, symSize: 0x10 }
  - { offset: 0x644D1, size: 0x8, addend: 0x0, symName: __ZNSt3__16vectorIlNS_9allocatorIlEEE11__vallocateB8ne180100Em, symObjAddr: 0x4250, symBinAddr: 0x9980, symSize: 0x40 }
  - { offset: 0x6454C, size: 0x8, addend: 0x0, symName: __ZNKSt3__16vectorIlNS_9allocatorIlEEE20__throw_length_errorB8ne180100Ev, symObjAddr: 0x4290, symBinAddr: 0x99C0, symSize: 0x14 }
  - { offset: 0x64572, size: 0x8, addend: 0x0, symName: __ZNKSt3__16vectorIlNS_9allocatorIlEEE20__throw_length_errorB8ne180100Ev, symObjAddr: 0x4290, symBinAddr: 0x99C0, symSize: 0x14 }
  - { offset: 0x6459A, size: 0x8, addend: 0x0, symName: __ZNSt3__119__allocate_at_leastB8ne180100INS_9allocatorIlEEEENS_19__allocation_resultINS_16allocator_traitsIT_E7pointerEEERS5_m, symObjAddr: 0x42A4, symBinAddr: 0x99D4, symSize: 0x34 }
  - { offset: 0x647B4, size: 0x8, addend: 0x0, symName: __ZNSt3__16vectorI6CGSizeNS_9allocatorIS1_EEE11__vallocateB8ne180100Em, symObjAddr: 0x43E8, symBinAddr: 0x9A7C, symSize: 0x40 }
  - { offset: 0x6482F, size: 0x8, addend: 0x0, symName: __ZNKSt3__16vectorI6CGSizeNS_9allocatorIS1_EEE20__throw_length_errorB8ne180100Ev, symObjAddr: 0x4428, symBinAddr: 0x9ABC, symSize: 0x14 }
  - { offset: 0x64855, size: 0x8, addend: 0x0, symName: __ZNKSt3__16vectorI6CGSizeNS_9allocatorIS1_EEE20__throw_length_errorB8ne180100Ev, symObjAddr: 0x4428, symBinAddr: 0x9ABC, symSize: 0x14 }
  - { offset: 0x6487D, size: 0x8, addend: 0x0, symName: __ZNSt3__119__allocate_at_leastB8ne180100INS_9allocatorI6CGSizeEEEENS_19__allocation_resultINS_16allocator_traitsIT_E7pointerEEERS6_m, symObjAddr: 0x443C, symBinAddr: 0x9AD0, symSize: 0x34 }
  - { offset: 0x64AE4, size: 0x8, addend: 0x0, symName: __ZNSt3__120__shared_ptr_emplaceI10FontQuartzNS_9allocatorIS1_EEEC2B8ne180100IJRKN9Scintilla8Internal14FontParametersEES3_Li0EEES3_DpOT_, symObjAddr: 0x44C8, symBinAddr: 0x9B5C, symSize: 0x4C }
  - { offset: 0x64D10, size: 0x8, addend: 0x0, symName: __ZN10FontQuartzC2ERKN9Scintilla8Internal14FontParametersE, symObjAddr: 0x455C, symBinAddr: 0x9BF0, symSize: 0x104 }
  - { offset: 0x64F86, size: 0x8, addend: 0x0, symName: __ZNSt3__120__shared_ptr_emplaceI10FontQuartzNS_9allocatorIS1_EEED1Ev, symObjAddr: 0x4514, symBinAddr: 0x9BA8, symSize: 0x14 }
  - { offset: 0x64FA8, size: 0x8, addend: 0x0, symName: __ZNSt3__120__shared_ptr_emplaceI10FontQuartzNS_9allocatorIS1_EEED1Ev, symObjAddr: 0x4514, symBinAddr: 0x9BA8, symSize: 0x14 }
  - { offset: 0x64FDD, size: 0x8, addend: 0x0, symName: __ZNSt3__120__shared_ptr_emplaceI10FontQuartzNS_9allocatorIS1_EEED0Ev, symObjAddr: 0x4528, symBinAddr: 0x9BBC, symSize: 0x24 }
  - { offset: 0x650C3, size: 0x8, addend: 0x0, symName: __ZNSt3__120__shared_ptr_emplaceI10FontQuartzNS_9allocatorIS1_EEE16__on_zero_sharedEv, symObjAddr: 0x454C, symBinAddr: 0x9BE0, symSize: 0xC }
  - { offset: 0x650EB, size: 0x8, addend: 0x0, symName: __ZNSt3__120__shared_ptr_emplaceI10FontQuartzNS_9allocatorIS1_EEE16__on_zero_sharedEv, symObjAddr: 0x454C, symBinAddr: 0x9BE0, symSize: 0xC }
  - { offset: 0x65109, size: 0x8, addend: 0x0, symName: __ZNSt3__120__shared_ptr_emplaceI10FontQuartzNS_9allocatorIS1_EEE16__on_zero_sharedEv, symObjAddr: 0x454C, symBinAddr: 0x9BE0, symSize: 0xC }
  - { offset: 0x65127, size: 0x8, addend: 0x0, symName: __ZNSt3__120__shared_ptr_emplaceI10FontQuartzNS_9allocatorIS1_EEE16__on_zero_sharedEv, symObjAddr: 0x454C, symBinAddr: 0x9BE0, symSize: 0xC }
  - { offset: 0x65152, size: 0x8, addend: 0x0, symName: __ZNSt3__120__shared_ptr_emplaceI10FontQuartzNS_9allocatorIS1_EEE21__on_zero_shared_weakEv, symObjAddr: 0x4558, symBinAddr: 0x9BEC, symSize: 0x4 }
  - { offset: 0x65184, size: 0x8, addend: 0x0, symName: __ZNSt3__120__shared_ptr_emplaceI10FontQuartzNS_9allocatorIS1_EEE21__on_zero_shared_weakEv, symObjAddr: 0x4558, symBinAddr: 0x9BEC, symSize: 0x4 }
  - { offset: 0x651A6, size: 0x8, addend: 0x0, symName: __ZNSt3__120__shared_ptr_emplaceI10FontQuartzNS_9allocatorIS1_EEE21__on_zero_shared_weakEv, symObjAddr: 0x4558, symBinAddr: 0x9BEC, symSize: 0x4 }
  - { offset: 0x651C8, size: 0x8, addend: 0x0, symName: __ZNSt3__120__shared_ptr_emplaceI10FontQuartzNS_9allocatorIS1_EEE21__on_zero_shared_weakEv, symObjAddr: 0x4558, symBinAddr: 0x9BEC, symSize: 0x4 }
  - { offset: 0x651F4, size: 0x8, addend: 0x0, symName: __ZNSt3__120__shared_ptr_emplaceI10FontQuartzNS_9allocatorIS1_EEE21__on_zero_shared_weakEv, symObjAddr: 0x4558, symBinAddr: 0x9BEC, symSize: 0x4 }
  - { offset: 0x6521B, size: 0x8, addend: 0x0, symName: __ZNSt3__120__shared_ptr_emplaceI10FontQuartzNS_9allocatorIS1_EEE21__on_zero_shared_weakEv, symObjAddr: 0x4558, symBinAddr: 0x9BEC, symSize: 0x4 }
  - { offset: 0x6561E, size: 0x8, addend: 0x0, symName: __ZNSt3__110unique_ptrI15QuartzTextStyleNS_14default_deleteIS1_EEE5resetB8ne180100EPS1_, symObjAddr: 0x4738, symBinAddr: 0x9DCC, symSize: 0x2C }
  - { offset: 0x656BE, size: 0x8, addend: 0x0, symName: __ZN10QuartzFontC2EPKcmfN9Scintilla10FontWeightENS2_11FontStretchEb, symObjAddr: 0x47A8, symBinAddr: 0x9E3C, symSize: 0x210 }
  - { offset: 0x65AE3, size: 0x8, addend: 0x0, symName: __ZN15QuartzTextStyle10setFontRefEPK8__CTFontN9Scintilla12CharacterSetE, symObjAddr: 0x4660, symBinAddr: 0x9CF4, symSize: 0x68 }
  - { offset: 0x65B88, size: 0x8, addend: 0x0, symName: __ZN10FontQuartzD1Ev, symObjAddr: 0x46C8, symBinAddr: 0x9D5C, symSize: 0x38 }
  - { offset: 0x65C2C, size: 0x8, addend: 0x0, symName: __ZN10FontQuartzD0Ev, symObjAddr: 0x4700, symBinAddr: 0x9D94, symSize: 0x38 }
  - { offset: 0x65D18, size: 0x8, addend: 0x0, symName: __ZN15QuartzTextStyleD2Ev, symObjAddr: 0x4764, symBinAddr: 0x9DF8, symSize: 0x44 }
  - { offset: 0x65EE2, size: 0x8, addend: 0x0, symName: __ZN15DictionaryForCFC2Ev, symObjAddr: 0x4A18, symBinAddr: 0xA0AC, symSize: 0x4C }
  - { offset: 0x65F1F, size: 0x8, addend: 0x0, symName: __ZN15DictionaryForCF7SetItemEPKv12CFNumberTypeS1_, symObjAddr: 0x49B8, symBinAddr: 0xA04C, symSize: 0x60 }
  - { offset: 0x661E7, size: 0x8, addend: 0x0, symName: __ZNSt3__16vectorIdNS_9allocatorIdEEE11__vallocateB8ne180100Em, symObjAddr: 0x4AD8, symBinAddr: 0xA16C, symSize: 0x40 }
  - { offset: 0x66262, size: 0x8, addend: 0x0, symName: __ZNKSt3__16vectorIdNS_9allocatorIdEEE20__throw_length_errorB8ne180100Ev, symObjAddr: 0x4B18, symBinAddr: 0xA1AC, symSize: 0x14 }
  - { offset: 0x665F3, size: 0x8, addend: 0x0, symName: __ZNKSt3__16vectorI7CGPointNS_9allocatorIS1_EEE20__throw_length_errorB8ne180100Ev, symObjAddr: 0x4C58, symBinAddr: 0xA2EC, symSize: 0x14 }
  - { offset: 0x6661B, size: 0x8, addend: 0x0, symName: __ZNSt3__119__allocate_at_leastB8ne180100INS_9allocatorI7CGPointEEEENS_19__allocation_resultINS_16allocator_traitsIT_E7pointerEEERS6_m, symObjAddr: 0x4C6C, symBinAddr: 0xA300, symSize: 0x34 }
  - { offset: 0x6665F, size: 0x8, addend: 0x0, symName: __ZN12_GLOBAL__N_116ScreenLineLayoutD1Ev, symObjAddr: 0x4CB4, symBinAddr: 0xA348, symSize: 0x48 }
  - { offset: 0x667D0, size: 0x8, addend: 0x0, symName: __ZN12_GLOBAL__N_116ScreenLineLayoutD0Ev, symObjAddr: 0x4CFC, symBinAddr: 0xA390, symSize: 0x14 }
  - { offset: 0x66822, size: 0x8, addend: 0x0, symName: __ZN12_GLOBAL__N_116ScreenLineLayout13PositionFromXEdb, symObjAddr: 0x4D10, symBinAddr: 0xA3A4, symSize: 0x60 }
  - { offset: 0x66969, size: 0x8, addend: 0x0, symName: __ZN12_GLOBAL__N_116ScreenLineLayout13XFromPositionEm, symObjAddr: 0x4D70, symBinAddr: 0xA404, symSize: 0x64 }
  - { offset: 0x66FA9, size: 0x8, addend: 0x0, symName: __ZN12_GLOBAL__N_116ScreenLineLayout18FindRangeIntervalsEmm, symObjAddr: 0x4DD4, symBinAddr: 0xA468, symSize: 0x3E8 }
  - { offset: 0x68685, size: 0x8, addend: 0x0, symName: __ZNSt3__16vectorI7CGPointNS_9allocatorIS1_EEEC2Em, symObjAddr: 0x51D0, symBinAddr: 0xA864, symSize: 0x74 }
  - { offset: 0x68918, size: 0x8, addend: 0x0, symName: __ZNKSt3__16vectorIN9Scintilla8Internal8IntervalENS_9allocatorIS3_EEE20__throw_length_errorB8ne180100Ev, symObjAddr: 0x5284, symBinAddr: 0xA918, symSize: 0x14 }
  - { offset: 0x68940, size: 0x8, addend: 0x0, symName: __ZNSt3__119__allocate_at_leastB8ne180100INS_9allocatorIN9Scintilla8Internal8IntervalEEEEENS_19__allocation_resultINS_16allocator_traitsIT_E7pointerEEERS8_m, symObjAddr: 0x5298, symBinAddr: 0xA92C, symSize: 0x34 }
  - { offset: 0x68AC0, size: 0x8, addend: 0x0, symName: __ZNSt3__16vectorI7CGPointNS_9allocatorIS1_EEE11__vallocateB8ne180100Em, symObjAddr: 0x5244, symBinAddr: 0xA8D8, symSize: 0x40 }
  - { offset: 0x68B3B, size: 0x8, addend: 0x0, symName: __ZNKSt3__16vectorIN9Scintilla8Internal8IntervalENS_9allocatorIS3_EEE20__throw_length_errorB8ne180100Ev, symObjAddr: 0x5284, symBinAddr: 0xA918, symSize: 0x14 }
  - { offset: 0x68C49, size: 0x8, addend: 0x0, symName: __ZNSt3__16vectorIN12_GLOBAL__N_17RowDataENS_9allocatorIS2_EEE7__clearB8ne180100Ev, symObjAddr: 0x640C, symBinAddr: 0xBAA0, symSize: 0x4C }
  - { offset: 0x68E3A, size: 0x8, addend: 0x0, symName: __ZN12_GLOBAL__N_111ListBoxImplD1Ev, symObjAddr: 0x5304, symBinAddr: 0xA998, symSize: 0x8C }
  - { offset: 0x68F2B, size: 0x8, addend: 0x0, symName: __ZN12_GLOBAL__N_111ListBoxImplD0Ev, symObjAddr: 0x5390, symBinAddr: 0xAA24, symSize: 0x14 }
  - { offset: 0x68FD3, size: 0x8, addend: 0x0, symName: __ZN12_GLOBAL__N_111ListBoxImpl7SetFontEPKN9Scintilla8Internal4FontE, symObjAddr: 0x53A4, symBinAddr: 0xAA38, symSize: 0x108 }
  - { offset: 0x69172, size: 0x8, addend: 0x0, symName: __ZN10FontQuartzC2EPK15QuartzTextStyle, symObjAddr: 0x6458, symBinAddr: 0xBAEC, symSize: 0x8C }
  - { offset: 0x692DF, size: 0x8, addend: 0x0, symName: __ZN12_GLOBAL__N_111ListBoxImpl6CreateERN9Scintilla8Internal6WindowEiNS2_5PointEibNS1_10TechnologyE, symObjAddr: 0x54AC, symBinAddr: 0xAB40, symSize: 0x31C }
  - { offset: 0x69391, size: 0x8, addend: 0x0, symName: __ZN12_GLOBAL__N_111ListBoxImpl19SetAverageCharWidthEi, symObjAddr: 0x57C8, symBinAddr: 0xAE5C, symSize: 0x8 }
  - { offset: 0x693C6, size: 0x8, addend: 0x0, symName: __ZN12_GLOBAL__N_111ListBoxImpl14SetVisibleRowsEi, symObjAddr: 0x57D0, symBinAddr: 0xAE64, symSize: 0x8 }
  - { offset: 0x693FB, size: 0x8, addend: 0x0, symName: __ZNK12_GLOBAL__N_111ListBoxImpl14GetVisibleRowsEv, symObjAddr: 0x57D8, symBinAddr: 0xAE6C, symSize: 0x8 }
  - { offset: 0x69423, size: 0x8, addend: 0x0, symName: __ZN12_GLOBAL__N_111ListBoxImpl14GetDesiredRectEv, symObjAddr: 0x57E0, symBinAddr: 0xAE74, symSize: 0x11C }
  - { offset: 0x694B9, size: 0x8, addend: 0x0, symName: __ZN12_GLOBAL__N_111ListBoxImpl13CaretFromEdgeEv, symObjAddr: 0x58FC, symBinAddr: 0xAF90, symSize: 0x40 }
  - { offset: 0x69515, size: 0x8, addend: 0x0, symName: __ZN12_GLOBAL__N_111ListBoxImpl5ClearEv, symObjAddr: 0x593C, symBinAddr: 0xAFD0, symSize: 0x10 }
  - { offset: 0x69ADC, size: 0x8, addend: 0x0, symName: __ZN12_GLOBAL__N_111ListBoxImpl6AppendEPci, symObjAddr: 0x594C, symBinAddr: 0xAFE0, symSize: 0x2DC }
  - { offset: 0x6A882, size: 0x8, addend: 0x0, symName: __ZNSt3__112basic_stringIcNS_11char_traitsIcEENS_9allocatorIcEEEC2B8ne180100ILi0EEEPKc, symObjAddr: 0x656C, symBinAddr: 0xBC00, symSize: 0xB0 }
  - { offset: 0x6AC22, size: 0x8, addend: 0x0, symName: __ZNSt3__16vectorIcNS_9allocatorIcEEE16__init_with_sizeB8ne180100IPKcS6_EEvT_T0_m, symObjAddr: 0x661C, symBinAddr: 0xBCB0, symSize: 0x78 }
  - { offset: 0x6AC3A, size: 0x8, addend: 0x0, symName: __ZNKSt3__16vectorIN12_GLOBAL__N_17RowDataENS_9allocatorIS2_EEE20__throw_length_errorB8ne180100Ev, symObjAddr: 0x6558, symBinAddr: 0xBBEC, symSize: 0x14 }
  - { offset: 0x6AC5E, size: 0x8, addend: 0x0, symName: __ZNSt3__112basic_stringIcNS_11char_traitsIcEENS_9allocatorIcEEEC2B8ne180100ILi0EEEPKc, symObjAddr: 0x656C, symBinAddr: 0xBC00, symSize: 0xB0 }
  - { offset: 0x6AC82, size: 0x8, addend: 0x0, symName: __ZN12_GLOBAL__N_111ListBoxImpl6LengthEv, symObjAddr: 0x5C28, symBinAddr: 0xB2BC, symSize: 0x10 }
  - { offset: 0x6ACAC, size: 0x8, addend: 0x0, symName: __ZN12_GLOBAL__N_111ListBoxImpl6LengthEv, symObjAddr: 0x5C28, symBinAddr: 0xB2BC, symSize: 0x10 }
  - { offset: 0x6ACCB, size: 0x8, addend: 0x0, symName: __ZN12_GLOBAL__N_111ListBoxImpl6LengthEv, symObjAddr: 0x5C28, symBinAddr: 0xB2BC, symSize: 0x10 }
  - { offset: 0x6ACEA, size: 0x8, addend: 0x0, symName: __ZN12_GLOBAL__N_111ListBoxImpl6SelectEi, symObjAddr: 0x5C38, symBinAddr: 0xB2CC, symSize: 0x7C }
  - { offset: 0x6AD23, size: 0x8, addend: 0x0, symName: __ZN12_GLOBAL__N_111ListBoxImpl12GetSelectionEv, symObjAddr: 0x5CB4, symBinAddr: 0xB348, symSize: 0x18 }
  - { offset: 0x6AD7F, size: 0x8, addend: 0x0, symName: __ZN12_GLOBAL__N_111ListBoxImpl4FindEPKc, symObjAddr: 0x5CCC, symBinAddr: 0xB360, symSize: 0xB4 }
  - { offset: 0x6AFC9, size: 0x8, addend: 0x0, symName: __ZN12_GLOBAL__N_111ListBoxImpl8GetValueEi, symObjAddr: 0x5D80, symBinAddr: 0xB414, symSize: 0x40 }
  - { offset: 0x6B4BA, size: 0x8, addend: 0x0, symName: __ZN12_GLOBAL__N_111ListBoxImpl13RegisterImageEiPKc, symObjAddr: 0x5DC0, symBinAddr: 0xB454, symSize: 0x204 }
  - { offset: 0x6BC1C, size: 0x8, addend: 0x0, symName: __ZN12_GLOBAL__N_111ListBoxImpl17RegisterRGBAImageEiiiPKh, symObjAddr: 0x5FC4, symBinAddr: 0xB658, symSize: 0xCC }
  - { offset: 0x6BCE6, size: 0x8, addend: 0x0, symName: __ZN12_GLOBAL__N_111ListBoxImpl21ClearRegisteredImagesEv, symObjAddr: 0x6090, symBinAddr: 0xB724, symSize: 0x8 }
  - { offset: 0x6BD0E, size: 0x8, addend: 0x0, symName: __ZN12_GLOBAL__N_111ListBoxImpl11SetDelegateEPN9Scintilla8Internal16IListBoxDelegateE, symObjAddr: 0x6098, symBinAddr: 0xB72C, symSize: 0x8 }
  - { offset: 0x6BE77, size: 0x8, addend: 0x0, symName: __ZN12_GLOBAL__N_111ListBoxImpl7SetListEPKccc, symObjAddr: 0x60A0, symBinAddr: 0xB734, symSize: 0x164 }
  - { offset: 0x6C2E6, size: 0x8, addend: 0x0, symName: __ZNSt3__16vectorIcNS_9allocatorIcEEE16__init_with_sizeB8ne180100IPKcS6_EEvT_T0_m, symObjAddr: 0x661C, symBinAddr: 0xBCB0, symSize: 0x78 }
  - { offset: 0x6C6FA, size: 0x8, addend: 0x0, symName: __ZN12_GLOBAL__N_111ListBoxImpl10SetOptionsEN9Scintilla8Internal11ListOptionsE, symObjAddr: 0x6204, symBinAddr: 0xB898, symSize: 0x4 }
  - { offset: 0x6C725, size: 0x8, addend: 0x0, symName: __ZN12_GLOBAL__N_111ListBoxImpl4RowsEv, symObjAddr: 0x6208, symBinAddr: 0xB89C, symSize: 0x10 }
  - { offset: 0x6C749, size: 0x8, addend: 0x0, symName: __ZN12_GLOBAL__N_111ListBoxImpl4RowsEv, symObjAddr: 0x6208, symBinAddr: 0xB89C, symSize: 0x10 }
  - { offset: 0x6C768, size: 0x8, addend: 0x0, symName: __ZN12_GLOBAL__N_111ListBoxImpl4RowsEv, symObjAddr: 0x6208, symBinAddr: 0xB89C, symSize: 0x10 }
  - { offset: 0x6C7CA, size: 0x8, addend: 0x0, symName: __ZN12_GLOBAL__N_111ListBoxImpl11ImageForRowEl, symObjAddr: 0x6218, symBinAddr: 0xB8AC, symSize: 0x90 }
  - { offset: 0x6C865, size: 0x8, addend: 0x0, symName: __ZN12_GLOBAL__N_111ListBoxImpl10TextForRowEl, symObjAddr: 0x62A8, symBinAddr: 0xB93C, symSize: 0x6C }
  - { offset: 0x6C9EA, size: 0x8, addend: 0x0, symName: __ZN12_GLOBAL__N_111ListBoxImpl11DoubleClickEv, symObjAddr: 0x6314, symBinAddr: 0xB9A8, symSize: 0x38 }
  - { offset: 0x6CA82, size: 0x8, addend: 0x0, symName: __ZN12_GLOBAL__N_111ListBoxImpl15SelectionChangeEv, symObjAddr: 0x634C, symBinAddr: 0xB9E0, symSize: 0x34 }
  - { offset: 0x6CB31, size: 0x8, addend: 0x0, symName: __ZThn24_N12_GLOBAL__N_111ListBoxImpl4RowsEv, symObjAddr: 0x6380, symBinAddr: 0xBA14, symSize: 0x10 }
  - { offset: 0x6CB4C, size: 0x8, addend: 0x0, symName: __ZThn24_N12_GLOBAL__N_111ListBoxImpl4RowsEv, symObjAddr: 0x6380, symBinAddr: 0xBA14, symSize: 0x10 }
  - { offset: 0x6CB68, size: 0x8, addend: 0x0, symName: __ZThn24_N12_GLOBAL__N_111ListBoxImpl4RowsEv, symObjAddr: 0x6380, symBinAddr: 0xBA14, symSize: 0x10 }
  - { offset: 0x6CB87, size: 0x8, addend: 0x0, symName: __ZThn24_N12_GLOBAL__N_111ListBoxImpl4RowsEv, symObjAddr: 0x6380, symBinAddr: 0xBA14, symSize: 0x10 }
  - { offset: 0x6CBA7, size: 0x8, addend: 0x0, symName: __ZThn24_N12_GLOBAL__N_111ListBoxImpl11ImageForRowEl, symObjAddr: 0x6390, symBinAddr: 0xBA24, symSize: 0x8 }
  - { offset: 0x6CBD5, size: 0x8, addend: 0x0, symName: __ZThn24_N12_GLOBAL__N_111ListBoxImpl10TextForRowEl, symObjAddr: 0x6398, symBinAddr: 0xBA2C, symSize: 0x8 }
  - { offset: 0x6CC28, size: 0x8, addend: 0x0, symName: __ZThn24_N12_GLOBAL__N_111ListBoxImpl11DoubleClickEv, symObjAddr: 0x63A0, symBinAddr: 0xBA34, symSize: 0x38 }
  - { offset: 0x6CCF9, size: 0x8, addend: 0x0, symName: __ZThn24_N12_GLOBAL__N_111ListBoxImpl15SelectionChangeEv, symObjAddr: 0x63D8, symBinAddr: 0xBA6C, symSize: 0x34 }
  - { offset: 0x6CDFA, size: 0x8, addend: 0x0, symName: __ZN15QuartzTextStyleC2EPKS_, symObjAddr: 0x64E4, symBinAddr: 0xBB78, symSize: 0x74 }
  - { offset: 0x6CFB5, size: 0x8, addend: 0x0, symName: __ZNSt3__16vectorIcNS_9allocatorIcEEE11__vallocateB8ne180100Em, symObjAddr: 0x6694, symBinAddr: 0xBD28, symSize: 0x40 }
  - { offset: 0x6D089, size: 0x8, addend: 0x0, symName: __ZNKSt3__16vectorIcNS_9allocatorIcEEE20__throw_length_errorB8ne180100Ev, symObjAddr: 0x66D4, symBinAddr: 0xBD68, symSize: 0x14 }
  - { offset: 0x6D09B, size: 0x8, addend: 0x0, symName: __ZNKSt3__16vectorIcNS_9allocatorIcEEE20__throw_length_errorB8ne180100Ev, symObjAddr: 0x66D4, symBinAddr: 0xBD68, symSize: 0x14 }
  - { offset: 0x6F08C, size: 0x8, addend: 0x0, symName: _ScintillaRecPboardType, symObjAddr: 0x8150, symBinAddr: 0xAC088, symSize: 0x0 }
  - { offset: 0x774D4, size: 0x8, addend: 0x0, symName: __ZN9Scintilla8Internal16CGContextCurrentEv, symObjAddr: 0xDB4, symBinAddr: 0xCB20, symSize: 0x5C }
  - { offset: 0x77E3E, size: 0x8, addend: 0x0, symName: __ZL13macMapDefault, symObjAddr: 0x7B80, symBinAddr: 0x8EEF8, symSize: 0x0 }
  - { offset: 0x898A1, size: 0x8, addend: 0x0, symName: '-[FindHighlightLayer init]', symObjAddr: 0x0, symBinAddr: 0xBD7C, symSize: 0x1C8 }
  - { offset: 0x899B1, size: 0x8, addend: 0x0, symName: '-[FindHighlightLayer drawInContext:]', symObjAddr: 0x1C8, symBinAddr: 0xBF44, symSize: 0x14C }
  - { offset: 0x89C84, size: 0x8, addend: 0x0, symName: '-[FindHighlightLayer animateMatch:bounce:]', symObjAddr: 0x314, symBinAddr: 0xC090, symSize: 0x4FC }
  - { offset: 0x89D45, size: 0x8, addend: 0x0, symName: '-[FindHighlightLayer hideMatch]', symObjAddr: 0x810, symBinAddr: 0xC58C, symSize: 0x3C }
  - { offset: 0x89D77, size: 0x8, addend: 0x0, symName: '-[FindHighlightLayer sFind]', symObjAddr: 0x84C, symBinAddr: 0xC5C8, symSize: 0x10 }
  - { offset: 0x89DAC, size: 0x8, addend: 0x0, symName: '-[FindHighlightLayer setSFind:]', symObjAddr: 0x85C, symBinAddr: 0xC5D8, symSize: 0xC }
  - { offset: 0x89DE9, size: 0x8, addend: 0x0, symName: '-[FindHighlightLayer positionFind]', symObjAddr: 0x868, symBinAddr: 0xC5E4, symSize: 0x10 }
  - { offset: 0x89E1E, size: 0x8, addend: 0x0, symName: '-[FindHighlightLayer setPositionFind:]', symObjAddr: 0x878, symBinAddr: 0xC5F4, symSize: 0x10 }
  - { offset: 0x89E59, size: 0x8, addend: 0x0, symName: '-[FindHighlightLayer retaining]', symObjAddr: 0x888, symBinAddr: 0xC604, symSize: 0x14 }
  - { offset: 0x89E8E, size: 0x8, addend: 0x0, symName: '-[FindHighlightLayer setRetaining:]', symObjAddr: 0x89C, symBinAddr: 0xC618, symSize: 0x10 }
  - { offset: 0x89EC9, size: 0x8, addend: 0x0, symName: '-[FindHighlightLayer widthText]', symObjAddr: 0x8AC, symBinAddr: 0xC628, symSize: 0x10 }
  - { offset: 0x89EFC, size: 0x8, addend: 0x0, symName: '-[FindHighlightLayer setWidthText:]', symObjAddr: 0x8BC, symBinAddr: 0xC638, symSize: 0x10 }
  - { offset: 0x89F38, size: 0x8, addend: 0x0, symName: '-[FindHighlightLayer heightLine]', symObjAddr: 0x8CC, symBinAddr: 0xC648, symSize: 0x10 }
  - { offset: 0x89F6B, size: 0x8, addend: 0x0, symName: '-[FindHighlightLayer setHeightLine:]', symObjAddr: 0x8DC, symBinAddr: 0xC658, symSize: 0x10 }
  - { offset: 0x89FA7, size: 0x8, addend: 0x0, symName: '-[FindHighlightLayer sFont]', symObjAddr: 0x8EC, symBinAddr: 0xC668, symSize: 0x10 }
  - { offset: 0x89FDC, size: 0x8, addend: 0x0, symName: '-[FindHighlightLayer setSFont:]', symObjAddr: 0x8FC, symBinAddr: 0xC678, symSize: 0xC }
  - { offset: 0x8A019, size: 0x8, addend: 0x0, symName: '-[FindHighlightLayer fontSize]', symObjAddr: 0x908, symBinAddr: 0xC684, symSize: 0x10 }
  - { offset: 0x8A04C, size: 0x8, addend: 0x0, symName: '-[FindHighlightLayer setFontSize:]', symObjAddr: 0x918, symBinAddr: 0xC694, symSize: 0x10 }
  - { offset: 0x8A088, size: 0x8, addend: 0x0, symName: '-[FindHighlightLayer .cxx_destruct]', symObjAddr: 0x928, symBinAddr: 0xC6A4, symSize: 0x40 }
  - { offset: 0x8A0B9, size: 0x8, addend: 0x0, symName: '-[TimerTarget init:]', symObjAddr: 0x968, symBinAddr: 0xC6E4, symSize: 0xE0 }
  - { offset: 0x8A11F, size: 0x8, addend: 0x0, symName: '-[TimerTarget dealloc]', symObjAddr: 0xA48, symBinAddr: 0xC7C4, symSize: 0xA8 }
  - { offset: 0x8A162, size: 0x8, addend: 0x0, symName: '-[TimerTarget ownerDestroyed]', symObjAddr: 0xB00, symBinAddr: 0xC86C, symSize: 0x10 }
  - { offset: 0x8A1C6, size: 0x8, addend: 0x0, symName: '-[TimerTarget timerFired:]', symObjAddr: 0xB10, symBinAddr: 0xC87C, symSize: 0x84 }
  - { offset: 0x8A24E, size: 0x8, addend: 0x0, symName: __ZN9Scintilla8Internal14ScintillaCocoa10TimerFiredEP7NSTimer, symObjAddr: 0xB94, symBinAddr: 0xC900, symSize: 0x5C }
  - { offset: 0x8A2A8, size: 0x8, addend: 0x0, symName: '-[TimerTarget idleTimerFired:]', symObjAddr: 0xBF0, symBinAddr: 0xC95C, symSize: 0x110 }
  - { offset: 0x8A31B, size: 0x8, addend: 0x0, symName: '-[TimerTarget idleTriggered:]', symObjAddr: 0xD00, symBinAddr: 0xCA6C, symSize: 0x68 }
  - { offset: 0x8A39D, size: 0x8, addend: 0x0, symName: __ZN9Scintilla8Internal14ScintillaCocoa14IdleTimerFiredEv, symObjAddr: 0xD68, symBinAddr: 0xCAD4, symSize: 0x40 }
  - { offset: 0x8A3DB, size: 0x8, addend: 0x0, symName: '-[TimerTarget .cxx_destruct]', symObjAddr: 0xDA8, symBinAddr: 0xCB14, symSize: 0xC }
  - { offset: 0x8A4A4, size: 0x8, addend: 0x0, symName: __ZN9Scintilla8Internal14ScintillaCocoaC2EP13ScintillaViewP14SCIContentViewP13SCIMarginView, symObjAddr: 0xE10, symBinAddr: 0xCB7C, symSize: 0x220 }
  - { offset: 0x8A64D, size: 0x8, addend: 0x0, symName: __ZN9Scintilla8Internal14ScintillaCocoa4InitEv, symObjAddr: 0x1030, symBinAddr: 0xCD9C, symSize: 0x8C }
  - { offset: 0x8A6E1, size: 0x8, addend: 0x0, symName: __ZN9Scintilla8Internal14ScintillaCocoaC1EP13ScintillaViewP14SCIContentViewP13SCIMarginView, symObjAddr: 0x10BC, symBinAddr: 0xCE28, symSize: 0x4 }
  - { offset: 0x8A73C, size: 0x8, addend: 0x0, symName: __ZN9Scintilla8Internal14ScintillaCocoaC1EP13ScintillaViewP14SCIContentViewP13SCIMarginView, symObjAddr: 0x10BC, symBinAddr: 0xCE28, symSize: 0x4 }
  - { offset: 0x8A764, size: 0x8, addend: 0x0, symName: __ZN9Scintilla8Internal14ScintillaCocoaD2Ev, symObjAddr: 0x10C0, symBinAddr: 0xCE2C, symSize: 0x88 }
  - { offset: 0x8A790, size: 0x8, addend: 0x0, symName: __ZN9Scintilla8Internal14ScintillaCocoaD1Ev, symObjAddr: 0x1148, symBinAddr: 0xCEB4, symSize: 0x4 }
  - { offset: 0x8A7B3, size: 0x8, addend: 0x0, symName: __ZN9Scintilla8Internal14ScintillaCocoaD1Ev, symObjAddr: 0x1148, symBinAddr: 0xCEB4, symSize: 0x4 }
  - { offset: 0x8A7E2, size: 0x8, addend: 0x0, symName: __ZThn296_N9Scintilla8Internal14ScintillaCocoaD1Ev, symObjAddr: 0x114C, symBinAddr: 0xCEB8, symSize: 0x8 }
  - { offset: 0x8A824, size: 0x8, addend: 0x0, symName: __ZN9Scintilla8Internal14ScintillaCocoaD0Ev, symObjAddr: 0x1154, symBinAddr: 0xCEC0, symSize: 0x14 }
  - { offset: 0x8A892, size: 0x8, addend: 0x0, symName: __ZThn296_N9Scintilla8Internal14ScintillaCocoaD0Ev, symObjAddr: 0x1168, symBinAddr: 0xCED4, symSize: 0x18 }
  - { offset: 0x8A8F0, size: 0x8, addend: 0x0, symName: __ZN9Scintilla8Internal14ScintillaCocoa8FinaliseEv, symObjAddr: 0x1180, symBinAddr: 0xCEEC, symSize: 0x48 }
  - { offset: 0x8A964, size: 0x8, addend: 0x0, symName: __ZN9Scintilla8Internal14ScintillaCocoa14ObserverRemoveEv, symObjAddr: 0x11C8, symBinAddr: 0xCF34, symSize: 0x48 }
  - { offset: 0x8AA17, size: 0x8, addend: 0x0, symName: __ZN9Scintilla8Internal14ScintillaCocoa14UpdateObserverEP19__CFRunLoopObservermPv, symObjAddr: 0x1210, symBinAddr: 0xCF7C, symSize: 0x10 }
  - { offset: 0x8AA75, size: 0x8, addend: 0x0, symName: __ZN9Scintilla8Internal14ScintillaCocoa11ObserverAddEv, symObjAddr: 0x1220, symBinAddr: 0xCF8C, symSize: 0x7C }
  - { offset: 0x8ABEC, size: 0x8, addend: 0x0, symName: __ZN9Scintilla8Internal14ScintillaCocoa8IdleWorkEv, symObjAddr: 0x129C, symBinAddr: 0xD008, symSize: 0x24 }
  - { offset: 0x8AC23, size: 0x8, addend: 0x0, symName: __ZN9Scintilla8Internal14ScintillaCocoa13QueueIdleWorkENS0_9WorkItemsEl, symObjAddr: 0x12C0, symBinAddr: 0xD02C, symSize: 0x24 }
  - { offset: 0x8AED1, size: 0x8, addend: 0x0, symName: __ZN9Scintilla8Internal14ScintillaCocoa21CaseFolderForEncodingEv, symObjAddr: 0x12E4, symBinAddr: 0xD050, symSize: 0x21C }
  - { offset: 0x8B44B, size: 0x8, addend: 0x0, symName: __ZL18EncodedBytesStringPK10__CFStringj, symObjAddr: 0x1500, symBinAddr: 0xD26C, symSize: 0xD0 }
  - { offset: 0x8B77D, size: 0x8, addend: 0x0, symName: __ZNSt3__112basic_stringIcNS_11char_traitsIcEENS_9allocatorIcEEEC2B8ne180100Emc, symObjAddr: 0x6B60, symBinAddr: 0x12844, symSize: 0xA8 }
  - { offset: 0x8B9BF, size: 0x8, addend: 0x0, symName: __ZN14CaseFolderDBCSD1Ev, symObjAddr: 0x6C08, symBinAddr: 0x128EC, symSize: 0x4 }
  - { offset: 0x8BA8B, size: 0x8, addend: 0x0, symName: __ZN9Scintilla8Internal14ScintillaCocoa13CaseMapStringERKNSt3__112basic_stringIcNS2_11char_traitsIcEENS2_9allocatorIcEEEENS0_6Editor11CaseMappingE, symObjAddr: 0x15D0, symBinAddr: 0xD33C, symSize: 0x224 }
  - { offset: 0x8C177, size: 0x8, addend: 0x0, symName: __ZNSt3__112basic_stringIcNS_11char_traitsIcEENS_9allocatorIcEEE25__init_copy_ctor_externalEPKcm, symObjAddr: 0x6D90, symBinAddr: 0x12A74, symSize: 0x8C }
  - { offset: 0x8C4E2, size: 0x8, addend: 0x0, symName: __ZNSt3__16vectorIhNS_9allocatorIhEEEC2Em, symObjAddr: 0x6E1C, symBinAddr: 0x12B00, symSize: 0x70 }
  - { offset: 0x8C50C, size: 0x8, addend: 0x0, symName: __ZN9Scintilla8Internal14ScintillaCocoa11CancelModesEv, symObjAddr: 0x17F4, symBinAddr: 0xD560, symSize: 0x34 }
  - { offset: 0x8C553, size: 0x8, addend: 0x0, symName: __ZN9Scintilla8Internal14ScintillaCocoa17HideFindIndicatorEv, symObjAddr: 0x1828, symBinAddr: 0xD594, symSize: 0x10 }
  - { offset: 0x8C589, size: 0x8, addend: 0x0, symName: __ZNK9Scintilla8Internal14ScintillaCocoa15ScrollContainerEv, symObjAddr: 0x1838, symBinAddr: 0xD5A4, symSize: 0x5C }
  - { offset: 0x8C5E3, size: 0x8, addend: 0x0, symName: __ZN9Scintilla8Internal14ScintillaCocoa11ContentViewEv, symObjAddr: 0x1894, symBinAddr: 0xD600, symSize: 0x8 }
  - { offset: 0x8C60E, size: 0x8, addend: 0x0, symName: __ZN9Scintilla8Internal14ScintillaCocoa11ContentViewEv, symObjAddr: 0x1894, symBinAddr: 0xD600, symSize: 0x8 }
  - { offset: 0x8C62B, size: 0x8, addend: 0x0, symName: __ZNK9Scintilla8Internal14ScintillaCocoa22GetVisibleOriginInMainEv, symObjAddr: 0x189C, symBinAddr: 0xD608, symSize: 0x90 }
  - { offset: 0x8C68B, size: 0x8, addend: 0x0, symName: __ZNK9Scintilla8Internal14ScintillaCocoa10ClientSizeEv, symObjAddr: 0x192C, symBinAddr: 0xD698, symSize: 0xC }
  - { offset: 0x8C6B2, size: 0x8, addend: 0x0, symName: __ZNK9Scintilla8Internal14ScintillaCocoa18GetClientRectangleEv, symObjAddr: 0x1938, symBinAddr: 0xD6A4, symSize: 0xC0 }
  - { offset: 0x8C734, size: 0x8, addend: 0x0, symName: __ZN9Scintilla8Internal14ScintillaCocoa25GetClientDrawingRectangleEv, symObjAddr: 0x19F8, symBinAddr: 0xD764, symSize: 0xC0 }
  - { offset: 0x8C7E0, size: 0x8, addend: 0x0, symName: __ZN9Scintilla8Internal14ScintillaCocoa12ConvertPointE7CGPoint, symObjAddr: 0x1AB8, symBinAddr: 0xD824, symSize: 0x94 }
  - { offset: 0x8C89D, size: 0x8, addend: 0x0, symName: __ZN9Scintilla8Internal14ScintillaCocoa10RedrawRectENS0_10PRectangleE, symObjAddr: 0x1B4C, symBinAddr: 0xD8B8, symSize: 0x24 }
  - { offset: 0x8C8D9, size: 0x8, addend: 0x0, symName: __ZN9Scintilla8Internal14ScintillaCocoa10RedrawRectENS0_10PRectangleE, symObjAddr: 0x1B4C, symBinAddr: 0xD8B8, symSize: 0x24 }
  - { offset: 0x8C8EE, size: 0x8, addend: 0x0, symName: __ZN9Scintilla8Internal14ScintillaCocoa10RedrawRectENS0_10PRectangleE, symObjAddr: 0x1B4C, symBinAddr: 0xD8B8, symSize: 0x24 }
  - { offset: 0x8C901, size: 0x8, addend: 0x0, symName: __ZN9Scintilla8Internal14ScintillaCocoa15DiscardOverdrawEv, symObjAddr: 0x1B70, symBinAddr: 0xD8DC, symSize: 0x60 }
  - { offset: 0x8C950, size: 0x8, addend: 0x0, symName: __ZN9Scintilla8Internal14ScintillaCocoa6RedrawEv, symObjAddr: 0x1BD0, symBinAddr: 0xD93C, symSize: 0x38 }
  - { offset: 0x8C98C, size: 0x8, addend: 0x0, symName: __ZN9Scintilla8Internal14ScintillaCocoa14DirectFunctionEljml, symObjAddr: 0x1C08, symBinAddr: 0xD974, symSize: 0xC }
  - { offset: 0x8CA1C, size: 0x8, addend: 0x0, symName: __ZN9Scintilla8Internal14ScintillaCocoa20DirectStatusFunctionEljmlPi, symObjAddr: 0x1C14, symBinAddr: 0xD980, symSize: 0x34 }
  - { offset: 0x8CAD8, size: 0x8, addend: 0x0, symName: __Z22scintilla_send_messagePvjml, symObjAddr: 0x1C48, symBinAddr: 0xD9B4, symSize: 0x10 }
  - { offset: 0x8CB7C, size: 0x8, addend: 0x0, symName: __ZN12_GLOBAL__N_117ColourFromNSColorEP7NSColor, symObjAddr: 0x694C, symBinAddr: 0x126B8, symSize: 0xAC }
  - { offset: 0x8CBE4, size: 0x8, addend: 0x0, symName: __ZN9Scintilla8Internal14ScintillaCocoa7WndProcENS_7MessageEml, symObjAddr: 0x1C58, symBinAddr: 0xD9C4, symSize: 0x2B4 }
  - { offset: 0x8CD2B, size: 0x8, addend: 0x0, symName: __ZNK9Scintilla8Internal14ScintillaCocoa12TargetAsUTF8EPc, symObjAddr: 0x1F0C, symBinAddr: 0xDC78, symSize: 0x178 }
  - { offset: 0x8D4D0, size: 0x8, addend: 0x0, symName: __ZN9Scintilla8Internal14ScintillaCocoa25ShowFindIndicatorForRangeE8_NSRangeb, symObjAddr: 0x21A4, symBinAddr: 0xDF10, symSize: 0x3A4 }
  - { offset: 0x8DD6E, size: 0x8, addend: 0x0, symName: __ZNK9Scintilla8Internal14ScintillaCocoa15EncodedFromUTF8EPKcPc, symObjAddr: 0x2084, symBinAddr: 0xDDF0, symSize: 0x120 }
  - { offset: 0x8E315, size: 0x8, addend: 0x0, symName: __ZNSt3__16vectorIcNS_9allocatorIcEEEC2Em, symObjAddr: 0x6EE0, symBinAddr: 0x12BC4, symSize: 0x70 }
  - { offset: 0x8E58A, size: 0x8, addend: 0x0, symName: __ZN9Scintilla8Internal14ScintillaCocoa27MoveFindIndicatorWithBounceEb, symObjAddr: 0x524C, symBinAddr: 0x10FB8, symSize: 0x124 }
  - { offset: 0x8E64C, size: 0x8, addend: 0x0, symName: __ZN9Scintilla8Internal14ScintillaCocoa10DefWndProcENS_7MessageEml, symObjAddr: 0x2548, symBinAddr: 0xE2B4, symSize: 0x8 }
  - { offset: 0x8E68D, size: 0x8, addend: 0x0, symName: __ZN9Scintilla8Internal14ScintillaCocoa7TickForENS0_6Editor10TickReasonE, symObjAddr: 0x2550, symBinAddr: 0xE2BC, symSize: 0x10 }
  - { offset: 0x8E6D1, size: 0x8, addend: 0x0, symName: __ZN9Scintilla8Internal14ScintillaCocoa10DragScrollEv, symObjAddr: 0x2560, symBinAddr: 0xE2CC, symSize: 0x108 }
  - { offset: 0x8E7F0, size: 0x8, addend: 0x0, symName: __ZN9Scintilla8Internal14ScintillaCocoa17FineTickerRunningENS0_6Editor10TickReasonE, symObjAddr: 0x2668, symBinAddr: 0xE3D4, symSize: 0x14 }
  - { offset: 0x8E828, size: 0x8, addend: 0x0, symName: __ZN9Scintilla8Internal14ScintillaCocoa15FineTickerStartENS0_6Editor10TickReasonEii, symObjAddr: 0x267C, symBinAddr: 0xE3E8, symSize: 0x148 }
  - { offset: 0x8E8B0, size: 0x8, addend: 0x0, symName: __ZN9Scintilla8Internal14ScintillaCocoa16FineTickerCancelENS0_6Editor10TickReasonE, symObjAddr: 0x27C4, symBinAddr: 0xE530, symSize: 0x40 }
  - { offset: 0x8E8F6, size: 0x8, addend: 0x0, symName: __ZN9Scintilla8Internal14ScintillaCocoa7SetIdleEb, symObjAddr: 0x2804, symBinAddr: 0xE570, symSize: 0xE8 }
  - { offset: 0x8E947, size: 0x8, addend: 0x0, symName: __ZN9Scintilla8Internal14ScintillaCocoa15CopyToClipboardERKNS0_13SelectionTextE, symObjAddr: 0x28EC, symBinAddr: 0xE658, symSize: 0x58 }
  - { offset: 0x8E995, size: 0x8, addend: 0x0, symName: __ZN9Scintilla8Internal14ScintillaCocoa17SetPasteboardDataEP12NSPasteboardRKNS0_13SelectionTextE, symObjAddr: 0x2944, symBinAddr: 0xE6B0, symSize: 0x1BC }
  - { offset: 0x8EC01, size: 0x8, addend: 0x0, symName: __ZN9Scintilla8Internal14ScintillaCocoa4CopyEv, symObjAddr: 0x2B00, symBinAddr: 0xE86C, symSize: 0x90 }
  - { offset: 0x8EF5E, size: 0x8, addend: 0x0, symName: __ZN9Scintilla8Internal14ScintillaCocoa8CanPasteEv, symObjAddr: 0x2B90, symBinAddr: 0xE8FC, symSize: 0x78 }
  - { offset: 0x8EFA6, size: 0x8, addend: 0x0, symName: __ZN9Scintilla8Internal14ScintillaCocoa17GetPasteboardDataEP12NSPasteboardPNS0_13SelectionTextE, symObjAddr: 0x2C08, symBinAddr: 0xE974, symSize: 0x28C }
  - { offset: 0x8F864, size: 0x8, addend: 0x0, symName: __ZNSt3__16vectorIhNS_9allocatorIhEEEC2Em, symObjAddr: 0x6E1C, symBinAddr: 0x12B00, symSize: 0x70 }
  - { offset: 0x8FAD9, size: 0x8, addend: 0x0, symName: __ZNSt3__112basic_stringIcNS_11char_traitsIcEENS_9allocatorIcEEEC2B8ne180100EPKcm, symObjAddr: 0x6A30, symBinAddr: 0x1279C, symSize: 0xA8 }
  - { offset: 0x8FE57, size: 0x8, addend: 0x0, symName: __ZN9Scintilla8Internal13SelectionText4CopyERKNSt3__112basic_stringIcNS2_11char_traitsIcEENS2_9allocatorIcEEEEiNS_12CharacterSetEbb, symObjAddr: 0x4978, symBinAddr: 0x106E4, symSize: 0x84 }
  - { offset: 0x8FFC9, size: 0x8, addend: 0x0, symName: __ZN9Scintilla8Internal14ScintillaCocoa5PasteEv, symObjAddr: 0x2E94, symBinAddr: 0xEC00, symSize: 0x8 }
  - { offset: 0x9000B, size: 0x8, addend: 0x0, symName: __ZN9Scintilla8Internal14ScintillaCocoa5PasteEb, symObjAddr: 0x2E9C, symBinAddr: 0xEC08, symSize: 0x148 }
  - { offset: 0x905F8, size: 0x8, addend: 0x0, symName: __ZN9Scintilla8Internal14ScintillaCocoa7CTPaintEPv6CGRect, symObjAddr: 0x2FE4, symBinAddr: 0xED50, symSize: 0xC4 }
  - { offset: 0x90856, size: 0x8, addend: 0x0, symName: '-[CallTipView initWithFrame:]', symObjAddr: 0x30A8, symBinAddr: 0xEE14, symSize: 0x44 }
  - { offset: 0x90898, size: 0x8, addend: 0x0, symName: '-[CallTipView isFlipped]', symObjAddr: 0x30EC, symBinAddr: 0xEE58, symSize: 0x8 }
  - { offset: 0x908CA, size: 0x8, addend: 0x0, symName: '-[CallTipView setSci:]', symObjAddr: 0x30F4, symBinAddr: 0xEE60, symSize: 0x10 }
  - { offset: 0x90909, size: 0x8, addend: 0x0, symName: '-[CallTipView drawRect:]', symObjAddr: 0x3104, symBinAddr: 0xEE70, symSize: 0x44 }
  - { offset: 0x909BD, size: 0x8, addend: 0x0, symName: '-[CallTipView mouseDown:]', symObjAddr: 0x3148, symBinAddr: 0xEEB4, symSize: 0x88 }
  - { offset: 0x90A5A, size: 0x8, addend: 0x0, symName: __ZN9Scintilla8Internal14ScintillaCocoa16CallTipMouseDownE7CGPoint, symObjAddr: 0x31D0, symBinAddr: 0xEF3C, symSize: 0x4C }
  - { offset: 0x90AB9, size: 0x8, addend: 0x0, symName: '-[CallTipView resetCursorRects]', symObjAddr: 0x321C, symBinAddr: 0xEF88, symSize: 0x4 }
  - { offset: 0x90B52, size: 0x8, addend: 0x0, symName: __ZN9Scintilla8Internal14ScintillaCocoa19CreateCallTipWindowENS0_10PRectangleE, symObjAddr: 0x3220, symBinAddr: 0xEF8C, symSize: 0x190 }
  - { offset: 0x90CDD, size: 0x8, addend: 0x0, symName: __ZN9Scintilla8Internal14ScintillaCocoa10AddToPopUpEPKcib, symObjAddr: 0x33B0, symBinAddr: 0xF11C, symSize: 0x14C }
  - { offset: 0x90D76, size: 0x8, addend: 0x0, symName: __ZN9Scintilla8Internal14ScintillaCocoa14ClaimSelectionEv, symObjAddr: 0x34FC, symBinAddr: 0xF268, symSize: 0x4 }
  - { offset: 0x90D9B, size: 0x8, addend: 0x0, symName: __ZN9Scintilla8Internal14ScintillaCocoa16GetCaretPositionEv, symObjAddr: 0x3500, symBinAddr: 0xF26C, symSize: 0x84 }
  - { offset: 0x91065, size: 0x8, addend: 0x0, symName: __ZNK9Scintilla8Internal14ScintillaCocoa15UTF8FromEncodedENSt3__117basic_string_viewIcNS2_11char_traitsIcEEEE, symObjAddr: 0x3584, symBinAddr: 0xF2F0, symSize: 0x118 }
  - { offset: 0x91623, size: 0x8, addend: 0x0, symName: __ZNK9Scintilla8Internal14ScintillaCocoa15EncodedFromUTF8ENSt3__117basic_string_viewIcNS2_11char_traitsIcEEEE, symObjAddr: 0x369C, symBinAddr: 0xF408, symSize: 0x11C }
  - { offset: 0x91BE5, size: 0x8, addend: 0x0, symName: '-[DragProviderSource initWithSelectedText:]', symObjAddr: 0x37B8, symBinAddr: 0xF524, symSize: 0x88 }
  - { offset: 0x91C7E, size: 0x8, addend: 0x0, symName: '-[DragProviderSource pasteboard:item:provideDataForType:]', symObjAddr: 0x3840, symBinAddr: 0xF5AC, symSize: 0x178 }
  - { offset: 0x91E56, size: 0x8, addend: 0x0, symName: '-[DragProviderSource .cxx_destruct]', symObjAddr: 0x39B8, symBinAddr: 0xF724, symSize: 0x14 }
  - { offset: 0x91EE2, size: 0x8, addend: 0x0, symName: '-[DragProviderSource .cxx_destruct]', symObjAddr: 0x39B8, symBinAddr: 0xF724, symSize: 0x14 }
  - { offset: 0x91FB8, size: 0x8, addend: 0x0, symName: '-[DragProviderSource .cxx_construct]', symObjAddr: 0x39CC, symBinAddr: 0xF738, symSize: 0x14 }
  - { offset: 0x91FEE, size: 0x8, addend: 0x0, symName: '-[DragProviderSource .cxx_construct]', symObjAddr: 0x39CC, symBinAddr: 0xF738, symSize: 0x14 }
  - { offset: 0x9200C, size: 0x8, addend: 0x0, symName: '-[DragProviderSource .cxx_construct]', symObjAddr: 0x39CC, symBinAddr: 0xF738, symSize: 0x14 }
  - { offset: 0x921E1, size: 0x8, addend: 0x0, symName: __ZN9Scintilla8Internal14ScintillaCocoa9StartDragEv, symObjAddr: 0x39E0, symBinAddr: 0xF74C, symSize: 0x9E8 }
  - { offset: 0x92E72, size: 0x8, addend: 0x0, symName: __ZN9Scintilla8Internal14ScintillaCocoa15DraggingEnteredEPU25objcproto14NSDraggingInfo11objc_object, symObjAddr: 0x43C8, symBinAddr: 0x10134, symSize: 0x74 }
  - { offset: 0x92EE9, size: 0x8, addend: 0x0, symName: __ZN9Scintilla8Internal14ScintillaCocoa15DraggingUpdatedEPU25objcproto14NSDraggingInfo11objc_object, symObjAddr: 0x443C, symBinAddr: 0x101A8, symSize: 0x1AC }
  - { offset: 0x92F6A, size: 0x8, addend: 0x0, symName: __ZN9Scintilla8Internal14ScintillaCocoa14DraggingExitedEPU25objcproto14NSDraggingInfo11objc_object, symObjAddr: 0x45E8, symBinAddr: 0x10354, symSize: 0x40 }
  - { offset: 0x92FEC, size: 0x8, addend: 0x0, symName: __ZN9Scintilla8Internal14ScintillaCocoa20PerformDragOperationEPU25objcproto14NSDraggingInfo11objc_object, symObjAddr: 0x4628, symBinAddr: 0x10394, symSize: 0x31C }
  - { offset: 0x9353A, size: 0x8, addend: 0x0, symName: __ZN9Scintilla8Internal14ScintillaCocoa16NotifyURIDroppedEPKc, symObjAddr: 0x4944, symBinAddr: 0x106B0, symSize: 0x34 }
  - { offset: 0x93600, size: 0x8, addend: 0x0, symName: __ZNK9Scintilla8Internal14ScintillaCocoa17RangeTextAsStringE8_NSRange, symObjAddr: 0x49FC, symBinAddr: 0x10768, symSize: 0xF0 }
  - { offset: 0x93A77, size: 0x8, addend: 0x0, symName: __ZN9Scintilla8Internal14ScintillaCocoa19RangeForVisibleLineEl, symObjAddr: 0x4AEC, symBinAddr: 0x10858, symSize: 0x38 }
  - { offset: 0x93AFC, size: 0x8, addend: 0x0, symName: __ZNK9Scintilla8Internal14ScintillaCocoa23CharactersFromPositionsE8_NSRange, symObjAddr: 0x4B24, symBinAddr: 0x10890, symSize: 0x58 }
  - { offset: 0x93B77, size: 0x8, addend: 0x0, symName: __ZN9Scintilla8Internal14ScintillaCocoa19VisibleLineForIndexEl, symObjAddr: 0x4B7C, symBinAddr: 0x108E8, symSize: 0x2C }
  - { offset: 0x93BEF, size: 0x8, addend: 0x0, symName: __ZNK9Scintilla8Internal14ScintillaCocoa23PositionsFromCharactersE8_NSRange, symObjAddr: 0x4BA8, symBinAddr: 0x10914, symSize: 0x88 }
  - { offset: 0x93C63, size: 0x8, addend: 0x0, symName: __ZN9Scintilla8Internal14ScintillaCocoa13FrameForRangeE8_NSRange, symObjAddr: 0x4C30, symBinAddr: 0x1099C, symSize: 0xC4 }
  - { offset: 0x93D45, size: 0x8, addend: 0x0, symName: __ZNK9Scintilla8Internal14ScintillaCocoa9GetBoundsEv, symObjAddr: 0x4CF4, symBinAddr: 0x10A60, symSize: 0x34 }
  - { offset: 0x93D96, size: 0x8, addend: 0x0, symName: __ZN9Scintilla8Internal14ScintillaCocoa15SetMouseCaptureEb, symObjAddr: 0x4D28, symBinAddr: 0x10A94, symSize: 0x8 }
  - { offset: 0x93DC9, size: 0x8, addend: 0x0, symName: __ZN9Scintilla8Internal14ScintillaCocoa16HaveMouseCaptureEv, symObjAddr: 0x4D30, symBinAddr: 0x10A9C, symSize: 0x8 }
  - { offset: 0x93E11, size: 0x8, addend: 0x0, symName: __ZN9Scintilla8Internal14ScintillaCocoa9SyncPaintEPvNS0_10PRectangleE, symObjAddr: 0x4D38, symBinAddr: 0x10AA4, symSize: 0x194 }
  - { offset: 0x94148, size: 0x8, addend: 0x0, symName: __ZN9Scintilla8Internal14ScintillaCocoa11PaintMarginE6CGRect, symObjAddr: 0x4ECC, symBinAddr: 0x10C38, symSize: 0x118 }
  - { offset: 0x94407, size: 0x8, addend: 0x0, symName: __ZN9Scintilla8Internal14ScintillaCocoa8WillDrawE6CGRect, symObjAddr: 0x4FE4, symBinAddr: 0x10D50, symSize: 0xE8 }
  - { offset: 0x944B9, size: 0x8, addend: 0x0, symName: __ZN9Scintilla8Internal14ScintillaCocoa10ScrollTextEl, symObjAddr: 0x50CC, symBinAddr: 0x10E38, symSize: 0x4 }
  - { offset: 0x944E6, size: 0x8, addend: 0x0, symName: __ZN9Scintilla8Internal14ScintillaCocoa20SetVerticalScrollPosEv, symObjAddr: 0x50D0, symBinAddr: 0x10E3C, symSize: 0xA4 }
  - { offset: 0x94560, size: 0x8, addend: 0x0, symName: __ZN9Scintilla8Internal14ScintillaCocoa22SetHorizontalScrollPosEv, symObjAddr: 0x5174, symBinAddr: 0x10EE0, symSize: 0xD8 }
  - { offset: 0x9462F, size: 0x8, addend: 0x0, symName: __ZN9Scintilla8Internal14ScintillaCocoa16ModifyScrollBarsEll, symObjAddr: 0x5370, symBinAddr: 0x110DC, symSize: 0x4 }
  - { offset: 0x94671, size: 0x8, addend: 0x0, symName: __ZN9Scintilla8Internal14ScintillaCocoa16ModifyScrollBarsEll, symObjAddr: 0x5370, symBinAddr: 0x110DC, symSize: 0x4 }
  - { offset: 0x94684, size: 0x8, addend: 0x0, symName: __ZN9Scintilla8Internal14ScintillaCocoa16SetScrollingSizeEv, symObjAddr: 0x5374, symBinAddr: 0x110E0, symSize: 0x20C }
  - { offset: 0x94807, size: 0x8, addend: 0x0, symName: __ZN9Scintilla8Internal14ScintillaCocoa6ResizeEv, symObjAddr: 0x5580, symBinAddr: 0x112EC, symSize: 0x44 }
  - { offset: 0x94895, size: 0x8, addend: 0x0, symName: __ZN9Scintilla8Internal14ScintillaCocoa15UpdateForScrollEv, symObjAddr: 0x55C4, symBinAddr: 0x11330, symSize: 0x54 }
  - { offset: 0x948F4, size: 0x8, addend: 0x0, symName: __ZN9Scintilla8Internal14ScintillaCocoa11SetDelegateEPU40objcproto29ScintillaNotificationProtocol11objc_object, symObjAddr: 0x5618, symBinAddr: 0x11384, symSize: 0x8 }
  - { offset: 0x9492C, size: 0x8, addend: 0x0, symName: __ZN9Scintilla8Internal14ScintillaCocoa22RegisterNotifyCallbackElPFvljmmE, symObjAddr: 0x5620, symBinAddr: 0x1138C, symSize: 0xC }
  - { offset: 0x94971, size: 0x8, addend: 0x0, symName: __ZN9Scintilla8Internal14ScintillaCocoa12NotifyChangeEv, symObjAddr: 0x562C, symBinAddr: 0x11398, symSize: 0x70 }
  - { offset: 0x949E8, size: 0x8, addend: 0x0, symName: __ZN9Scintilla8Internal14ScintillaCocoa11NotifyFocusEb, symObjAddr: 0x569C, symBinAddr: 0x11408, symSize: 0x80 }
  - { offset: 0x94A74, size: 0x8, addend: 0x0, symName: __ZN9Scintilla8Internal14ScintillaCocoa12NotifyParentENS_16NotificationDataE, symObjAddr: 0x571C, symBinAddr: 0x11488, symSize: 0x128 }
  - { offset: 0x94B6E, size: 0x8, addend: 0x0, symName: __ZN9Scintilla8Internal14ScintillaCocoa12HasSelectionEv, symObjAddr: 0x5844, symBinAddr: 0x115B0, symSize: 0x1C }
  - { offset: 0x94BAB, size: 0x8, addend: 0x0, symName: __ZN9Scintilla8Internal14ScintillaCocoa7CanUndoEv, symObjAddr: 0x5860, symBinAddr: 0x115CC, symSize: 0xC }
  - { offset: 0x94C05, size: 0x8, addend: 0x0, symName: __ZN9Scintilla8Internal14ScintillaCocoa7CanRedoEv, symObjAddr: 0x586C, symBinAddr: 0x115D8, symSize: 0xC }
  - { offset: 0x94C4B, size: 0x8, addend: 0x0, symName: __ZN9Scintilla8Internal14ScintillaCocoa4DrawE6CGRectP9CGContext, symObjAddr: 0x5878, symBinAddr: 0x115E4, symSize: 0x44 }
  - { offset: 0x94D0D, size: 0x8, addend: 0x0, symName: __ZN9Scintilla8Internal14ScintillaCocoa13KeyboardInputEP7NSEvent, symObjAddr: 0x58BC, symBinAddr: 0x11628, symSize: 0x28C }
  - { offset: 0x94EB5, size: 0x8, addend: 0x0, symName: __ZN9Scintilla8Internal14ScintillaCocoa10InsertTextEP8NSStringNS_15CharacterSourceE, symObjAddr: 0x5B48, symBinAddr: 0x118B4, symSize: 0x220 }
  - { offset: 0x9564E, size: 0x8, addend: 0x0, symName: __ZN9Scintilla8Internal14ScintillaCocoa23SelectOnlyMainSelectionEv, symObjAddr: 0x5D68, symBinAddr: 0x11AD4, symSize: 0x54 }
  - { offset: 0x9568A, size: 0x8, addend: 0x0, symName: __ZN9Scintilla8Internal14ScintillaCocoa28ConvertSelectionVirtualSpaceEv, symObjAddr: 0x5DBC, symBinAddr: 0x11B28, symSize: 0x4 }
  - { offset: 0x956B1, size: 0x8, addend: 0x0, symName: __ZN9Scintilla8Internal14ScintillaCocoa18ClearAllSelectionsEv, symObjAddr: 0x5DC0, symBinAddr: 0x11B2C, symSize: 0x28 }
  - { offset: 0x956EE, size: 0x8, addend: 0x0, symName: __ZN9Scintilla8Internal14ScintillaCocoa16CompositionStartEv, symObjAddr: 0x5DE8, symBinAddr: 0x11B54, symSize: 0x3C }
  - { offset: 0x95765, size: 0x8, addend: 0x0, symName: __ZN9Scintilla8Internal14ScintillaCocoa17CompositionCommitEv, symObjAddr: 0x5E24, symBinAddr: 0x11B90, symSize: 0x68 }
  - { offset: 0x957E8, size: 0x8, addend: 0x0, symName: __ZN9Scintilla8Internal14ScintillaCocoa15CompositionUndoEv, symObjAddr: 0x5E8C, symBinAddr: 0x11BF8, symSize: 0x8 }
  - { offset: 0x95811, size: 0x8, addend: 0x0, symName: __ZN9Scintilla8Internal14ScintillaCocoa13SetDocPointerEPNS0_8DocumentE, symObjAddr: 0x5E94, symBinAddr: 0x11C00, symSize: 0x98 }
  - { offset: 0x95881, size: 0x8, addend: 0x0, symName: __ZN9Scintilla8Internal14ScintillaCocoa12MouseEnteredEP7NSEvent, symObjAddr: 0x5F2C, symBinAddr: 0x11C98, symSize: 0x11C }
  - { offset: 0x95985, size: 0x8, addend: 0x0, symName: __ZN9Scintilla8Internal14ScintillaCocoa11MouseExitedEP7NSEvent, symObjAddr: 0x6048, symBinAddr: 0x11DB4, symSize: 0x4 }
  - { offset: 0x959B7, size: 0x8, addend: 0x0, symName: __ZN9Scintilla8Internal14ScintillaCocoa9MouseDownEP7NSEvent, symObjAddr: 0x604C, symBinAddr: 0x11DB8, symSize: 0xEC }
  - { offset: 0x95A8E, size: 0x8, addend: 0x0, symName: __ZN9Scintilla8Internal14ScintillaCocoa14RightMouseDownEP7NSEvent, symObjAddr: 0x6138, symBinAddr: 0x11EA4, symSize: 0xEC }
  - { offset: 0x95B65, size: 0x8, addend: 0x0, symName: __ZN9Scintilla8Internal14ScintillaCocoa9MouseMoveEP7NSEvent, symObjAddr: 0x6224, symBinAddr: 0x11F90, symSize: 0x100 }
  - { offset: 0x95C18, size: 0x8, addend: 0x0, symName: __ZN9Scintilla8Internal14ScintillaCocoa7MouseUpEP7NSEvent, symObjAddr: 0x6324, symBinAddr: 0x12090, symSize: 0xE4 }
  - { offset: 0x95CCB, size: 0x8, addend: 0x0, symName: __ZN9Scintilla8Internal14ScintillaCocoa10MouseWheelEP7NSEvent, symObjAddr: 0x6408, symBinAddr: 0x12174, symSize: 0xD0 }
  - { offset: 0x95D35, size: 0x8, addend: 0x0, symName: __ZN9Scintilla8Internal14ScintillaCocoa9SelectAllEv, symObjAddr: 0x64D8, symBinAddr: 0x12244, symSize: 0x4 }
  - { offset: 0x95D5C, size: 0x8, addend: 0x0, symName: __ZN9Scintilla8Internal14ScintillaCocoa14DeleteBackwardEv, symObjAddr: 0x64DC, symBinAddr: 0x12248, symSize: 0x10 }
  - { offset: 0x95D83, size: 0x8, addend: 0x0, symName: __ZN9Scintilla8Internal14ScintillaCocoa3CutEv, symObjAddr: 0x64EC, symBinAddr: 0x12258, symSize: 0x4 }
  - { offset: 0x95DAA, size: 0x8, addend: 0x0, symName: __ZN9Scintilla8Internal14ScintillaCocoa4UndoEv, symObjAddr: 0x64F0, symBinAddr: 0x1225C, symSize: 0x4 }
  - { offset: 0x95DD1, size: 0x8, addend: 0x0, symName: __ZN9Scintilla8Internal14ScintillaCocoa4RedoEv, symObjAddr: 0x64F4, symBinAddr: 0x12260, symSize: 0x4 }
  - { offset: 0x95DF8, size: 0x8, addend: 0x0, symName: __ZN9Scintilla8Internal14ScintillaCocoa26ShouldDisplayPopupOnMarginEv, symObjAddr: 0x64F8, symBinAddr: 0x12264, symSize: 0x10 }
  - { offset: 0x95E21, size: 0x8, addend: 0x0, symName: __ZN9Scintilla8Internal14ScintillaCocoa24ShouldDisplayPopupOnTextEv, symObjAddr: 0x6508, symBinAddr: 0x12274, symSize: 0x14 }
  - { offset: 0x95E4A, size: 0x8, addend: 0x0, symName: __ZN9Scintilla8Internal14ScintillaCocoa17CreateContextMenuEP7NSEvent, symObjAddr: 0x651C, symBinAddr: 0x12288, symSize: 0x2C }
  - { offset: 0x95E9F, size: 0x8, addend: 0x0, symName: __ZN9Scintilla8Internal14ScintillaCocoa13HandleCommandEl, symObjAddr: 0x6548, symBinAddr: 0x122B4, symSize: 0x4 }
  - { offset: 0x95EED, size: 0x8, addend: 0x0, symName: __ZN9Scintilla8Internal14ScintillaCocoa17SetFirstResponderEb, symObjAddr: 0x654C, symBinAddr: 0x122B8, symSize: 0x14 }
  - { offset: 0x95F3C, size: 0x8, addend: 0x0, symName: __ZN9Scintilla8Internal14ScintillaCocoa19SetFocusActiveStateEv, symObjAddr: 0x6560, symBinAddr: 0x122CC, symSize: 0x20 }
  - { offset: 0x95F5C, size: 0x8, addend: 0x0, symName: __ZN9Scintilla8Internal14ScintillaCocoa18ActiveStateChangedEb, symObjAddr: 0x6580, symBinAddr: 0x122EC, symSize: 0x18 }
  - { offset: 0x95FF9, size: 0x8, addend: 0x0, symName: __ZN9Scintilla8Internal14ScintillaCocoa18UpdateBaseElementsEv, symObjAddr: 0x6598, symBinAddr: 0x12304, symSize: 0x3B4 }
  - { offset: 0x96236, size: 0x8, addend: 0x0, symName: __ZN9Scintilla8Internal14ScintillaCocoa14WindowWillMoveEv, symObjAddr: 0x69F8, symBinAddr: 0x12764, symSize: 0x24 }
  - { offset: 0x9625F, size: 0x8, addend: 0x0, symName: __ZN9Scintilla8Internal13ScintillaBase10InitialiseEv, symObjAddr: 0x6A1C, symBinAddr: 0x12788, symSize: 0x4 }
  - { offset: 0x96283, size: 0x8, addend: 0x0, symName: __ZN9Scintilla8Internal6Editor9GetCtrlIDEv, symObjAddr: 0x6A20, symBinAddr: 0x1278C, symSize: 0x8 }
  - { offset: 0x962A9, size: 0x8, addend: 0x0, symName: __ZNK9Scintilla8Internal6Editor13ValidCodePageEi, symObjAddr: 0x6A28, symBinAddr: 0x12794, symSize: 0x8 }
  - { offset: 0x963AE, size: 0x8, addend: 0x0, symName: __ZN14CaseFolderDBCSD1Ev, symObjAddr: 0x6C08, symBinAddr: 0x128EC, symSize: 0x4 }
  - { offset: 0x963D9, size: 0x8, addend: 0x0, symName: __ZN14CaseFolderDBCSD0Ev, symObjAddr: 0x6C0C, symBinAddr: 0x128F0, symSize: 0x4 }
  - { offset: 0x96404, size: 0x8, addend: 0x0, symName: __ZN14CaseFolderDBCS4FoldEPcmPKcm, symObjAddr: 0x6C10, symBinAddr: 0x128F4, symSize: 0x180 }
  - { offset: 0x96A07, size: 0x8, addend: 0x0, symName: __ZNSt3__16vectorIhNS_9allocatorIhEEE11__vallocateB8ne180100Em, symObjAddr: 0x6E8C, symBinAddr: 0x12B70, symSize: 0x40 }
  - { offset: 0x96ADB, size: 0x8, addend: 0x0, symName: __ZNKSt3__16vectorIhNS_9allocatorIhEEE20__throw_length_errorB8ne180100Ev, symObjAddr: 0x6ECC, symBinAddr: 0x12BB0, symSize: 0x14 }
  - { offset: 0x96B0C, size: 0x8, addend: 0x0, symName: __ZNKSt3__16vectorIhNS_9allocatorIhEEE20__throw_length_errorB8ne180100Ev, symObjAddr: 0x6ECC, symBinAddr: 0x12BB0, symSize: 0x14 }
  - { offset: 0x96B34, size: 0x8, addend: 0x0, symName: __ZNSt3__16vectorIcNS_9allocatorIcEEEC2Em, symObjAddr: 0x6EE0, symBinAddr: 0x12BC4, symSize: 0x70 }
  - { offset: 0x991AC, size: 0x8, addend: 0x0, symName: __ZN9Scintilla8Internal14DBCSIsLeadByteEic, symObjAddr: 0x0, symBinAddr: 0x12C34, symSize: 0x84 }
  - { offset: 0x991C4, size: 0x8, addend: 0x0, symName: __ZN9Scintilla8Internal14DBCSIsLeadByteEic, symObjAddr: 0x0, symBinAddr: 0x12C34, symSize: 0x84 }
  - { offset: 0x9920D, size: 0x8, addend: 0x0, symName: __ZN9Scintilla8Internal21IsDBCSValidSingleByteEii, symObjAddr: 0x84, symBinAddr: 0x12CB8, symSize: 0x28 }
  - { offset: 0x99298, size: 0x8, addend: 0x0, symName: __ZN9Scintilla8Internal12AutoCompleteC2Ev, symObjAddr: 0x0, symBinAddr: 0x12CE0, symSize: 0x10C }
  - { offset: 0x9CBF5, size: 0x8, addend: 0x0, symName: __ZNSt3__111__introsortINS_17_ClassicAlgPolicyER6SorterPiLb0EEEvT1_S5_T0_NS_15iterator_traitsIS5_E15difference_typeEb, symObjAddr: 0x1394, symBinAddr: 0x13FD8, symSize: 0x340 }
  - { offset: 0x9D0A7, size: 0x8, addend: 0x0, symName: __ZNSt3__126__insertion_sort_unguardedB8ne180100INS_17_ClassicAlgPolicyER6SorterPiEEvT1_S5_T0_, symObjAddr: 0x181C, symBinAddr: 0x14460, symSize: 0x94 }
  - { offset: 0x9D1CC, size: 0x8, addend: 0x0, symName: __ZNSt3__111__sift_downB8ne180100INS_17_ClassicAlgPolicyER6SorterPiEEvT1_OT0_NS_15iterator_traitsIS5_E15difference_typeES5_, symObjAddr: 0x2040, symBinAddr: 0x14C84, symSize: 0x120 }
  - { offset: 0x9D2D6, size: 0x8, addend: 0x0, symName: __ZNSt3__117__floyd_sift_downB8ne180100INS_17_ClassicAlgPolicyER6SorterPiEET1_S5_OT0_NS_15iterator_traitsIS5_E15difference_typeE, symObjAddr: 0x2160, symBinAddr: 0x14DA4, symSize: 0xAC }
  - { offset: 0x9D389, size: 0x8, addend: 0x0, symName: __ZNSt3__131__partition_with_equals_on_leftB8ne180100INS_17_ClassicAlgPolicyEPiR6SorterEET0_S5_S5_T1_, symObjAddr: 0x199C, symBinAddr: 0x145E0, symSize: 0x10C }
  - { offset: 0x9D550, size: 0x8, addend: 0x0, symName: __ZNSt3__132__partition_with_equals_on_rightB8ne180100INS_17_ClassicAlgPolicyEPiR6SorterEENS_4pairIT0_bEES6_S6_T1_, symObjAddr: 0x1AA8, symBinAddr: 0x146EC, symSize: 0x118 }
  - { offset: 0x9D70E, size: 0x8, addend: 0x0, symName: __ZNSt3__127__insertion_sort_incompleteB8ne180100INS_17_ClassicAlgPolicyER6SorterPiEEbT1_S5_T0_, symObjAddr: 0x1BC0, symBinAddr: 0x14804, symSize: 0x1A4 }
  - { offset: 0x9DF19, size: 0x8, addend: 0x0, symName: __ZNSt3__119__allocate_at_leastB8ne180100INS_9allocatorIiEEEENS_19__allocation_resultINS_16allocator_traitsIT_E7pointerEEERS5_m, symObjAddr: 0x12C4, symBinAddr: 0x13FA4, symSize: 0x34 }
  - { offset: 0x9E6BE, size: 0x8, addend: 0x0, symName: __ZNSt3__17__sort3B8ne180100INS_17_ClassicAlgPolicyER6SorterPiEEjT1_S5_S5_T0_, symObjAddr: 0x18B0, symBinAddr: 0x144F4, symSize: 0xEC }
  - { offset: 0x9E9C7, size: 0x8, addend: 0x0, symName: __ZNSt3__116__insertion_sortB8ne180100INS_17_ClassicAlgPolicyER6SorterPiEEvT1_S5_T0_, symObjAddr: 0x175C, symBinAddr: 0x143A0, symSize: 0xC0 }
  - { offset: 0x9EAC6, size: 0x8, addend: 0x0, symName: __ZNSt3__17__sort4B8ne180100INS_17_ClassicAlgPolicyER6SorterPiEEvT1_S5_S5_S5_T0_, symObjAddr: 0x1D64, symBinAddr: 0x149A8, symSize: 0xB0 }
  - { offset: 0x9ECDC, size: 0x8, addend: 0x0, symName: __ZNSt3__17__sort5B8ne180100INS_17_ClassicAlgPolicyER6SorterPiEEvT1_S5_S5_S5_S5_T0_, symObjAddr: 0x1E14, symBinAddr: 0x14A58, symSize: 0xD8 }
  - { offset: 0x9EF80, size: 0x8, addend: 0x0, symName: __ZNSt3__119__partial_sort_implB8ne180100INS_17_ClassicAlgPolicyER6SorterPiS4_EET1_S5_S5_T2_OT0_, symObjAddr: 0x1EEC, symBinAddr: 0x14B30, symSize: 0x154 }
  - { offset: 0x9F3B4, size: 0x8, addend: 0x0, symName: __ZNSt3__19__sift_upB8ne180100INS_17_ClassicAlgPolicyER6SorterPiEEvT1_S5_OT0_NS_15iterator_traitsIS5_E15difference_typeE, symObjAddr: 0x220C, symBinAddr: 0x14E50, symSize: 0x9C }
  - { offset: 0xA05A4, size: 0x8, addend: 0x0, symName: __ZN9Scintilla8Internal12AutoCompleteC2Ev, symObjAddr: 0x0, symBinAddr: 0x12CE0, symSize: 0x10C }
  - { offset: 0xA0870, size: 0x8, addend: 0x0, symName: __ZN9Scintilla8Internal12AutoCompleteC2Ev.cold.1, symObjAddr: 0x22A8, symBinAddr: 0x89C64, symSize: 0x5C }
  - { offset: 0xA0A59, size: 0x8, addend: 0x0, symName: __ZN9Scintilla8Internal12AutoCompleteC1Ev, symObjAddr: 0x10C, symBinAddr: 0x12DEC, symSize: 0x4 }
  - { offset: 0xA0A86, size: 0x8, addend: 0x0, symName: __ZN9Scintilla8Internal12AutoCompleteC1Ev, symObjAddr: 0x10C, symBinAddr: 0x12DEC, symSize: 0x4 }
  - { offset: 0xA0C3E, size: 0x8, addend: 0x0, symName: __ZN9Scintilla8Internal12AutoCompleteD2Ev, symObjAddr: 0x110, symBinAddr: 0x12DF0, symSize: 0x7C }
  - { offset: 0xA109A, size: 0x8, addend: 0x0, symName: __ZN9Scintilla8Internal12AutoCompleteD1Ev, symObjAddr: 0x18C, symBinAddr: 0x12E6C, symSize: 0x4 }
  - { offset: 0xA10C7, size: 0x8, addend: 0x0, symName: __ZN9Scintilla8Internal12AutoCompleteD1Ev, symObjAddr: 0x18C, symBinAddr: 0x12E6C, symSize: 0x4 }
  - { offset: 0xA10D9, size: 0x8, addend: 0x0, symName: __ZNK9Scintilla8Internal12AutoComplete6ActiveEv, symObjAddr: 0x190, symBinAddr: 0x12E70, symSize: 0x8 }
  - { offset: 0xA1114, size: 0x8, addend: 0x0, symName: __ZN9Scintilla8Internal12AutoComplete5StartERNS0_6WindowEilNS0_5PointElibNS_10TechnologyENS0_11ListOptionsE, symObjAddr: 0x198, symBinAddr: 0x12E78, symSize: 0xF0 }
  - { offset: 0xA1279, size: 0x8, addend: 0x0, symName: __ZN9Scintilla8Internal12AutoComplete6CancelEv, symObjAddr: 0x288, symBinAddr: 0x12F68, symSize: 0x40 }
  - { offset: 0xA132F, size: 0x8, addend: 0x0, symName: __ZN9Scintilla8Internal12AutoComplete12SetStopCharsEPKc, symObjAddr: 0x2C8, symBinAddr: 0x12FA8, symSize: 0x8 }
  - { offset: 0xA1386, size: 0x8, addend: 0x0, symName: __ZNK9Scintilla8Internal12AutoComplete10IsStopCharEc, symObjAddr: 0x2D0, symBinAddr: 0x12FB0, symSize: 0x30 }
  - { offset: 0xA13BC, size: 0x8, addend: 0x0, symName: __ZN9Scintilla8Internal12AutoComplete14SetFillUpCharsEPKc, symObjAddr: 0x300, symBinAddr: 0x12FE0, symSize: 0x8 }
  - { offset: 0xA1413, size: 0x8, addend: 0x0, symName: __ZNK9Scintilla8Internal12AutoComplete12IsFillUpCharEc, symObjAddr: 0x308, symBinAddr: 0x12FE8, symSize: 0x30 }
  - { offset: 0xA1449, size: 0x8, addend: 0x0, symName: __ZN9Scintilla8Internal12AutoComplete12SetSeparatorEc, symObjAddr: 0x338, symBinAddr: 0x13018, symSize: 0x8 }
  - { offset: 0xA147B, size: 0x8, addend: 0x0, symName: __ZNK9Scintilla8Internal12AutoComplete12GetSeparatorEv, symObjAddr: 0x340, symBinAddr: 0x13020, symSize: 0x8 }
  - { offset: 0xA14A2, size: 0x8, addend: 0x0, symName: __ZN9Scintilla8Internal12AutoComplete10SetTypesepEc, symObjAddr: 0x348, symBinAddr: 0x13028, symSize: 0x8 }
  - { offset: 0xA14D4, size: 0x8, addend: 0x0, symName: __ZNK9Scintilla8Internal12AutoComplete10GetTypesepEv, symObjAddr: 0x350, symBinAddr: 0x13030, symSize: 0x8 }
  - { offset: 0xA1A48, size: 0x8, addend: 0x0, symName: __ZN9Scintilla8Internal12AutoComplete7SetListEPKc, symObjAddr: 0x358, symBinAddr: 0x13038, symSize: 0x4D0 }
  - { offset: 0xA2E2F, size: 0x8, addend: 0x0, symName: __ZN6SorterC2EPN9Scintilla8Internal12AutoCompleteEPKc, symObjAddr: 0xC88, symBinAddr: 0x13968, symSize: 0x570 }
  - { offset: 0xA48A2, size: 0x8, addend: 0x0, symName: __ZNSt3__16vectorIiNS_9allocatorIiEEE16__init_with_sizeB8ne180100IPiS5_EEvT_T0_m, symObjAddr: 0x11F8, symBinAddr: 0x13ED8, symSize: 0x78 }
  - { offset: 0xA4CAC, size: 0x8, addend: 0x0, symName: __ZNKSt3__16vectorIiNS_9allocatorIiEEE20__throw_length_errorB8ne180100Ev, symObjAddr: 0x12B0, symBinAddr: 0x13F90, symSize: 0x14 }
  - { offset: 0xA4CD4, size: 0x8, addend: 0x0, symName: __ZNSt3__119__allocate_at_leastB8ne180100INS_9allocatorIiEEEENS_19__allocation_resultINS_16allocator_traitsIT_E7pointerEEERS5_m, symObjAddr: 0x12C4, symBinAddr: 0x13FA4, symSize: 0x34 }
  - { offset: 0xA4CDE, size: 0x8, addend: 0x0, symName: __ZNK9Scintilla8Internal12AutoComplete12GetSelectionEv, symObjAddr: 0x828, symBinAddr: 0x13508, symSize: 0x10 }
  - { offset: 0xA4D08, size: 0x8, addend: 0x0, symName: __ZNK9Scintilla8Internal12AutoComplete12GetSelectionEv, symObjAddr: 0x828, symBinAddr: 0x13508, symSize: 0x10 }
  - { offset: 0xA4D30, size: 0x8, addend: 0x0, symName: __ZNK9Scintilla8Internal12AutoComplete8GetValueEi, symObjAddr: 0x838, symBinAddr: 0x13518, symSize: 0x10 }
  - { offset: 0xA4D5B, size: 0x8, addend: 0x0, symName: __ZNK9Scintilla8Internal12AutoComplete8GetValueEi, symObjAddr: 0x838, symBinAddr: 0x13518, symSize: 0x10 }
  - { offset: 0xA4D92, size: 0x8, addend: 0x0, symName: __ZN9Scintilla8Internal12AutoComplete4ShowEb, symObjAddr: 0x848, symBinAddr: 0x13528, symSize: 0x48 }
  - { offset: 0xA4E0D, size: 0x8, addend: 0x0, symName: __ZN9Scintilla8Internal12AutoComplete4MoveEi, symObjAddr: 0x890, symBinAddr: 0x13570, symSize: 0x6C }
  - { offset: 0xA4F7F, size: 0x8, addend: 0x0, symName: __ZN9Scintilla8Internal12AutoComplete6SelectEPKc, symObjAddr: 0x8FC, symBinAddr: 0x135DC, symSize: 0x38C }
  - { offset: 0xA5CF7, size: 0x8, addend: 0x0, symName: __ZNSt3__16vectorIiNS_9allocatorIiEEE11__vallocateB8ne180100Em, symObjAddr: 0x1270, symBinAddr: 0x13F50, symSize: 0x40 }
  - { offset: 0xA5D72, size: 0x8, addend: 0x0, symName: __ZNKSt3__16vectorIiNS_9allocatorIiEEE20__throw_length_errorB8ne180100Ev, symObjAddr: 0x12B0, symBinAddr: 0x13F90, symSize: 0x14 }
  - { offset: 0xA5E7E, size: 0x8, addend: 0x0, symName: __ZN6SorterclEii, symObjAddr: 0x16D4, symBinAddr: 0x14318, symSize: 0x88 }
  - { offset: 0xA7E8A, size: 0x8, addend: 0x0, symName: __ZN12_GLOBAL__N_112caseConvListE, symObjAddr: 0x43F88, symBinAddr: 0xAC3F0, symSize: 0x0 }
  - { offset: 0xA806F, size: 0x8, addend: 0x0, symName: __ZN12_GLOBAL__N_129symmetricCaseConversionRangesE, symObjAddr: 0x1DC8, symBinAddr: 0x8F3C4, symSize: 0x0 }
  - { offset: 0xA8089, size: 0x8, addend: 0x0, symName: __ZN12_GLOBAL__N_124symmetricCaseConversionsE, symObjAddr: 0x2108, symBinAddr: 0x8F704, symSize: 0x0 }
  - { offset: 0xA80A4, size: 0x8, addend: 0x0, symName: __ZN12_GLOBAL__N_122complexCaseConversionsE, symObjAddr: 0x2620, symBinAddr: 0xA4CA8, symSize: 0x0 }
  - { offset: 0xA80B2, size: 0x8, addend: 0x0, symName: __ZN12_GLOBAL__N_122ConverterForConversionEN9Scintilla8Internal14CaseConversionE, symObjAddr: 0x4, symBinAddr: 0x14EF0, symSize: 0x640 }
  - { offset: 0xA911B, size: 0x8, addend: 0x0, symName: __ZN9Scintilla8Internal11CaseConvertEiNS0_14CaseConversionE, symObjAddr: 0x644, symBinAddr: 0x15530, symSize: 0x28 }
  - { offset: 0xA9126, size: 0x8, addend: 0x0, symName: __ZN12_GLOBAL__N_19NextFieldERNSt3__117basic_string_viewIcNS0_11char_traitsIcEEEE, symObjAddr: 0xA38, symBinAddr: 0x15924, symSize: 0x80 }
  - { offset: 0xA934C, size: 0x8, addend: 0x0, symName: __ZN9Scintilla8Internal12ConverterForENS0_14CaseConversionE, symObjAddr: 0x0, symBinAddr: 0x14EEC, symSize: 0x4 }
  - { offset: 0xA937E, size: 0x8, addend: 0x0, symName: __ZN9Scintilla8Internal12ConverterForENS0_14CaseConversionE, symObjAddr: 0x0, symBinAddr: 0x14EEC, symSize: 0x4 }
  - { offset: 0xA93AD, size: 0x8, addend: 0x0, symName: __ZN9Scintilla8Internal11CaseConvertEiNS0_14CaseConversionE, symObjAddr: 0x644, symBinAddr: 0x15530, symSize: 0x28 }
  - { offset: 0xA9423, size: 0x8, addend: 0x0, symName: __ZN9Scintilla8Internal17CaseConvertStringEPcmPKcmNS0_14CaseConversionE, symObjAddr: 0x6E0, symBinAddr: 0x155CC, symSize: 0x48 }
  - { offset: 0xA9506, size: 0x8, addend: 0x0, symName: __ZN9Scintilla8Internal17CaseConvertStringERKNSt3__112basic_stringIcNS1_11char_traitsIcEENS1_9allocatorIcEEEENS0_14CaseConversionE, symObjAddr: 0x90C, symBinAddr: 0x157F8, symSize: 0xD0 }
  - { offset: 0xAF201, size: 0x8, addend: 0x0, symName: __ZNSt3__111__introsortINS_17_ClassicAlgPolicyERNS_6__lessIvvEEPN12_GLOBAL__N_113CaseConverter19CharacterConversionELb0EEEvT1_S9_T0_NS_15iterator_traitsIS9_E15difference_typeEb, symObjAddr: 0xD64, symBinAddr: 0x15BB4, symSize: 0x8B4 }
  - { offset: 0xB022F, size: 0x8, addend: 0x0, symName: __ZNSt3__127__insertion_sort_incompleteB8ne180100INS_17_ClassicAlgPolicyERNS_6__lessIvvEEPN12_GLOBAL__N_113CaseConverter19CharacterConversionEEEbT1_S9_T0_, symObjAddr: 0x1740, symBinAddr: 0x16590, symSize: 0x2B8 }
  - { offset: 0xB1387, size: 0x8, addend: 0x0, symName: __ZNKSt3__16vectorIN12_GLOBAL__N_113CaseConverter16ConversionStringENS_9allocatorIS3_EEE20__throw_length_errorB8ne180100Ev, symObjAddr: 0x1B30, symBinAddr: 0x16938, symSize: 0x14 }
  - { offset: 0xB2732, size: 0x8, addend: 0x0, symName: __ZNSt3__17__sort3B8ne180100INS_17_ClassicAlgPolicyERNS_6__lessIvvEEPN12_GLOBAL__N_113CaseConverter19CharacterConversionEEEjT1_S9_S9_T0_, symObjAddr: 0x1618, symBinAddr: 0x16468, symSize: 0x128 }
  - { offset: 0xB2ADB, size: 0x8, addend: 0x0, symName: __ZNSt3__17__sort4B8ne180100INS_17_ClassicAlgPolicyERNS_6__lessIvvEEPN12_GLOBAL__N_113CaseConverter19CharacterConversionEEEvT1_S9_S9_S9_T0_, symObjAddr: 0x19F8, symBinAddr: 0x16848, symSize: 0xF0 }
  - { offset: 0xB4241, size: 0x8, addend: 0x0, symName: ___cxx_global_array_dtor, symObjAddr: 0x1C80, symBinAddr: 0x169CC, symSize: 0x74 }
  - { offset: 0xB4DE4, size: 0x8, addend: 0x0, symName: __ZN12_GLOBAL__N_113CaseConverter12AddSymmetricEN9Scintilla8Internal14CaseConversionEii, symObjAddr: 0x9DC, symBinAddr: 0x158C8, symSize: 0x5C }
  - { offset: 0xB4F53, size: 0x8, addend: 0x0, symName: __ZN12_GLOBAL__N_113CaseConverter3AddEiNSt3__117basic_string_viewIcNS1_11char_traitsIcEEEE, symObjAddr: 0xAB8, symBinAddr: 0x159A4, symSize: 0x168 }
  - { offset: 0xB57A8, size: 0x8, addend: 0x0, symName: __ZNKSt3__16vectorIN12_GLOBAL__N_113CaseConverter19CharacterConversionENS_9allocatorIS3_EEE20__throw_length_errorB8ne180100Ev, symObjAddr: 0xC20, symBinAddr: 0x15B0C, symSize: 0x14 }
  - { offset: 0xB57B3, size: 0x8, addend: 0x0, symName: __ZNSt3__16vectorIiNS_9allocatorIiEEE7reserveEm, symObjAddr: 0xCD0, symBinAddr: 0x15B20, symSize: 0x94 }
  - { offset: 0xB5A64, size: 0x8, addend: 0x0, symName: __ZNSt3__111__introsortINS_17_ClassicAlgPolicyERNS_6__lessIvvEEPN12_GLOBAL__N_113CaseConverter19CharacterConversionELb0EEEvT1_S9_T0_NS_15iterator_traitsIS9_E15difference_typeEb, symObjAddr: 0xD64, symBinAddr: 0x15BB4, symSize: 0x8B4 }
  - { offset: 0xB5A76, size: 0x8, addend: 0x0, symName: __ZNSt3__114__split_bufferIN12_GLOBAL__N_113CaseConverter16ConversionStringERNS_9allocatorIS3_EEEC1EmmS6_, symObjAddr: 0x1B44, symBinAddr: 0x1694C, symSize: 0x80 }
  - { offset: 0xB5C1A, size: 0x8, addend: 0x0, symName: __ZNKSt3__16vectorIN12_GLOBAL__N_113CaseConverter16ConversionStringENS_9allocatorIS3_EEE20__throw_length_errorB8ne180100Ev, symObjAddr: 0x1B30, symBinAddr: 0x16938, symSize: 0x14 }
  - { offset: 0xB5C3E, size: 0x8, addend: 0x0, symName: __ZNSt3__114__split_bufferIN12_GLOBAL__N_113CaseConverter16ConversionStringERNS_9allocatorIS3_EEEC1EmmS6_, symObjAddr: 0x1B44, symBinAddr: 0x1694C, symSize: 0x80 }
  - { offset: 0xB5C49, size: 0x8, addend: 0x0, symName: __ZN12_GLOBAL__N_113CaseConverter4FindEi, symObjAddr: 0x66C, symBinAddr: 0x15558, symSize: 0x74 }
  - { offset: 0xB5C91, size: 0x8, addend: 0x0, symName: __ZN12_GLOBAL__N_113CaseConverter4FindEi, symObjAddr: 0x66C, symBinAddr: 0x15558, symSize: 0x74 }
  - { offset: 0xB5FD6, size: 0x8, addend: 0x0, symName: __ZN12_GLOBAL__N_113CaseConverter17CaseConvertStringEPcmPKcm, symObjAddr: 0x728, symBinAddr: 0x15614, symSize: 0x1E4 }
  - { offset: 0xB6ABC, size: 0x8, addend: 0x0, symName: __ZNKSt3__16vectorIN12_GLOBAL__N_113CaseConverter19CharacterConversionENS_9allocatorIS3_EEE20__throw_length_errorB8ne180100Ev, symObjAddr: 0xC20, symBinAddr: 0x15B0C, symSize: 0x14 }
  - { offset: 0xB6ECD, size: 0x8, addend: 0x0, symName: ___cxx_global_array_dtor, symObjAddr: 0x1C80, symBinAddr: 0x169CC, symSize: 0x74 }
  - { offset: 0xB6F43, size: 0x8, addend: 0x0, symName: __GLOBAL__sub_I_CaseConvert.cxx, symObjAddr: 0x1CF4, symBinAddr: 0x16A40, symSize: 0x58 }
  - { offset: 0xB8F24, size: 0x8, addend: 0x0, symName: __ZN12_GLOBAL__N_16repsC0E, symObjAddr: 0x4E20, symBinAddr: 0xA4D68, symSize: 0x0 }
  - { offset: 0xB8F3F, size: 0x8, addend: 0x0, symName: __ZN12_GLOBAL__N_16repsC1E, symObjAddr: 0x4F20, symBinAddr: 0xA4E68, symSize: 0x0 }
  - { offset: 0xBCE9A, size: 0x8, addend: 0x0, symName: __ZN9Scintilla8Internal22ControlCharacterStringEh, symObjAddr: 0x16F8, symBinAddr: 0x18180, symSize: 0x24 }
  - { offset: 0xBCECB, size: 0x8, addend: 0x0, symName: __ZN9Scintilla8Internal6HexitsEPci, symObjAddr: 0x171C, symBinAddr: 0x181A4, symSize: 0x40 }
  - { offset: 0xBCF48, size: 0x8, addend: 0x0, symName: __ZN9Scintilla8Internal19CreatePositionCacheEv, symObjAddr: 0x316C, symBinAddr: 0x19BF4, symSize: 0x44 }
  - { offset: 0xD505C, size: 0x8, addend: 0x0, symName: __ZNSt3__115allocate_sharedB8ne180100IN9Scintilla8Internal10LineLayoutENS_9allocatorIS3_EEJRlRiEvEENS_10shared_ptrIT_EERKT0_DpOT1_, symObjAddr: 0x39E8, symBinAddr: 0x1A378, symSize: 0x60 }
  - { offset: 0xD5B19, size: 0x8, addend: 0x0, symName: __ZNSt3__16vectorIiNS_9allocatorIiEEE26__swap_out_circular_bufferERNS_14__split_bufferIiRS2_EEPi, symObjAddr: 0x443C, symBinAddr: 0x1AD84, symSize: 0xC4 }
  - { offset: 0xD68B9, size: 0x8, addend: 0x0, symName: __ZNSt3__119__allocate_at_leastB8ne180100INS_9allocatorINS_10shared_ptrIN9Scintilla8Internal4FontEEEEEEENS_19__allocation_resultINS_16allocator_traitsIT_E7pointerEEERSA_m, symObjAddr: 0x34E4, symBinAddr: 0x19EBC, symSize: 0x34 }
  - { offset: 0xD6956, size: 0x8, addend: 0x0, symName: __ZNSt3__110shared_ptrIN9Scintilla8Internal4FontEED2B8ne180100Ev, symObjAddr: 0x3518, symBinAddr: 0x19EF0, symSize: 0x50 }
  - { offset: 0xD6BE2, size: 0x8, addend: 0x0, symName: __ZNKSt3__114default_deleteIN9Scintilla8Internal8BidiDataEEclB8ne180100EPS3_, symObjAddr: 0x3704, symBinAddr: 0x1A094, symSize: 0x4C }
  - { offset: 0xD6CE4, size: 0x8, addend: 0x0, symName: __ZNSt3__119__allocate_at_leastB8ne180100INS_9allocatorINS_10shared_ptrIN9Scintilla8Internal10LineLayoutEEEEEEENS_19__allocation_resultINS_16allocator_traitsIT_E7pointerEEERSA_m, symObjAddr: 0x3968, symBinAddr: 0x1A2F8, symSize: 0x34 }
  - { offset: 0xD6D81, size: 0x8, addend: 0x0, symName: __ZNSt3__114__split_bufferINS_10shared_ptrIN9Scintilla8Internal10LineLayoutEEERNS_9allocatorIS5_EEED2Ev, symObjAddr: 0x399C, symBinAddr: 0x1A32C, symSize: 0x4C }
  - { offset: 0xD7225, size: 0x8, addend: 0x0, symName: __ZNSt3__127__tree_balance_after_insertB8ne180100IPNS_16__tree_node_baseIPvEEEEvT_S5_, symObjAddr: 0x3DD8, symBinAddr: 0x1A768, symSize: 0x198 }
  - { offset: 0xD7587, size: 0x8, addend: 0x0, symName: __ZNSt3__113__tree_removeB8ne180100IPNS_16__tree_node_baseIPvEEEEvT_S5_, symObjAddr: 0x4020, symBinAddr: 0x1A9B0, symSize: 0x384 }
  - { offset: 0xD7D84, size: 0x8, addend: 0x0, symName: __ZNSt3__119__allocate_at_leastB8ne180100INS_9allocatorI18PositionCacheEntryEEEENS_19__allocation_resultINS_16allocator_traitsIT_E7pointerEEERS6_m, symObjAddr: 0x4B58, symBinAddr: 0x1B4A0, symSize: 0x34 }
  - { offset: 0xD7E21, size: 0x8, addend: 0x0, symName: __ZNSt3__114__split_bufferI18PositionCacheEntryRNS_9allocatorIS1_EEED2Ev, symObjAddr: 0x4B8C, symBinAddr: 0x1B4D4, symSize: 0x4C }
  - { offset: 0xDA182, size: 0x8, addend: 0x0, symName: __ZNSt3__16vectorIiNS_9allocatorIiEEE26__swap_out_circular_bufferERNS_14__split_bufferIiRS2_EEPi, symObjAddr: 0x443C, symBinAddr: 0x1AD84, symSize: 0xC4 }
  - { offset: 0xDAA71, size: 0x8, addend: 0x0, symName: __ZN9Scintilla8Internal8BidiData6ResizeEm, symObjAddr: 0x0, symBinAddr: 0x16A98, symSize: 0x30 }
  - { offset: 0xDAAC5, size: 0x8, addend: 0x0, symName: __ZNSt3__16vectorINS_10shared_ptrIN9Scintilla8Internal4FontEEENS_9allocatorIS5_EEE6resizeEm, symObjAddr: 0x30, symBinAddr: 0x16AC8, symSize: 0x6C }
  - { offset: 0xDABFF, size: 0x8, addend: 0x0, symName: __ZNSt3__16vectorIdNS_9allocatorIdEEE6resizeEm, symObjAddr: 0x9C, symBinAddr: 0x16B34, symSize: 0x30 }
  - { offset: 0xDAC49, size: 0x8, addend: 0x0, symName: __ZNSt3__16vectorIdNS_9allocatorIdEEE6resizeEm, symObjAddr: 0x9C, symBinAddr: 0x16B34, symSize: 0x30 }
  - { offset: 0xDAD97, size: 0x8, addend: 0x0, symName: __ZNSt3__16vectorINS_10shared_ptrIN9Scintilla8Internal4FontEEENS_9allocatorIS5_EEE8__appendEm, symObjAddr: 0x33AC, symBinAddr: 0x19D84, symSize: 0x124 }
  - { offset: 0xDB290, size: 0x8, addend: 0x0, symName: __ZNKSt3__16vectorINS_10shared_ptrIN9Scintilla8Internal4FontEEENS_9allocatorIS5_EEE20__throw_length_errorB8ne180100Ev, symObjAddr: 0x34D0, symBinAddr: 0x19EA8, symSize: 0x14 }
  - { offset: 0xDB2A2, size: 0x8, addend: 0x0, symName: __ZNSt3__110shared_ptrIN9Scintilla8Internal4FontEED2B8ne180100Ev, symObjAddr: 0x3518, symBinAddr: 0x19EF0, symSize: 0x50 }
  - { offset: 0xDB3AA, size: 0x8, addend: 0x0, symName: __ZNSt3__16vectorIdNS_9allocatorIdEEE8__appendEm, symObjAddr: 0x35B4, symBinAddr: 0x19F8C, symSize: 0x108 }
  - { offset: 0xDBAF0, size: 0x8, addend: 0x0, symName: __ZN9Scintilla8Internal10LineLayoutC2Eli, symObjAddr: 0xCC, symBinAddr: 0x16B64, symSize: 0xD4 }
  - { offset: 0xDBD4B, size: 0x8, addend: 0x0, symName: __ZN9Scintilla8Internal10LineLayout6ResizeEi, symObjAddr: 0x1A0, symBinAddr: 0x16C38, symSize: 0xEC }
  - { offset: 0xDBFD3, size: 0x8, addend: 0x0, symName: __ZNKSt3__114default_deleteIN9Scintilla8Internal8BidiDataEEclB8ne180100EPS3_, symObjAddr: 0x3704, symBinAddr: 0x1A094, symSize: 0x4C }
  - { offset: 0xDC201, size: 0x8, addend: 0x0, symName: __ZN9Scintilla8Internal10LineLayoutC2Eli.cold.1, symObjAddr: 0x4BD8, symBinAddr: 0x89CC0, symSize: 0x7C }
  - { offset: 0xDC5B2, size: 0x8, addend: 0x0, symName: __ZN9Scintilla8Internal10LineLayout4FreeEv, symObjAddr: 0x314, symBinAddr: 0x16DAC, symSize: 0x7C }
  - { offset: 0xDC754, size: 0x8, addend: 0x0, symName: __ZN9Scintilla8Internal10LineLayoutC1Eli, symObjAddr: 0x28C, symBinAddr: 0x16D24, symSize: 0x4 }
  - { offset: 0xDC785, size: 0x8, addend: 0x0, symName: __ZN9Scintilla8Internal10LineLayoutC1Eli, symObjAddr: 0x28C, symBinAddr: 0x16D24, symSize: 0x4 }
  - { offset: 0xDC927, size: 0x8, addend: 0x0, symName: __ZN9Scintilla8Internal10LineLayoutD2Ev, symObjAddr: 0x290, symBinAddr: 0x16D28, symSize: 0x84 }
  - { offset: 0xDCC22, size: 0x8, addend: 0x0, symName: __ZN9Scintilla8Internal10LineLayoutD1Ev, symObjAddr: 0x390, symBinAddr: 0x16E28, symSize: 0x4 }
  - { offset: 0xDCC45, size: 0x8, addend: 0x0, symName: __ZN9Scintilla8Internal10LineLayoutD1Ev, symObjAddr: 0x390, symBinAddr: 0x16E28, symSize: 0x4 }
  - { offset: 0xDCC72, size: 0x8, addend: 0x0, symName: __ZN9Scintilla8Internal10LineLayoutD0Ev, symObjAddr: 0x394, symBinAddr: 0x16E2C, symSize: 0x14 }
  - { offset: 0xDCCEC, size: 0x8, addend: 0x0, symName: __ZN9Scintilla8Internal10LineLayout5ReSetEll, symObjAddr: 0x3A8, symBinAddr: 0x16E40, symSize: 0x3C }
  - { offset: 0xDCD70, size: 0x8, addend: 0x0, symName: __ZN9Scintilla8Internal10LineLayout10InvalidateENS1_10ValidLevelE, symObjAddr: 0x3E4, symBinAddr: 0x16E7C, symSize: 0x14 }
  - { offset: 0xDCE1D, size: 0x8, addend: 0x0, symName: __ZN9Scintilla8Internal10LineLayout14EnsureBidiDataEv, symObjAddr: 0x3F8, symBinAddr: 0x16E90, symSize: 0x64 }
  - { offset: 0xDCF97, size: 0x8, addend: 0x0, symName: __ZN9Scintilla8Internal10LineLayout14ClearPositionsEv, symObjAddr: 0x45C, symBinAddr: 0x16EF4, symSize: 0x20 }
  - { offset: 0xDD04D, size: 0x8, addend: 0x0, symName: __ZNK9Scintilla8Internal10LineLayout10LineNumberEv, symObjAddr: 0x47C, symBinAddr: 0x16F14, symSize: 0x8 }
  - { offset: 0xDD06E, size: 0x8, addend: 0x0, symName: __ZNK9Scintilla8Internal10LineLayout7CanHoldEli, symObjAddr: 0x484, symBinAddr: 0x16F1C, symSize: 0x24 }
  - { offset: 0xDD0D6, size: 0x8, addend: 0x0, symName: __ZNK9Scintilla8Internal10LineLayout9LineStartEi, symObjAddr: 0x4A8, symBinAddr: 0x16F40, symSize: 0x38 }
  - { offset: 0xDD130, size: 0x8, addend: 0x0, symName: __ZNK9Scintilla8Internal10LineLayout10LineLengthEi, symObjAddr: 0x4F0, symBinAddr: 0x16F78, symSize: 0x3C }
  - { offset: 0xDD15B, size: 0x8, addend: 0x0, symName: __ZNK9Scintilla8Internal10LineLayout10LineLengthEi, symObjAddr: 0x4F0, symBinAddr: 0x16F78, symSize: 0x3C }
  - { offset: 0xDD18A, size: 0x8, addend: 0x0, symName: __ZNK9Scintilla8Internal10LineLayout15LineLastVisibleEiNS1_5ScopeE, symObjAddr: 0x52C, symBinAddr: 0x16FB4, symSize: 0x48 }
  - { offset: 0xDD238, size: 0x8, addend: 0x0, symName: __ZNK9Scintilla8Internal10LineLayout12SubLineRangeEiNS1_5ScopeE, symObjAddr: 0x574, symBinAddr: 0x16FFC, symSize: 0x80 }
  - { offset: 0xDD27E, size: 0x8, addend: 0x0, symName: __ZNK9Scintilla8Internal10LineLayout12SubLineRangeEiNS1_5ScopeE, symObjAddr: 0x574, symBinAddr: 0x16FFC, symSize: 0x80 }
  - { offset: 0xDD336, size: 0x8, addend: 0x0, symName: __ZNK9Scintilla8Internal10LineLayout6InLineEii, symObjAddr: 0x5F4, symBinAddr: 0x1707C, symSize: 0xA8 }
  - { offset: 0xDD37A, size: 0x8, addend: 0x0, symName: __ZNK9Scintilla8Internal10LineLayout6InLineEii, symObjAddr: 0x5F4, symBinAddr: 0x1707C, symSize: 0xA8 }
  - { offset: 0xDD42F, size: 0x8, addend: 0x0, symName: __ZNK9Scintilla8Internal10LineLayout19SubLineFromPositionEiNS0_8PointEndE, symObjAddr: 0x69C, symBinAddr: 0x17124, symSize: 0x68 }
  - { offset: 0xDD473, size: 0x8, addend: 0x0, symName: __ZNK9Scintilla8Internal10LineLayout19SubLineFromPositionEiNS0_8PointEndE, symObjAddr: 0x69C, symBinAddr: 0x17124, symSize: 0x68 }
  - { offset: 0xDD571, size: 0x8, addend: 0x0, symName: __ZN9Scintilla8Internal10LineLayout12AddLineStartEl, symObjAddr: 0x704, symBinAddr: 0x1718C, symSize: 0xB4 }
  - { offset: 0xDD7ED, size: 0x8, addend: 0x0, symName: __ZN9Scintilla8Internal10LineLayout18SetBracesHighlightENS0_5RangeEPKlcib, symObjAddr: 0x7B8, symBinAddr: 0x17240, symSize: 0xCC }
  - { offset: 0xDD918, size: 0x8, addend: 0x0, symName: __ZN9Scintilla8Internal10LineLayout22RestoreBracesHighlightENS0_5RangeEPKlb, symObjAddr: 0x884, symBinAddr: 0x1730C, symSize: 0xA8 }
  - { offset: 0xDDA29, size: 0x8, addend: 0x0, symName: __ZNK9Scintilla8Internal10LineLayout10FindBeforeEdNS0_5RangeE, symObjAddr: 0x92C, symBinAddr: 0x173B4, symSize: 0x40 }
  - { offset: 0xDDAED, size: 0x8, addend: 0x0, symName: __ZNK9Scintilla8Internal10LineLayout17FindPositionFromXEdNS0_5RangeEb, symObjAddr: 0x96C, symBinAddr: 0x173F4, symSize: 0x8C }
  - { offset: 0xDDBB8, size: 0x8, addend: 0x0, symName: __ZNK9Scintilla8Internal10LineLayout17PointFromPositionEiiNS0_8PointEndE, symObjAddr: 0x9F8, symBinAddr: 0x17480, symSize: 0x148 }
  - { offset: 0xDDD31, size: 0x8, addend: 0x0, symName: __ZNK9Scintilla8Internal10LineLayout7XInLineEl, symObjAddr: 0xB40, symBinAddr: 0x175C8, symSize: 0x28 }
  - { offset: 0xDDD7A, size: 0x8, addend: 0x0, symName: __ZNK9Scintilla8Internal10LineLayout4SpanEii, symObjAddr: 0xB68, symBinAddr: 0x175F0, symSize: 0x10 }
  - { offset: 0xDDDAA, size: 0x8, addend: 0x0, symName: __ZNK9Scintilla8Internal10LineLayout4SpanEii, symObjAddr: 0xB68, symBinAddr: 0x175F0, symSize: 0x10 }
  - { offset: 0xDDDF8, size: 0x8, addend: 0x0, symName: __ZNK9Scintilla8Internal10LineLayout8SpanByteEi, symObjAddr: 0xB78, symBinAddr: 0x17600, symSize: 0x10 }
  - { offset: 0xDDE30, size: 0x8, addend: 0x0, symName: __ZNK9Scintilla8Internal10LineLayout8SpanByteEi, symObjAddr: 0xB78, symBinAddr: 0x17600, symSize: 0x10 }
  - { offset: 0xDDE53, size: 0x8, addend: 0x0, symName: __ZNK9Scintilla8Internal10LineLayout8SpanByteEi, symObjAddr: 0xB78, symBinAddr: 0x17600, symSize: 0x10 }
  - { offset: 0xDDE72, size: 0x8, addend: 0x0, symName: __ZNK9Scintilla8Internal10LineLayout12EndLineStyleEv, symObjAddr: 0xB88, symBinAddr: 0x17610, symSize: 0x1C }
  - { offset: 0xDDEBB, size: 0x8, addend: 0x0, symName: __ZN9Scintilla8Internal10LineLayout8WrapLineEPKNS0_8DocumentElNS_4WrapEd, symObjAddr: 0xBA4, symBinAddr: 0x1762C, symSize: 0x1EC }
  - { offset: 0xDE1B1, size: 0x8, addend: 0x0, symName: __ZN9Scintilla8Internal10ScreenLineC2EPKNS0_10LineLayoutEiRKNS0_9ViewStyleEdi, symObjAddr: 0xD90, symBinAddr: 0x17818, symSize: 0xB0 }
  - { offset: 0xDE2DF, size: 0x8, addend: 0x0, symName: __ZN9Scintilla8Internal10ScreenLineC1EPKNS0_10LineLayoutEiRKNS0_9ViewStyleEdi, symObjAddr: 0xE40, symBinAddr: 0x178C8, symSize: 0x4 }
  - { offset: 0xDE359, size: 0x8, addend: 0x0, symName: __ZN9Scintilla8Internal10ScreenLineC1EPKNS0_10LineLayoutEiRKNS0_9ViewStyleEdi, symObjAddr: 0xE40, symBinAddr: 0x178C8, symSize: 0x4 }
  - { offset: 0xDE391, size: 0x8, addend: 0x0, symName: __ZN9Scintilla8Internal10ScreenLineD2Ev, symObjAddr: 0xE44, symBinAddr: 0x178CC, symSize: 0x4 }
  - { offset: 0xDE3BC, size: 0x8, addend: 0x0, symName: __ZN9Scintilla8Internal10ScreenLineD1Ev, symObjAddr: 0xE48, symBinAddr: 0x178D0, symSize: 0x4 }
  - { offset: 0xDE3E7, size: 0x8, addend: 0x0, symName: __ZN9Scintilla8Internal10ScreenLineD0Ev, symObjAddr: 0xE4C, symBinAddr: 0x178D4, symSize: 0x4 }
  - { offset: 0xDE412, size: 0x8, addend: 0x0, symName: __ZNK9Scintilla8Internal10ScreenLine4TextEv, symObjAddr: 0xE50, symBinAddr: 0x178D8, symSize: 0x18 }
  - { offset: 0xDE461, size: 0x8, addend: 0x0, symName: __ZNK9Scintilla8Internal10ScreenLine6LengthEv, symObjAddr: 0xE68, symBinAddr: 0x178F0, symSize: 0x8 }
  - { offset: 0xDE48A, size: 0x8, addend: 0x0, symName: __ZNK9Scintilla8Internal10ScreenLine19RepresentationCountEv, symObjAddr: 0xE70, symBinAddr: 0x178F8, symSize: 0x44 }
  - { offset: 0xDE590, size: 0x8, addend: 0x0, symName: __ZNK9Scintilla8Internal10ScreenLine5WidthEv, symObjAddr: 0xEB4, symBinAddr: 0x1793C, symSize: 0x8 }
  - { offset: 0xDE5B7, size: 0x8, addend: 0x0, symName: __ZNK9Scintilla8Internal10ScreenLine6HeightEv, symObjAddr: 0xEBC, symBinAddr: 0x17944, symSize: 0x8 }
  - { offset: 0xDE5DE, size: 0x8, addend: 0x0, symName: __ZNK9Scintilla8Internal10ScreenLine8TabWidthEv, symObjAddr: 0xEC4, symBinAddr: 0x1794C, symSize: 0x8 }
  - { offset: 0xDE605, size: 0x8, addend: 0x0, symName: __ZNK9Scintilla8Internal10ScreenLine21TabWidthMinimumPixelsEv, symObjAddr: 0xECC, symBinAddr: 0x17954, symSize: 0xC }
  - { offset: 0xDE677, size: 0x8, addend: 0x0, symName: __ZNK9Scintilla8Internal10ScreenLine14FontOfPositionEm, symObjAddr: 0xED8, symBinAddr: 0x17960, symSize: 0x1C }
  - { offset: 0xDE70B, size: 0x8, addend: 0x0, symName: __ZNK9Scintilla8Internal10ScreenLine19RepresentationWidthEm, symObjAddr: 0xEF4, symBinAddr: 0x1797C, symSize: 0x18 }
  - { offset: 0xDE787, size: 0x8, addend: 0x0, symName: __ZNK9Scintilla8Internal10ScreenLine16TabPositionAfterEd, symObjAddr: 0xF0C, symBinAddr: 0x17994, symSize: 0x6C }
  - { offset: 0xDE821, size: 0x8, addend: 0x0, symName: __ZNK9Scintilla8Internal16SignificantLines12LineMayCacheEl, symObjAddr: 0xF78, symBinAddr: 0x17A00, symSize: 0x6C }
  - { offset: 0xDE8C5, size: 0x8, addend: 0x0, symName: __ZN9Scintilla8Internal15LineLayoutCacheC2Ev, symObjAddr: 0xFE4, symBinAddr: 0x17A6C, symSize: 0x20 }
  - { offset: 0xDE944, size: 0x8, addend: 0x0, symName: __ZN9Scintilla8Internal15LineLayoutCacheC1Ev, symObjAddr: 0x1004, symBinAddr: 0x17A8C, symSize: 0x20 }
  - { offset: 0xDE971, size: 0x8, addend: 0x0, symName: __ZN9Scintilla8Internal15LineLayoutCacheC1Ev, symObjAddr: 0x1004, symBinAddr: 0x17A8C, symSize: 0x20 }
  - { offset: 0xDEA4B, size: 0x8, addend: 0x0, symName: __ZN9Scintilla8Internal15LineLayoutCacheD2Ev, symObjAddr: 0x1024, symBinAddr: 0x17AAC, symSize: 0x44 }
  - { offset: 0xDEB07, size: 0x8, addend: 0x0, symName: __ZNSt3__16vectorINS_10shared_ptrIN9Scintilla8Internal10LineLayoutEEENS_9allocatorIS5_EEE16__destroy_vectorclB8ne180100Ev, symObjAddr: 0x37C0, symBinAddr: 0x1A150, symSize: 0x70 }
  - { offset: 0xDEC97, size: 0x8, addend: 0x0, symName: __ZN9Scintilla8Internal15LineLayoutCacheD1Ev, symObjAddr: 0x1068, symBinAddr: 0x17AF0, symSize: 0x44 }
  - { offset: 0xDED8C, size: 0x8, addend: 0x0, symName: __ZN9Scintilla8Internal15LineLayoutCacheD0Ev, symObjAddr: 0x10AC, symBinAddr: 0x17B34, symSize: 0x48 }
  - { offset: 0xDEEA5, size: 0x8, addend: 0x0, symName: __ZNK9Scintilla8Internal15LineLayoutCache12EntryForLineEl, symObjAddr: 0x10F4, symBinAddr: 0x17B7C, symSize: 0x40 }
  - { offset: 0xDEFA3, size: 0x8, addend: 0x0, symName: __ZN9Scintilla8Internal15LineLayoutCache16AllocateForLevelEll, symObjAddr: 0x1134, symBinAddr: 0x17BBC, symSize: 0x194 }
  - { offset: 0xDF2EE, size: 0x8, addend: 0x0, symName: __ZNSt3__16vectorINS_10shared_ptrIN9Scintilla8Internal10LineLayoutEEENS_9allocatorIS5_EEE6resizeEm, symObjAddr: 0x12C8, symBinAddr: 0x17D50, symSize: 0x6C }
  - { offset: 0xDF428, size: 0x8, addend: 0x0, symName: __ZNSt3__110shared_ptrIN9Scintilla8Internal10LineLayoutEEaSB8ne180100EOS4_, symObjAddr: 0x1388, symBinAddr: 0x17E10, symSize: 0x5C }
  - { offset: 0xDF586, size: 0x8, addend: 0x0, symName: __ZNSt3__110shared_ptrIN9Scintilla8Internal10LineLayoutEE5resetB8ne180100Ev, symObjAddr: 0x1334, symBinAddr: 0x17DBC, symSize: 0x54 }
  - { offset: 0xDF74D, size: 0x8, addend: 0x0, symName: __ZNSt3__16vectorINS_10shared_ptrIN9Scintilla8Internal10LineLayoutEEENS_9allocatorIS5_EEE8__appendEm, symObjAddr: 0x3830, symBinAddr: 0x1A1C0, symSize: 0x124 }
  - { offset: 0xDFC46, size: 0x8, addend: 0x0, symName: __ZNKSt3__16vectorINS_10shared_ptrIN9Scintilla8Internal10LineLayoutEEENS_9allocatorIS5_EEE20__throw_length_errorB8ne180100Ev, symObjAddr: 0x3954, symBinAddr: 0x1A2E4, symSize: 0x14 }
  - { offset: 0xDFC58, size: 0x8, addend: 0x0, symName: __ZNSt3__110shared_ptrIN9Scintilla8Internal10LineLayoutEED2B8ne180100Ev, symObjAddr: 0x3AE4, symBinAddr: 0x1A474, symSize: 0x50 }
  - { offset: 0xDFDAB, size: 0x8, addend: 0x0, symName: __ZN9Scintilla8Internal15LineLayoutCache10DeallocateEv, symObjAddr: 0x13E4, symBinAddr: 0x17E6C, symSize: 0x40 }
  - { offset: 0xDFF0D, size: 0x8, addend: 0x0, symName: __ZN9Scintilla8Internal15LineLayoutCache10InvalidateENS0_10LineLayout10ValidLevelE, symObjAddr: 0x1424, symBinAddr: 0x17EAC, symSize: 0x40 }
  - { offset: 0xE0009, size: 0x8, addend: 0x0, symName: __ZN9Scintilla8Internal15LineLayoutCache8SetLevelENS_9LineCacheE, symObjAddr: 0x1464, symBinAddr: 0x17EEC, symSize: 0x50 }
  - { offset: 0xE023D, size: 0x8, addend: 0x0, symName: __ZN9Scintilla8Internal15LineLayoutCache8RetrieveElliill, symObjAddr: 0x14B4, symBinAddr: 0x17F3C, symSize: 0x244 }
  - { offset: 0xE0AB9, size: 0x8, addend: 0x0, symName: __ZN9Scintilla8Internal22SpecialRepresentations17SetRepresentationENSt3__117basic_string_viewIcNS2_11char_traitsIcEEEES6_, symObjAddr: 0x175C, symBinAddr: 0x181E4, symSize: 0x10C }
  - { offset: 0xE0E97, size: 0x8, addend: 0x0, symName: __ZN9Scintilla8Internal14RepresentationC2ENSt3__117basic_string_viewIcNS2_11char_traitsIcEEEENS_24RepresentationAppearanceE, symObjAddr: 0x324C, symBinAddr: 0x19CD4, symSize: 0xB0 }
  - { offset: 0xE1239, size: 0x8, addend: 0x0, symName: __ZNSt3__13mapIjN9Scintilla8Internal14RepresentationENS_4lessIjEENS_9allocatorINS_4pairIKjS3_EEEEE16insert_or_assignB8ne180100IS3_EENS7_INS_14__map_iteratorINS_15__tree_iteratorINS_12__value_typeIjS3_EEPNS_11__tree_nodeISG_PvEElEEEEbEERS8_OT_, symObjAddr: 0x1868, symBinAddr: 0x182F0, symSize: 0xC8 }
  - { offset: 0xE182F, size: 0x8, addend: 0x0, symName: __ZNSt3__16__treeINS_12__value_typeIjN9Scintilla8Internal14RepresentationEEENS_19__map_value_compareIjS5_NS_4lessIjEELb1EEENS_9allocatorIS5_EEE30__emplace_hint_unique_key_argsIjJRKjS4_EEENS_4pairINS_15__tree_iteratorIS5_PNS_11__tree_nodeIS5_PvEElEEbEENS_21__tree_const_iteratorIS5_SL_lEERKT_DpOT0_, symObjAddr: 0x3B34, symBinAddr: 0x1A4C4, symSize: 0xA8 }
  - { offset: 0xE1C10, size: 0x8, addend: 0x0, symName: __ZN9Scintilla8Internal22SpecialRepresentations27SetRepresentationAppearanceENSt3__117basic_string_viewIcNS2_11char_traitsIcEEEENS_24RepresentationAppearanceE, symObjAddr: 0x1930, symBinAddr: 0x183B8, symSize: 0x64 }
  - { offset: 0xE1DDB, size: 0x8, addend: 0x0, symName: __ZN9Scintilla8Internal22SpecialRepresentations23SetRepresentationColourENSt3__117basic_string_viewIcNS2_11char_traitsIcEEEENS0_10ColourRGBAE, symObjAddr: 0x1994, symBinAddr: 0x1841C, symSize: 0x6C }
  - { offset: 0xE206F, size: 0x8, addend: 0x0, symName: __ZN9Scintilla8Internal22SpecialRepresentations19ClearRepresentationENSt3__117basic_string_viewIcNS2_11char_traitsIcEEEE, symObjAddr: 0x1A00, symBinAddr: 0x18488, symSize: 0x120 }
  - { offset: 0xE238C, size: 0x8, addend: 0x0, symName: __ZNSt3__16__treeINS_12__value_typeIjN9Scintilla8Internal14RepresentationEEENS_19__map_value_compareIjS5_NS_4lessIjEELb1EEENS_9allocatorIS5_EEE5eraseENS_21__tree_const_iteratorIS5_PNS_11__tree_nodeIS5_PvEElEE, symObjAddr: 0x3F70, symBinAddr: 0x1A900, symSize: 0x40 }
  - { offset: 0xE270C, size: 0x8, addend: 0x0, symName: __ZNK9Scintilla8Internal22SpecialRepresentations17GetRepresentationENSt3__117basic_string_viewIcNS2_11char_traitsIcEEEE, symObjAddr: 0x1B20, symBinAddr: 0x185A8, symSize: 0x70 }
  - { offset: 0xE28B0, size: 0x8, addend: 0x0, symName: __ZNK9Scintilla8Internal22SpecialRepresentations27RepresentationFromCharacterENSt3__117basic_string_viewIcNS2_11char_traitsIcEEEE, symObjAddr: 0x1B90, symBinAddr: 0x18618, symSize: 0x30 }
  - { offset: 0xE2951, size: 0x8, addend: 0x0, symName: __ZN9Scintilla8Internal22SpecialRepresentations5ClearEv, symObjAddr: 0x1BC0, symBinAddr: 0x18648, symSize: 0x3C }
  - { offset: 0xE2A6E, size: 0x8, addend: 0x0, symName: __ZNSt3__16__treeINS_12__value_typeIjN9Scintilla8Internal14RepresentationEEENS_19__map_value_compareIjS5_NS_4lessIjEELb1EEENS_9allocatorIS5_EEE7destroyEPNS_11__tree_nodeIS5_PvEE, symObjAddr: 0x43A4, symBinAddr: 0x1AD34, symSize: 0x50 }
  - { offset: 0xE2E10, size: 0x8, addend: 0x0, symName: __ZN9Scintilla8Internal22SpecialRepresentations25SetDefaultRepresentationsEi, symObjAddr: 0x1BFC, symBinAddr: 0x18684, symSize: 0x200 }
  - { offset: 0xE38BC, size: 0x8, addend: 0x0, symName: __ZN9Scintilla8Internal11BreakFinder6InsertEl, symObjAddr: 0x1DFC, symBinAddr: 0x18884, symSize: 0x158 }
  - { offset: 0xE3EF5, size: 0x8, addend: 0x0, symName: __ZNSt3__16vectorIiNS_9allocatorIiEEE6insertENS_11__wrap_iterIPKiEEmRS5_, symObjAddr: 0x1F54, symBinAddr: 0x189DC, symSize: 0x220 }
  - { offset: 0xE3F00, size: 0x8, addend: 0x0, symName: __ZNSt3__16vectorIiNS_9allocatorIiEEE6insertENS_11__wrap_iterIPKiEEmRS5_, symObjAddr: 0x1F54, symBinAddr: 0x189DC, symSize: 0x220 }
  - { offset: 0xE4EC7, size: 0x8, addend: 0x0, symName: __ZN9Scintilla8Internal11BreakFinderC2EPKNS0_10LineLayoutEPKNS0_9SelectionENS0_5RangeEldNS1_8BreakForEPKNS0_8DocumentEPKNS0_22SpecialRepresentationsEPKNS0_9ViewStyleE, symObjAddr: 0x2174, symBinAddr: 0x18BFC, symSize: 0x3FC }
  - { offset: 0xE54EC, size: 0x8, addend: 0x0, symName: __ZN9Scintilla8Internal11BreakFinderC1EPKNS0_10LineLayoutEPKNS0_9SelectionENS0_5RangeEldNS1_8BreakForEPKNS0_8DocumentEPKNS0_22SpecialRepresentationsEPKNS0_9ViewStyleE, symObjAddr: 0x2570, symBinAddr: 0x18FF8, symSize: 0xC }
  - { offset: 0xE55EE, size: 0x8, addend: 0x0, symName: __ZN9Scintilla8Internal11BreakFinderD2Ev, symObjAddr: 0x257C, symBinAddr: 0x19004, symSize: 0x30 }
  - { offset: 0xE575A, size: 0x8, addend: 0x0, symName: __ZN9Scintilla8Internal11BreakFinderD1Ev, symObjAddr: 0x25AC, symBinAddr: 0x19034, symSize: 0x30 }
  - { offset: 0xE5900, size: 0x8, addend: 0x0, symName: __ZN9Scintilla8Internal11BreakFinder4NextEv, symObjAddr: 0x25DC, symBinAddr: 0x19064, symSize: 0x288 }
  - { offset: 0xE5AEC, size: 0x8, addend: 0x0, symName: __ZNK9Scintilla8Internal11BreakFinder4MoreEv, symObjAddr: 0x2864, symBinAddr: 0x192EC, symSize: 0x24 }
  - { offset: 0xE5BFE, size: 0x8, addend: 0x0, symName: __ZN18PositionCacheEntryC2Ev, symObjAddr: 0x2888, symBinAddr: 0x19310, symSize: 0x10 }
  - { offset: 0xE5C20, size: 0x8, addend: 0x0, symName: __ZN18PositionCacheEntryC2Ev, symObjAddr: 0x2888, symBinAddr: 0x19310, symSize: 0x10 }
  - { offset: 0xE5C3E, size: 0x8, addend: 0x0, symName: __ZN18PositionCacheEntryC2Ev, symObjAddr: 0x2888, symBinAddr: 0x19310, symSize: 0x10 }
  - { offset: 0xE5C5C, size: 0x8, addend: 0x0, symName: __ZN18PositionCacheEntryC2Ev, symObjAddr: 0x2888, symBinAddr: 0x19310, symSize: 0x10 }
  - { offset: 0xE5C7A, size: 0x8, addend: 0x0, symName: __ZN18PositionCacheEntryC2Ev, symObjAddr: 0x2888, symBinAddr: 0x19310, symSize: 0x10 }
  - { offset: 0xE5C97, size: 0x8, addend: 0x0, symName: __ZN18PositionCacheEntryC2Ev, symObjAddr: 0x2888, symBinAddr: 0x19310, symSize: 0x10 }
  - { offset: 0xE5CD1, size: 0x8, addend: 0x0, symName: __ZN18PositionCacheEntryC1Ev, symObjAddr: 0x2898, symBinAddr: 0x19320, symSize: 0x10 }
  - { offset: 0xE5CF3, size: 0x8, addend: 0x0, symName: __ZN18PositionCacheEntryC1Ev, symObjAddr: 0x2898, symBinAddr: 0x19320, symSize: 0x10 }
  - { offset: 0xE5D0F, size: 0x8, addend: 0x0, symName: __ZN18PositionCacheEntryC1Ev, symObjAddr: 0x2898, symBinAddr: 0x19320, symSize: 0x10 }
  - { offset: 0xE5D2D, size: 0x8, addend: 0x0, symName: __ZN18PositionCacheEntryC1Ev, symObjAddr: 0x2898, symBinAddr: 0x19320, symSize: 0x10 }
  - { offset: 0xE5D4B, size: 0x8, addend: 0x0, symName: __ZN18PositionCacheEntryC1Ev, symObjAddr: 0x2898, symBinAddr: 0x19320, symSize: 0x10 }
  - { offset: 0xE5D69, size: 0x8, addend: 0x0, symName: __ZN18PositionCacheEntryC1Ev, symObjAddr: 0x2898, symBinAddr: 0x19320, symSize: 0x10 }
  - { offset: 0xE5D86, size: 0x8, addend: 0x0, symName: __ZN18PositionCacheEntryC1Ev, symObjAddr: 0x2898, symBinAddr: 0x19320, symSize: 0x10 }
  - { offset: 0xE5DCF, size: 0x8, addend: 0x0, symName: __ZN18PositionCacheEntryC2ERKS_, symObjAddr: 0x28A8, symBinAddr: 0x19330, symSize: 0x94 }
  - { offset: 0xE5FA1, size: 0x8, addend: 0x0, symName: __ZN18PositionCacheEntryC1ERKS_, symObjAddr: 0x293C, symBinAddr: 0x193C4, symSize: 0x4 }
  - { offset: 0xE5FDD, size: 0x8, addend: 0x0, symName: __ZN18PositionCacheEntryC1ERKS_, symObjAddr: 0x293C, symBinAddr: 0x193C4, symSize: 0x4 }
  - { offset: 0xE600E, size: 0x8, addend: 0x0, symName: __ZN18PositionCacheEntry3SetEjbNSt3__117basic_string_viewIcNS0_11char_traitsIcEEEEPKdt, symObjAddr: 0x2940, symBinAddr: 0x193C8, symSize: 0x100 }
  - { offset: 0xE619E, size: 0x8, addend: 0x0, symName: __ZN18PositionCacheEntry5ClearEv, symObjAddr: 0x2A40, symBinAddr: 0x194C8, symSize: 0x34 }
  - { offset: 0xE6212, size: 0x8, addend: 0x0, symName: __ZN18PositionCacheEntryD2Ev, symObjAddr: 0x2A74, symBinAddr: 0x194FC, symSize: 0x58 }
  - { offset: 0xE6324, size: 0x8, addend: 0x0, symName: __ZN18PositionCacheEntryD1Ev, symObjAddr: 0x2ACC, symBinAddr: 0x19554, symSize: 0x4 }
  - { offset: 0xE6347, size: 0x8, addend: 0x0, symName: __ZN18PositionCacheEntryD1Ev, symObjAddr: 0x2ACC, symBinAddr: 0x19554, symSize: 0x4 }
  - { offset: 0xE635A, size: 0x8, addend: 0x0, symName: __ZNK18PositionCacheEntry8RetrieveEjbNSt3__117basic_string_viewIcNS0_11char_traitsIcEEEEPd, symObjAddr: 0x2AD0, symBinAddr: 0x19558, symSize: 0x80 }
  - { offset: 0xE6463, size: 0x8, addend: 0x0, symName: __ZN18PositionCacheEntry4HashEjbNSt3__117basic_string_viewIcNS0_11char_traitsIcEEEE, symObjAddr: 0x2B50, symBinAddr: 0x195D8, symSize: 0x48 }
  - { offset: 0xE64ED, size: 0x8, addend: 0x0, symName: __ZNKSt3__118__string_view_hashIcEclB8ne180100ENS_17basic_string_viewIcNS_11char_traitsIcEEEE, symObjAddr: 0x2B98, symBinAddr: 0x19620, symSize: 0x24 }
  - { offset: 0xE6563, size: 0x8, addend: 0x0, symName: __ZNKSt3__121__murmur2_or_cityhashImLm64EEclB8ne180100EPKvm, symObjAddr: 0x4500, symBinAddr: 0x1AE48, symSize: 0x208 }
  - { offset: 0xE6AB4, size: 0x8, addend: 0x0, symName: __ZNK18PositionCacheEntry9NewerThanERKS_, symObjAddr: 0x2BBC, symBinAddr: 0x19644, symSize: 0x14 }
  - { offset: 0xE6ADC, size: 0x8, addend: 0x0, symName: __ZN18PositionCacheEntry10ResetClockEv, symObjAddr: 0x2BD0, symBinAddr: 0x19658, symSize: 0x14 }
  - { offset: 0xE6BEB, size: 0x8, addend: 0x0, symName: __ZN13PositionCacheC2Ev, symObjAddr: 0x2BE4, symBinAddr: 0x1966C, symSize: 0xA4 }
  - { offset: 0xE6D47, size: 0x8, addend: 0x0, symName: __ZNSt3__16vectorI18PositionCacheEntryNS_9allocatorIS1_EEE6resizeEm, symObjAddr: 0x2C88, symBinAddr: 0x19710, symSize: 0x6C }
  - { offset: 0xE6E81, size: 0x8, addend: 0x0, symName: __ZNSt3__16vectorI18PositionCacheEntryNS_9allocatorIS1_EEE16__destroy_vectorclB8ne180100Ev, symObjAddr: 0x496C, symBinAddr: 0x1B2B4, symSize: 0x70 }
  - { offset: 0xE70CF, size: 0x8, addend: 0x0, symName: __ZNSt3__16vectorI18PositionCacheEntryNS_9allocatorIS1_EEE8__appendEm, symObjAddr: 0x49DC, symBinAddr: 0x1B324, symSize: 0x168 }
  - { offset: 0xE77C4, size: 0x8, addend: 0x0, symName: __ZNKSt3__16vectorI18PositionCacheEntryNS_9allocatorIS1_EEE20__throw_length_errorB8ne180100Ev, symObjAddr: 0x4B44, symBinAddr: 0x1B48C, symSize: 0x14 }
  - { offset: 0xE77D5, size: 0x8, addend: 0x0, symName: __ZN13PositionCacheC1Ev, symObjAddr: 0x2CF4, symBinAddr: 0x1977C, symSize: 0x4 }
  - { offset: 0xE77F8, size: 0x8, addend: 0x0, symName: __ZN13PositionCacheC1Ev, symObjAddr: 0x2CF4, symBinAddr: 0x1977C, symSize: 0x4 }
  - { offset: 0xE783B, size: 0x8, addend: 0x0, symName: __ZN13PositionCache5ClearEv, symObjAddr: 0x2CF8, symBinAddr: 0x19780, symSize: 0x64 }
  - { offset: 0xE795F, size: 0x8, addend: 0x0, symName: __ZN13PositionCache7SetSizeEm, symObjAddr: 0x2D5C, symBinAddr: 0x197E4, symSize: 0x34 }
  - { offset: 0xE79BA, size: 0x8, addend: 0x0, symName: __ZNK13PositionCache7GetSizeEv, symObjAddr: 0x2D90, symBinAddr: 0x19818, symSize: 0x10 }
  - { offset: 0xE79E4, size: 0x8, addend: 0x0, symName: __ZNK13PositionCache7GetSizeEv, symObjAddr: 0x2D90, symBinAddr: 0x19818, symSize: 0x10 }
  - { offset: 0xE7BB3, size: 0x8, addend: 0x0, symName: __ZN13PositionCache13MeasureWidthsEPN9Scintilla8Internal7SurfaceERKNS1_9ViewStyleEjbNSt3__117basic_string_viewIcNS7_11char_traitsIcEEEEPdb, symObjAddr: 0x2DA0, symBinAddr: 0x19828, symSize: 0x374 }
  - { offset: 0xE818D, size: 0x8, addend: 0x0, symName: __ZNSt3__111unique_lockINS_5mutexEE4lockEv, symObjAddr: 0x3114, symBinAddr: 0x19B9C, symSize: 0x58 }
  - { offset: 0xE81C9, size: 0x8, addend: 0x0, symName: __ZN9Scintilla8Internal19CreatePositionCacheEv, symObjAddr: 0x316C, symBinAddr: 0x19BF4, symSize: 0x44 }
  - { offset: 0xE83AB, size: 0x8, addend: 0x0, symName: __ZN13PositionCacheD1Ev, symObjAddr: 0x31B0, symBinAddr: 0x19C38, symSize: 0x4C }
  - { offset: 0xE849D, size: 0x8, addend: 0x0, symName: __ZN13PositionCacheD0Ev, symObjAddr: 0x31FC, symBinAddr: 0x19C84, symSize: 0x50 }
  - { offset: 0xE8C1F, size: 0x8, addend: 0x0, symName: __ZNSt3__114__split_bufferINS_10shared_ptrIN9Scintilla8Internal4FontEEERNS_9allocatorIS5_EEED2Ev, symObjAddr: 0x3568, symBinAddr: 0x19F40, symSize: 0x4C }
  - { offset: 0xE8DA7, size: 0x8, addend: 0x0, symName: __ZNKSt3__16vectorINS_10shared_ptrIN9Scintilla8Internal4FontEEENS_9allocatorIS5_EEE20__throw_length_errorB8ne180100Ev, symObjAddr: 0x34D0, symBinAddr: 0x19EA8, symSize: 0x14 }
  - { offset: 0xE8DCF, size: 0x8, addend: 0x0, symName: __ZNSt3__119__allocate_at_leastB8ne180100INS_9allocatorINS_10shared_ptrIN9Scintilla8Internal4FontEEEEEEENS_19__allocation_resultINS_16allocator_traitsIT_E7pointerEEERSA_m, symObjAddr: 0x34E4, symBinAddr: 0x19EBC, symSize: 0x34 }
  - { offset: 0xE930F, size: 0x8, addend: 0x0, symName: __ZNSt3__16vectorINS_10shared_ptrIN9Scintilla8Internal4FontEEENS_9allocatorIS5_EEE16__destroy_vectorclB8ne180100Ev, symObjAddr: 0x3750, symBinAddr: 0x1A0E0, symSize: 0x70 }
  - { offset: 0xE98CD, size: 0x8, addend: 0x0, symName: __ZNSt3__114__split_bufferINS_10shared_ptrIN9Scintilla8Internal10LineLayoutEEERNS_9allocatorIS5_EEED2Ev, symObjAddr: 0x399C, symBinAddr: 0x1A32C, symSize: 0x4C }
  - { offset: 0xE9A55, size: 0x8, addend: 0x0, symName: __ZNKSt3__16vectorINS_10shared_ptrIN9Scintilla8Internal10LineLayoutEEENS_9allocatorIS5_EEE20__throw_length_errorB8ne180100Ev, symObjAddr: 0x3954, symBinAddr: 0x1A2E4, symSize: 0x14 }
  - { offset: 0xE9A7D, size: 0x8, addend: 0x0, symName: __ZNSt3__119__allocate_at_leastB8ne180100INS_9allocatorINS_10shared_ptrIN9Scintilla8Internal10LineLayoutEEEEEEENS_19__allocation_resultINS_16allocator_traitsIT_E7pointerEEERSA_m, symObjAddr: 0x3968, symBinAddr: 0x1A2F8, symSize: 0x34 }
  - { offset: 0xE9D51, size: 0x8, addend: 0x0, symName: __ZNSt3__120__shared_ptr_emplaceIN9Scintilla8Internal10LineLayoutENS_9allocatorIS3_EEEC2B8ne180100IJRlRiES5_Li0EEES5_DpOT_, symObjAddr: 0x3A48, symBinAddr: 0x1A3D8, symSize: 0x54 }
  - { offset: 0xE9FEB, size: 0x8, addend: 0x0, symName: __ZNSt3__120__shared_ptr_emplaceIN9Scintilla8Internal10LineLayoutENS_9allocatorIS3_EEED1Ev, symObjAddr: 0x3A9C, symBinAddr: 0x1A42C, symSize: 0x14 }
  - { offset: 0xEA00D, size: 0x8, addend: 0x0, symName: __ZNSt3__120__shared_ptr_emplaceIN9Scintilla8Internal10LineLayoutENS_9allocatorIS3_EEED1Ev, symObjAddr: 0x3A9C, symBinAddr: 0x1A42C, symSize: 0x14 }
  - { offset: 0xEA042, size: 0x8, addend: 0x0, symName: __ZNSt3__120__shared_ptr_emplaceIN9Scintilla8Internal10LineLayoutENS_9allocatorIS3_EEED0Ev, symObjAddr: 0x3AB0, symBinAddr: 0x1A440, symSize: 0x24 }
  - { offset: 0xEA128, size: 0x8, addend: 0x0, symName: __ZNSt3__120__shared_ptr_emplaceIN9Scintilla8Internal10LineLayoutENS_9allocatorIS3_EEE16__on_zero_sharedEv, symObjAddr: 0x3AD4, symBinAddr: 0x1A464, symSize: 0xC }
  - { offset: 0xEA150, size: 0x8, addend: 0x0, symName: __ZNSt3__120__shared_ptr_emplaceIN9Scintilla8Internal10LineLayoutENS_9allocatorIS3_EEE16__on_zero_sharedEv, symObjAddr: 0x3AD4, symBinAddr: 0x1A464, symSize: 0xC }
  - { offset: 0xEA16E, size: 0x8, addend: 0x0, symName: __ZNSt3__120__shared_ptr_emplaceIN9Scintilla8Internal10LineLayoutENS_9allocatorIS3_EEE16__on_zero_sharedEv, symObjAddr: 0x3AD4, symBinAddr: 0x1A464, symSize: 0xC }
  - { offset: 0xEA18C, size: 0x8, addend: 0x0, symName: __ZNSt3__120__shared_ptr_emplaceIN9Scintilla8Internal10LineLayoutENS_9allocatorIS3_EEE16__on_zero_sharedEv, symObjAddr: 0x3AD4, symBinAddr: 0x1A464, symSize: 0xC }
  - { offset: 0xEA1B7, size: 0x8, addend: 0x0, symName: __ZNSt3__120__shared_ptr_emplaceIN9Scintilla8Internal10LineLayoutENS_9allocatorIS3_EEE21__on_zero_shared_weakEv, symObjAddr: 0x3AE0, symBinAddr: 0x1A470, symSize: 0x4 }
  - { offset: 0xEA1E9, size: 0x8, addend: 0x0, symName: __ZNSt3__120__shared_ptr_emplaceIN9Scintilla8Internal10LineLayoutENS_9allocatorIS3_EEE21__on_zero_shared_weakEv, symObjAddr: 0x3AE0, symBinAddr: 0x1A470, symSize: 0x4 }
  - { offset: 0xEA20B, size: 0x8, addend: 0x0, symName: __ZNSt3__120__shared_ptr_emplaceIN9Scintilla8Internal10LineLayoutENS_9allocatorIS3_EEE21__on_zero_shared_weakEv, symObjAddr: 0x3AE0, symBinAddr: 0x1A470, symSize: 0x4 }
  - { offset: 0xEA22D, size: 0x8, addend: 0x0, symName: __ZNSt3__120__shared_ptr_emplaceIN9Scintilla8Internal10LineLayoutENS_9allocatorIS3_EEE21__on_zero_shared_weakEv, symObjAddr: 0x3AE0, symBinAddr: 0x1A470, symSize: 0x4 }
  - { offset: 0xEA25A, size: 0x8, addend: 0x0, symName: __ZNSt3__120__shared_ptr_emplaceIN9Scintilla8Internal10LineLayoutENS_9allocatorIS3_EEE21__on_zero_shared_weakEv, symObjAddr: 0x3AE0, symBinAddr: 0x1A470, symSize: 0x4 }
  - { offset: 0xEA282, size: 0x8, addend: 0x0, symName: __ZNSt3__120__shared_ptr_emplaceIN9Scintilla8Internal10LineLayoutENS_9allocatorIS3_EEE21__on_zero_shared_weakEv, symObjAddr: 0x3AE0, symBinAddr: 0x1A470, symSize: 0x4 }
  - { offset: 0xEA500, size: 0x8, addend: 0x0, symName: __ZNSt3__16__treeINS_12__value_typeIjN9Scintilla8Internal14RepresentationEEENS_19__map_value_compareIjS5_NS_4lessIjEELb1EEENS_9allocatorIS5_EEE12__find_equalIjEERPNS_16__tree_node_baseIPvEENS_21__tree_const_iteratorIS5_PNS_11__tree_nodeIS5_SF_EElEERPNS_15__tree_end_nodeISH_EESI_RKT_, symObjAddr: 0x3BDC, symBinAddr: 0x1A56C, symSize: 0x1A8 }
  - { offset: 0xEA568, size: 0x8, addend: 0x0, symName: __ZNSt3__16__treeINS_12__value_typeIjN9Scintilla8Internal14RepresentationEEENS_19__map_value_compareIjS5_NS_4lessIjEELb1EEENS_9allocatorIS5_EEE12__find_equalIjEERPNS_16__tree_node_baseIPvEENS_21__tree_const_iteratorIS5_PNS_11__tree_nodeIS5_SF_EElEERPNS_15__tree_end_nodeISH_EESI_RKT_, symObjAddr: 0x3BDC, symBinAddr: 0x1A56C, symSize: 0x1A8 }
  - { offset: 0xEA584, size: 0x8, addend: 0x0, symName: __ZNSt3__16__treeINS_12__value_typeIjN9Scintilla8Internal14RepresentationEEENS_19__map_value_compareIjS5_NS_4lessIjEELb1EEENS_9allocatorIS5_EEE12__find_equalIjEERPNS_16__tree_node_baseIPvEENS_21__tree_const_iteratorIS5_PNS_11__tree_nodeIS5_SF_EElEERPNS_15__tree_end_nodeISH_EESI_RKT_, symObjAddr: 0x3BDC, symBinAddr: 0x1A56C, symSize: 0x1A8 }
  - { offset: 0xEA8D4, size: 0x8, addend: 0x0, symName: __ZNSt3__16__treeINS_12__value_typeIjN9Scintilla8Internal14RepresentationEEENS_19__map_value_compareIjS5_NS_4lessIjEELb1EEENS_9allocatorIS5_EEE16__insert_node_atEPNS_15__tree_end_nodeIPNS_16__tree_node_baseIPvEEEERSH_SH_, symObjAddr: 0x3D84, symBinAddr: 0x1A714, symSize: 0x54 }
  - { offset: 0xEAAC8, size: 0x8, addend: 0x0, symName: __ZNSt3__16__treeINS_12__value_typeIjN9Scintilla8Internal14RepresentationEEENS_19__map_value_compareIjS5_NS_4lessIjEELb1EEENS_9allocatorIS5_EEE21__remove_node_pointerEPNS_11__tree_nodeIS5_PvEE, symObjAddr: 0x3FB0, symBinAddr: 0x1A940, symSize: 0x70 }
  - { offset: 0xEAD0E, size: 0x8, addend: 0x0, symName: __ZNSt3__121__murmur2_or_cityhashImLm64EE18__hash_len_0_to_16B8ne180100EPKcm, symObjAddr: 0x4708, symBinAddr: 0x1B050, symSize: 0xF8 }
  - { offset: 0xEAF13, size: 0x8, addend: 0x0, symName: __ZNSt3__121__murmur2_or_cityhashImLm64EE19__hash_len_33_to_64B8ne180100EPKcm, symObjAddr: 0x48AC, symBinAddr: 0x1B1F4, symSize: 0xC0 }
  - { offset: 0xEB179, size: 0x8, addend: 0x0, symName: __ZNSt3__121__murmur2_or_cityhashImLm64EE19__hash_len_17_to_32B8ne180100EPKcm, symObjAddr: 0x4800, symBinAddr: 0x1B148, symSize: 0xAC }
  - { offset: 0xEB8DB, size: 0x8, addend: 0x0, symName: __ZNSt3__114__split_bufferI18PositionCacheEntryRNS_9allocatorIS1_EEED2Ev, symObjAddr: 0x4B8C, symBinAddr: 0x1B4D4, symSize: 0x4C }
  - { offset: 0xEBA63, size: 0x8, addend: 0x0, symName: __ZNKSt3__16vectorI18PositionCacheEntryNS_9allocatorIS1_EEE20__throw_length_errorB8ne180100Ev, symObjAddr: 0x4B44, symBinAddr: 0x1B48C, symSize: 0x14 }
  - { offset: 0xEBA8B, size: 0x8, addend: 0x0, symName: __ZNSt3__119__allocate_at_leastB8ne180100INS_9allocatorI18PositionCacheEntryEEEENS_19__allocation_resultINS_16allocator_traitsIT_E7pointerEEERS6_m, symObjAddr: 0x4B58, symBinAddr: 0x1B4A0, symSize: 0x34 }
  - { offset: 0xEDA11, size: 0x8, addend: 0x0, symName: __ZN9Scintilla8Internal14DrawWrapMarkerEPNS0_7SurfaceENS0_10PRectangleEbNS0_10ColourRGBAE, symObjAddr: 0x0, symBinAddr: 0x1B520, symSize: 0x1F4 }
  - { offset: 0xEE7BB, size: 0x8, addend: 0x0, symName: __ZN9Scintilla8Internal14DrawWrapMarkerEPNS0_7SurfaceENS0_10PRectangleEbNS0_10ColourRGBAE, symObjAddr: 0x0, symBinAddr: 0x1B520, symSize: 0x1F4 }
  - { offset: 0xFEC22, size: 0x8, addend: 0x0, symName: __ZN9Scintilla8Internal10MarginViewC2Ev, symObjAddr: 0x1F4, symBinAddr: 0x1B714, symSize: 0x28 }
  - { offset: 0xFED42, size: 0x8, addend: 0x0, symName: __ZN9Scintilla8Internal10MarginViewC1Ev, symObjAddr: 0x21C, symBinAddr: 0x1B73C, symSize: 0x28 }
  - { offset: 0xFED6E, size: 0x8, addend: 0x0, symName: __ZN9Scintilla8Internal10MarginViewC1Ev, symObjAddr: 0x21C, symBinAddr: 0x1B73C, symSize: 0x28 }
  - { offset: 0xFEEB7, size: 0x8, addend: 0x0, symName: __ZN9Scintilla8Internal10MarginView12DropGraphicsEv, symObjAddr: 0x244, symBinAddr: 0x1B764, symSize: 0x6C }
  - { offset: 0xFF0F2, size: 0x8, addend: 0x0, symName: __ZN9Scintilla8Internal10MarginView14RefreshPixMapsEPNS0_7SurfaceERKNS0_9ViewStyleE, symObjAddr: 0x2B0, symBinAddr: 0x1B7D0, symSize: 0x224 }
  - { offset: 0xFFA62, size: 0x8, addend: 0x0, symName: __ZNK9Scintilla8Internal10MarginView14PaintOneMarginEPNS0_7SurfaceENS0_10PRectangleES4_RKNS0_11MarginStyleERKNS0_9EditModelERKNS0_9ViewStyleE, symObjAddr: 0x4D4, symBinAddr: 0x1B9F4, symSize: 0xAC4 }
  - { offset: 0x100E13, size: 0x8, addend: 0x0, symName: __ZN9Scintilla8Internal10MarginView11PaintMarginEPNS0_7SurfaceElNS0_10PRectangleES4_RKNS0_9EditModelERKNS0_9ViewStyleE, symObjAddr: 0xF98, symBinAddr: 0x1C4B8, symSize: 0x274 }
  - { offset: 0x103006, size: 0x8, addend: 0x0, symName: __ZNK9Scintilla8Internal9Indicator4DrawEPNS0_7SurfaceERKNS0_10PRectangleES6_S6_NS1_5StateEi, symObjAddr: 0x0, symBinAddr: 0x1C72C, symSize: 0x12A0 }
  - { offset: 0x1073BF, size: 0x8, addend: 0x0, symName: __ZNSt3__119__allocate_at_leastB8ne180100INS_9allocatorIN9Scintilla8Internal10ColourStopEEEEENS_19__allocation_resultINS_16allocator_traitsIT_E7pointerEEERS8_m, symObjAddr: 0x13A0, symBinAddr: 0x1DA30, symSize: 0x34 }
  - { offset: 0x10746F, size: 0x8, addend: 0x0, symName: __ZNSt3__119__allocate_at_leastB8ne180100INS_9allocatorIN9Scintilla8Internal5PointEEEEENS_19__allocation_resultINS_16allocator_traitsIT_E7pointerEEERS8_m, symObjAddr: 0x1330, symBinAddr: 0x1D9E8, symSize: 0x34 }
  - { offset: 0x10939C, size: 0x8, addend: 0x0, symName: __ZNK9Scintilla8Internal9Indicator4DrawEPNS0_7SurfaceERKNS0_10PRectangleES6_S6_NS1_5StateEi, symObjAddr: 0x0, symBinAddr: 0x1C72C, symSize: 0x12A0 }
  - { offset: 0x10CFDF, size: 0x8, addend: 0x0, symName: __ZNKSt3__16vectorIN9Scintilla8Internal5PointENS_9allocatorIS3_EEE20__throw_length_errorB8ne180100Ev, symObjAddr: 0x12A8, symBinAddr: 0x1D9D4, symSize: 0x14 }
  - { offset: 0x10D012, size: 0x8, addend: 0x0, symName: __ZNKSt3__16vectorIN9Scintilla8Internal10ColourStopENS_9allocatorIS3_EEE20__throw_length_errorB8ne180100Ev, symObjAddr: 0x138C, symBinAddr: 0x1DA1C, symSize: 0x14 }
  - { offset: 0x10D03A, size: 0x8, addend: 0x0, symName: __ZNSt3__119__allocate_at_leastB8ne180100INS_9allocatorIN9Scintilla8Internal10ColourStopEEEEENS_19__allocation_resultINS_16allocator_traitsIT_E7pointerEEERS8_m, symObjAddr: 0x13A0, symBinAddr: 0x1DA30, symSize: 0x34 }
  - { offset: 0x10D045, size: 0x8, addend: 0x0, symName: __ZN9Scintilla8Internal9Indicator8SetFlagsENS_9IndicFlagE, symObjAddr: 0x12A0, symBinAddr: 0x1D9CC, symSize: 0x8 }
  - { offset: 0x112A0E, size: 0x8, addend: 0x0, symName: __ZN9Scintilla8Internal13IsPunctuationEi, symObjAddr: 0x2E9C, symBinAddr: 0x208F0, symSize: 0x40 }
  - { offset: 0x112B5B, size: 0x8, addend: 0x0, symName: __ZN9Scintilla8Internal17CreateRegexSearchEPNS0_12CharClassifyE, symObjAddr: 0x5964, symBinAddr: 0x233B8, symSize: 0x64 }
  - { offset: 0x1339DC, size: 0x8, addend: 0x0, symName: __ZNSt3__17advanceB8ne180100IN12_GLOBAL__N_112UTF8IteratorEllvEEvRT_T0_, symObjAddr: 0x119E4, symBinAddr: 0x2F21C, symSize: 0x74 }
  - { offset: 0x143E12, size: 0x8, addend: 0x0, symName: __ZNSt3__119__allocate_at_leastB8ne180100INS_9allocatorIN9Scintilla8Internal8Document19WatcherWithUserDataEEEEENS_19__allocation_resultINS_16allocator_traitsIT_E7pointerEEERS9_m, symObjAddr: 0x1E1B0, symBinAddr: 0x3B73C, symSize: 0x34 }
  - { offset: 0x145812, size: 0x8, addend: 0x0, symName: __ZNSt3__112regex_searchB8ne180100IN12_GLOBAL__N_112ByteIteratorENS_9allocatorINS_9sub_matchIS2_EEEEcNS_12regex_traitsIcEEEEbT_S9_RNS_13match_resultsIS9_T0_EERKNS_11basic_regexIT1_T2_EENS_15regex_constants15match_flag_typeE, symObjAddr: 0x1BA74, symBinAddr: 0x390B0, symSize: 0x4A4 }
  - { offset: 0x146BA3, size: 0x8, addend: 0x0, symName: __ZNSt3__119__allocate_at_leastB8ne180100INS_9allocatorINS_9sub_matchIN12_GLOBAL__N_112ByteIteratorEEEEEEENS_19__allocation_resultINS_16allocator_traitsIT_E7pointerEEERS9_m, symObjAddr: 0x1E030, symBinAddr: 0x3B66C, symSize: 0x44 }
  - { offset: 0x146C34, size: 0x8, addend: 0x0, symName: __ZN9Scintilla8Internal10RegexErrorD0Ev, symObjAddr: 0x1E074, symBinAddr: 0x3B6B0, symSize: 0x14 }
  - { offset: 0x146C48, size: 0x8, addend: 0x0, symName: __ZNSt3__112regex_searchB8ne180100IN12_GLOBAL__N_112UTF8IteratorENS_9allocatorINS_9sub_matchIS2_EEEEwNS_12regex_traitsIwEEEEbT_S9_RNS_13match_resultsIS9_T0_EERKNS_11basic_regexIT1_T2_EENS_15regex_constants15match_flag_typeE, symObjAddr: 0x1123C, symBinAddr: 0x2EA74, symSize: 0x4A8 }
  - { offset: 0x147EDE, size: 0x8, addend: 0x0, symName: __ZNSt3__119__allocate_at_leastB8ne180100INS_9allocatorINS_9sub_matchIN12_GLOBAL__N_112UTF8IteratorEEEEEEENS_19__allocation_resultINS_16allocator_traitsIT_E7pointerEEERS9_m, symObjAddr: 0x1388C, symBinAddr: 0x310C4, symSize: 0x44 }
  - { offset: 0x147F6F, size: 0x8, addend: 0x0, symName: __ZNSt3__112regex_traitsIcEC2Ev, symObjAddr: 0x138D0, symBinAddr: 0x31108, symSize: 0x5C }
  - { offset: 0x14804E, size: 0x8, addend: 0x0, symName: __ZNSt3__119__throw_regex_errorB8ne180100ILNS_15regex_constants10error_typeE17EEEvv, symObjAddr: 0x89F0, symBinAddr: 0x26444, symSize: 0x4C }
  - { offset: 0x148478, size: 0x8, addend: 0x0, symName: __ZNSt3__119__throw_regex_errorB8ne180100ILNS_15regex_constants10error_typeE14EEEvv, symObjAddr: 0x8FF8, symBinAddr: 0x26A4C, symSize: 0x4C }
  - { offset: 0x148663, size: 0x8, addend: 0x0, symName: __ZNSt3__119__throw_regex_errorB8ne180100ILNS_15regex_constants10error_typeE15EEEvv, symObjAddr: 0x10790, symBinAddr: 0x2DFC8, symSize: 0x4C }
  - { offset: 0x1493E8, size: 0x8, addend: 0x0, symName: __ZNSt3__119__throw_regex_errorB8ne180100ILNS_15regex_constants10error_typeE6EEEvv, symObjAddr: 0x9C9C, symBinAddr: 0x276F0, symSize: 0x4C }
  - { offset: 0x149485, size: 0x8, addend: 0x0, symName: __ZNSt3__119__throw_regex_errorB8ne180100ILNS_15regex_constants10error_typeE11EEEvv, symObjAddr: 0xB6E0, symBinAddr: 0x29098, symSize: 0x4C }
  - { offset: 0x1494AB, size: 0x8, addend: 0x0, symName: __ZNSt3__119__throw_regex_errorB8ne180100ILNS_15regex_constants10error_typeE8EEEvv, symObjAddr: 0x102A0, symBinAddr: 0x2DAD8, symSize: 0x4C }
  - { offset: 0x1494D1, size: 0x8, addend: 0x0, symName: __ZNSt3__119__throw_regex_errorB8ne180100ILNS_15regex_constants10error_typeE7EEEvv, symObjAddr: 0x102EC, symBinAddr: 0x2DB24, symSize: 0x4C }
  - { offset: 0x14998D, size: 0x8, addend: 0x0, symName: __ZNSt3__119__throw_regex_errorB8ne180100ILNS_15regex_constants10error_typeE12EEEvv, symObjAddr: 0xAB2C, symBinAddr: 0x284E4, symSize: 0x4C }
  - { offset: 0x1499B3, size: 0x8, addend: 0x0, symName: __ZNSt3__119__throw_regex_errorB8ne180100ILNS_15regex_constants10error_typeE16EEEvv, symObjAddr: 0xAB78, symBinAddr: 0x28530, symSize: 0x4C }
  - { offset: 0x149A72, size: 0x8, addend: 0x0, symName: __ZNSt3__119__allocate_at_leastB8ne180100INS_9allocatorINS_9sub_matchIPKwEEEEEENS_19__allocation_resultINS_16allocator_traitsIT_E7pointerEEERS9_m, symObjAddr: 0xA9A0, symBinAddr: 0x283F4, symSize: 0x44 }
  - { offset: 0x149BD9, size: 0x8, addend: 0x0, symName: __ZNSt3__119__allocate_at_leastB8ne180100INS_9allocatorINS_7__stateIwEEEEEENS_19__allocation_resultINS_16allocator_traitsIT_E7pointerEEERS7_m, symObjAddr: 0xAD98, symBinAddr: 0x28750, symSize: 0x44 }
  - { offset: 0x149C76, size: 0x8, addend: 0x0, symName: __ZNSt3__142__uninitialized_allocator_move_if_noexceptB8ne180100INS_9allocatorINS_7__stateIwEEEENS_16reverse_iteratorIPS3_EES7_S7_EET2_RT_T0_T1_S8_, symObjAddr: 0xADDC, symBinAddr: 0x28794, symSize: 0xE0 }
  - { offset: 0x149CD0, size: 0x8, addend: 0x0, symName: __ZNSt3__142__uninitialized_allocator_move_if_noexceptB8ne180100INS_9allocatorINS_7__stateIwEEEENS_16reverse_iteratorIPS3_EES7_S7_EET2_RT_T0_T1_S8_, symObjAddr: 0xADDC, symBinAddr: 0x28794, symSize: 0xE0 }
  - { offset: 0x14A22B, size: 0x8, addend: 0x0, symName: __ZNSt3__119__allocate_at_leastB8ne180100INS_9allocatorINS_4pairImPKwEEEEEENS_19__allocation_resultINS_16allocator_traitsIT_E7pointerEEERS9_m, symObjAddr: 0xB28C, symBinAddr: 0x28C44, symSize: 0x34 }
  - { offset: 0x14A2C8, size: 0x8, addend: 0x0, symName: __ZNSt3__16vectorINS_9sub_matchIPKwEENS_9allocatorIS4_EEE16__init_with_sizeB8ne180100IPS4_S9_EEvT_T0_m, symObjAddr: 0xB2C0, symBinAddr: 0x28C78, symSize: 0x7C }
  - { offset: 0x14A61E, size: 0x8, addend: 0x0, symName: __ZNSt3__119__throw_regex_errorB8ne180100ILNS_15regex_constants10error_typeE3EEEvv, symObjAddr: 0xB81C, symBinAddr: 0x291D4, symSize: 0x4C }
  - { offset: 0x14A644, size: 0x8, addend: 0x0, symName: __ZNSt3__119__throw_regex_errorB8ne180100ILNS_15regex_constants10error_typeE5EEEvv, symObjAddr: 0xDC20, symBinAddr: 0x2B590, symSize: 0x4C }
  - { offset: 0x14A77C, size: 0x8, addend: 0x0, symName: __ZNSt3__119__throw_regex_errorB8ne180100ILNS_15regex_constants10error_typeE4EEEvv, symObjAddr: 0xBE48, symBinAddr: 0x29800, symSize: 0x4C }
  - { offset: 0x14B09D, size: 0x8, addend: 0x0, symName: __ZNSt3__112basic_stringIwNS_11char_traitsIwEENS_9allocatorIwEEE16__assign_trivialB8ne180100INS_11__wrap_iterIPcEES9_EEvT_T0_m, symObjAddr: 0xDA48, symBinAddr: 0x2B3B8, symSize: 0xCC }
  - { offset: 0x14B801, size: 0x8, addend: 0x0, symName: __ZNSt3__119__throw_regex_errorB8ne180100ILNS_15regex_constants10error_typeE1EEEvv, symObjAddr: 0xEC88, symBinAddr: 0x2C5F8, symSize: 0x4C }
  - { offset: 0x14B827, size: 0x8, addend: 0x0, symName: __ZNSt3__119__throw_regex_errorB8ne180100ILNS_15regex_constants10error_typeE2EEEvv, symObjAddr: 0xF628, symBinAddr: 0x2CE60, symSize: 0x4C }
  - { offset: 0x14B889, size: 0x8, addend: 0x0, symName: __ZNSt3__119__throw_regex_errorB8ne180100ILNS_15regex_constants10error_typeE9EEEvv, symObjAddr: 0xFBF0, symBinAddr: 0x2D428, symSize: 0x4C }
  - { offset: 0x14B9D9, size: 0x8, addend: 0x0, symName: __ZNSt3__119__allocate_at_leastB8ne180100INS_9allocatorINS_4pairIwwEEEEEENS_19__allocation_resultINS_16allocator_traitsIT_E7pointerEEERS7_m, symObjAddr: 0xFEC8, symBinAddr: 0x2D700, symSize: 0x34 }
  - { offset: 0x14BA76, size: 0x8, addend: 0x0, symName: __ZNSt3__128__begin_marked_subexpressionIwED1Ev, symObjAddr: 0xFEFC, symBinAddr: 0x2D734, symSize: 0x44 }
  - { offset: 0x14BBE1, size: 0x8, addend: 0x0, symName: __ZNSt3__119__allocate_at_leastB8ne180100INS_9allocatorINS_12basic_stringIwNS_11char_traitsIwEENS1_IwEEEEEEEENS_19__allocation_resultINS_16allocator_traitsIT_E7pointerEEERSA_m, symObjAddr: 0xF448, symBinAddr: 0x2CC80, symSize: 0x44 }
  - { offset: 0x14BC7E, size: 0x8, addend: 0x0, symName: __ZNSt3__142__uninitialized_allocator_move_if_noexceptB8ne180100INS_9allocatorINS_12basic_stringIwNS_11char_traitsIwEENS1_IwEEEEEENS_16reverse_iteratorIPS6_EESA_SA_EET2_RT_T0_T1_SB_, symObjAddr: 0xF48C, symBinAddr: 0x2CCC4, symSize: 0x9C }
  - { offset: 0x14BFFE, size: 0x8, addend: 0x0, symName: __ZNSt3__142__uninitialized_allocator_move_if_noexceptB8ne180100INS_9allocatorINS_12basic_stringIwNS_11char_traitsIwEENS1_IwEEEEEENS_16reverse_iteratorIPS6_EESA_SA_EET2_RT_T0_T1_SB_, symObjAddr: 0xF48C, symBinAddr: 0x2CCC4, symSize: 0x9C }
  - { offset: 0x14C339, size: 0x8, addend: 0x0, symName: __ZNSt3__119__allocate_at_leastB8ne180100INS_9allocatorINS_4pairINS_12basic_stringIwNS_11char_traitsIwEENS1_IwEEEES7_EEEEEENS_19__allocation_resultINS_16allocator_traitsIT_E7pointerEEERSC_m, symObjAddr: 0xFCC4, symBinAddr: 0x2D4FC, symSize: 0x44 }
  - { offset: 0x14C3D6, size: 0x8, addend: 0x0, symName: __ZNSt3__142__uninitialized_allocator_move_if_noexceptB8ne180100INS_9allocatorINS_4pairINS_12basic_stringIwNS_11char_traitsIwEENS1_IwEEEES7_EEEENS_16reverse_iteratorIPS8_EESC_SC_EET2_RT_T0_T1_SD_, symObjAddr: 0xFD08, symBinAddr: 0x2D540, symSize: 0xB4 }
  - { offset: 0x14C430, size: 0x8, addend: 0x0, symName: __ZNSt3__142__uninitialized_allocator_move_if_noexceptB8ne180100INS_9allocatorINS_4pairINS_12basic_stringIwNS_11char_traitsIwEENS1_IwEEEES7_EEEENS_16reverse_iteratorIPS8_EESC_SC_EET2_RT_T0_T1_SD_, symObjAddr: 0xFD08, symBinAddr: 0x2D540, symSize: 0xB4 }
  - { offset: 0x14D7A5, size: 0x8, addend: 0x0, symName: __ZNSt3__119__allocate_at_leastB8ne180100INS_9allocatorIPNS_7__stateIwEEEEEENS_19__allocation_resultINS_16allocator_traitsIT_E7pointerEEERS8_m, symObjAddr: 0x12F0C, symBinAddr: 0x30744, symSize: 0x34 }
  - { offset: 0x14D842, size: 0x8, addend: 0x0, symName: __ZNSt3__15dequeINS_7__stateIwEENS_9allocatorIS2_EEE25__maybe_remove_back_spareB8ne180100Eb, symObjAddr: 0x12F40, symBinAddr: 0x30778, symSize: 0x74 }
  - { offset: 0x14F8EE, size: 0x8, addend: 0x0, symName: __ZNSt3__119__allocate_at_leastB8ne180100INS_9allocatorINS_9sub_matchIPKcEEEEEENS_19__allocation_resultINS_16allocator_traitsIT_E7pointerEEERS9_m, symObjAddr: 0x15A7C, symBinAddr: 0x332B4, symSize: 0x44 }
  - { offset: 0x14F98B, size: 0x8, addend: 0x0, symName: __ZNSt3__17__stateIcED1Ev, symObjAddr: 0x15AC0, symBinAddr: 0x332F8, symSize: 0x40 }
  - { offset: 0x14F9C9, size: 0x8, addend: 0x0, symName: __ZNSt3__119__allocate_at_leastB8ne180100INS_9allocatorINS_7__stateIcEEEEEENS_19__allocation_resultINS_16allocator_traitsIT_E7pointerEEERS7_m, symObjAddr: 0x15D40, symBinAddr: 0x33578, symSize: 0x44 }
  - { offset: 0x14FA66, size: 0x8, addend: 0x0, symName: __ZNSt3__142__uninitialized_allocator_move_if_noexceptB8ne180100INS_9allocatorINS_7__stateIcEEEENS_16reverse_iteratorIPS3_EES7_S7_EET2_RT_T0_T1_S8_, symObjAddr: 0x15D84, symBinAddr: 0x335BC, symSize: 0xE0 }
  - { offset: 0x14FAC0, size: 0x8, addend: 0x0, symName: __ZNSt3__142__uninitialized_allocator_move_if_noexceptB8ne180100INS_9allocatorINS_7__stateIcEEEENS_16reverse_iteratorIPS3_EES7_S7_EET2_RT_T0_T1_S8_, symObjAddr: 0x15D84, symBinAddr: 0x335BC, symSize: 0xE0 }
  - { offset: 0x15001B, size: 0x8, addend: 0x0, symName: __ZNSt3__119__allocate_at_leastB8ne180100INS_9allocatorINS_4pairImPKcEEEEEENS_19__allocation_resultINS_16allocator_traitsIT_E7pointerEEERS9_m, symObjAddr: 0x16234, symBinAddr: 0x33A6C, symSize: 0x34 }
  - { offset: 0x1500B8, size: 0x8, addend: 0x0, symName: __ZNSt3__16vectorINS_9sub_matchIPKcEENS_9allocatorIS4_EEE16__init_with_sizeB8ne180100IPS4_S9_EEvT_T0_m, symObjAddr: 0x16268, symBinAddr: 0x33AA0, symSize: 0x7C }
  - { offset: 0x151412, size: 0x8, addend: 0x0, symName: __ZNSt3__119__allocate_at_leastB8ne180100INS_9allocatorINS_4pairIccEEEEEENS_19__allocation_resultINS_16allocator_traitsIT_E7pointerEEERS7_m, symObjAddr: 0x1A924, symBinAddr: 0x37F60, symSize: 0x30 }
  - { offset: 0x1514AF, size: 0x8, addend: 0x0, symName: __ZNSt3__128__begin_marked_subexpressionIcED1Ev, symObjAddr: 0x1A954, symBinAddr: 0x37F90, symSize: 0x44 }
  - { offset: 0x15161A, size: 0x8, addend: 0x0, symName: __ZNSt3__119__allocate_at_leastB8ne180100INS_9allocatorINS_12basic_stringIcNS_11char_traitsIcEENS1_IcEEEEEEEENS_19__allocation_resultINS_16allocator_traitsIT_E7pointerEEERSA_m, symObjAddr: 0x19FD0, symBinAddr: 0x3760C, symSize: 0x44 }
  - { offset: 0x1516B7, size: 0x8, addend: 0x0, symName: __ZNSt3__142__uninitialized_allocator_move_if_noexceptB8ne180100INS_9allocatorINS_12basic_stringIcNS_11char_traitsIcEENS1_IcEEEEEENS_16reverse_iteratorIPS6_EESA_SA_EET2_RT_T0_T1_SB_, symObjAddr: 0x1A014, symBinAddr: 0x37650, symSize: 0x9C }
  - { offset: 0x151992, size: 0x8, addend: 0x0, symName: __ZNSt3__142__uninitialized_allocator_move_if_noexceptB8ne180100INS_9allocatorINS_12basic_stringIcNS_11char_traitsIcEENS1_IcEEEEEENS_16reverse_iteratorIPS6_EESA_SA_EET2_RT_T0_T1_SB_, symObjAddr: 0x1A014, symBinAddr: 0x37650, symSize: 0x9C }
  - { offset: 0x151CB2, size: 0x8, addend: 0x0, symName: __ZNSt3__119__allocate_at_leastB8ne180100INS_9allocatorINS_4pairINS_12basic_stringIcNS_11char_traitsIcEENS1_IcEEEES7_EEEEEENS_19__allocation_resultINS_16allocator_traitsIT_E7pointerEEERSC_m, symObjAddr: 0x1A720, symBinAddr: 0x37D5C, symSize: 0x44 }
  - { offset: 0x151D4F, size: 0x8, addend: 0x0, symName: __ZNSt3__142__uninitialized_allocator_move_if_noexceptB8ne180100INS_9allocatorINS_4pairINS_12basic_stringIcNS_11char_traitsIcEENS1_IcEEEES7_EEEENS_16reverse_iteratorIPS8_EESC_SC_EET2_RT_T0_T1_SD_, symObjAddr: 0x1A764, symBinAddr: 0x37DA0, symSize: 0xB4 }
  - { offset: 0x151DA9, size: 0x8, addend: 0x0, symName: __ZNSt3__142__uninitialized_allocator_move_if_noexceptB8ne180100INS_9allocatorINS_4pairINS_12basic_stringIcNS_11char_traitsIcEENS1_IcEEEES7_EEEENS_16reverse_iteratorIPS8_EESC_SC_EET2_RT_T0_T1_SD_, symObjAddr: 0x1A764, symBinAddr: 0x37DA0, symSize: 0xB4 }
  - { offset: 0x153102, size: 0x8, addend: 0x0, symName: __ZNSt3__119__allocate_at_leastB8ne180100INS_9allocatorIPNS_7__stateIcEEEEEENS_19__allocation_resultINS_16allocator_traitsIT_E7pointerEEERS8_m, symObjAddr: 0x1D6B0, symBinAddr: 0x3ACEC, symSize: 0x34 }
  - { offset: 0x15319F, size: 0x8, addend: 0x0, symName: __ZNSt3__15dequeINS_7__stateIcEENS_9allocatorIS2_EEE25__maybe_remove_back_spareB8ne180100Eb, symObjAddr: 0x1D6E4, symBinAddr: 0x3AD20, symSize: 0x74 }
  - { offset: 0x156155, size: 0x8, addend: 0x0, symName: __ZNSt3__16vectorINS_7__stateIwEENS_9allocatorIS2_EEE26__swap_out_circular_bufferERNS_14__split_bufferIS2_RS4_EE, symObjAddr: 0xAD10, symBinAddr: 0x286C8, symSize: 0x74 }
  - { offset: 0x156970, size: 0x8, addend: 0x0, symName: __ZNSt3__16vectorINS_12basic_stringIwNS_11char_traitsIwEENS_9allocatorIwEEEENS4_IS6_EEE26__swap_out_circular_bufferERNS_14__split_bufferIS6_RS7_EE, symObjAddr: 0xF3C0, symBinAddr: 0x2CBF8, symSize: 0x74 }
  - { offset: 0x156ABA, size: 0x8, addend: 0x0, symName: __ZNSt3__16vectorINS_4pairINS_12basic_stringIwNS_11char_traitsIwEENS_9allocatorIwEEEES7_EENS5_IS8_EEE26__swap_out_circular_bufferERNS_14__split_bufferIS8_RS9_EE, symObjAddr: 0xFC3C, symBinAddr: 0x2D474, symSize: 0x74 }
  - { offset: 0x157386, size: 0x8, addend: 0x0, symName: __ZN12_GLOBAL__N_110MatchFlagsEPKN9Scintilla8Internal8DocumentEllll, symObjAddr: 0x111C0, symBinAddr: 0x2E9F8, symSize: 0x7C }
  - { offset: 0x157873, size: 0x8, addend: 0x0, symName: __ZNSt3__16vectorINS_7__stateIcEENS_9allocatorIS2_EEE26__swap_out_circular_bufferERNS_14__split_bufferIS2_RS4_EE, symObjAddr: 0x15CB8, symBinAddr: 0x334F0, symSize: 0x74 }
  - { offset: 0x157F3A, size: 0x8, addend: 0x0, symName: __ZNSt3__16vectorINS_12basic_stringIcNS_11char_traitsIcEENS_9allocatorIcEEEENS4_IS6_EEE26__swap_out_circular_bufferERNS_14__split_bufferIS6_RS7_EE, symObjAddr: 0x19F48, symBinAddr: 0x37584, symSize: 0x74 }
  - { offset: 0x158084, size: 0x8, addend: 0x0, symName: __ZNSt3__16vectorINS_4pairINS_12basic_stringIcNS_11char_traitsIcEENS_9allocatorIcEEEES7_EENS5_IS8_EEE26__swap_out_circular_bufferERNS_14__split_bufferIS8_RS9_EE, symObjAddr: 0x1A698, symBinAddr: 0x37CD4, symSize: 0x74 }
  - { offset: 0x158B00, size: 0x8, addend: 0x0, symName: __ZN9Scintilla8Internal12LexInterfaceC2EPNS0_8DocumentE, symObjAddr: 0x0, symBinAddr: 0x1DA64, symSize: 0x18 }
  - { offset: 0x158BE3, size: 0x8, addend: 0x0, symName: __ZN9Scintilla8Internal12LexInterfaceC1EPNS0_8DocumentE, symObjAddr: 0x18, symBinAddr: 0x1DA7C, symSize: 0x18 }
  - { offset: 0x158C1C, size: 0x8, addend: 0x0, symName: __ZN9Scintilla8Internal12LexInterfaceC1EPNS0_8DocumentE, symObjAddr: 0x18, symBinAddr: 0x1DA7C, symSize: 0x18 }
  - { offset: 0x158D31, size: 0x8, addend: 0x0, symName: __ZN9Scintilla8Internal12LexInterfaceD2Ev, symObjAddr: 0x30, symBinAddr: 0x1DA94, symSize: 0x3C }
  - { offset: 0x158DCA, size: 0x8, addend: 0x0, symName: __ZN9Scintilla8Internal13LexerReleaserclEPNS_7ILexer5E, symObjAddr: 0x1E0B8, symBinAddr: 0x3B6F4, symSize: 0x34 }
  - { offset: 0x158E26, size: 0x8, addend: 0x0, symName: __ZN9Scintilla8Internal12LexInterfaceD1Ev, symObjAddr: 0x6C, symBinAddr: 0x1DAD0, symSize: 0x3C }
  - { offset: 0x158EF6, size: 0x8, addend: 0x0, symName: __ZN9Scintilla8Internal12LexInterfaceD0Ev, symObjAddr: 0xA8, symBinAddr: 0x1DB0C, symSize: 0x3C }
  - { offset: 0x158FD0, size: 0x8, addend: 0x0, symName: __ZN9Scintilla8Internal12LexInterface11SetInstanceEPNS_7ILexer5E, symObjAddr: 0xE4, symBinAddr: 0x1DB48, symSize: 0x18 }
  - { offset: 0x159070, size: 0x8, addend: 0x0, symName: __ZN9Scintilla8Internal12LexInterface9ColouriseEll, symObjAddr: 0xFC, symBinAddr: 0x1DB60, symSize: 0xE4 }
  - { offset: 0x159196, size: 0x8, addend: 0x0, symName: __ZN9Scintilla8Internal12LexInterface21LineEndTypesSupportedEv, symObjAddr: 0x1E0, symBinAddr: 0x1DC44, symSize: 0x18 }
  - { offset: 0x1591C0, size: 0x8, addend: 0x0, symName: __ZN9Scintilla8Internal12LexInterface21LineEndTypesSupportedEv, symObjAddr: 0x1E0, symBinAddr: 0x1DC44, symSize: 0x18 }
  - { offset: 0x1591E7, size: 0x8, addend: 0x0, symName: __ZNK9Scintilla8Internal12LexInterface18UseContainerLexingEv, symObjAddr: 0x1F8, symBinAddr: 0x1DC5C, symSize: 0x10 }
  - { offset: 0x15920B, size: 0x8, addend: 0x0, symName: __ZNK9Scintilla8Internal12LexInterface18UseContainerLexingEv, symObjAddr: 0x1F8, symBinAddr: 0x1DC5C, symSize: 0x10 }
  - { offset: 0x159226, size: 0x8, addend: 0x0, symName: __ZN9Scintilla8Internal14ActionDurationC2Eddd, symObjAddr: 0x208, symBinAddr: 0x1DC6C, symSize: 0xC }
  - { offset: 0x15929E, size: 0x8, addend: 0x0, symName: __ZN9Scintilla8Internal14ActionDurationC1Eddd, symObjAddr: 0x214, symBinAddr: 0x1DC78, symSize: 0xC }
  - { offset: 0x1592D8, size: 0x8, addend: 0x0, symName: __ZN9Scintilla8Internal14ActionDurationC1Eddd, symObjAddr: 0x214, symBinAddr: 0x1DC78, symSize: 0xC }
  - { offset: 0x159359, size: 0x8, addend: 0x0, symName: __ZN9Scintilla8Internal14ActionDuration9AddSampleEmd, symObjAddr: 0x220, symBinAddr: 0x1DC84, symSize: 0x60 }
  - { offset: 0x15941A, size: 0x8, addend: 0x0, symName: __ZNK9Scintilla8Internal14ActionDuration8DurationEv, symObjAddr: 0x290, symBinAddr: 0x1DCE4, symSize: 0x8 }
  - { offset: 0x159454, size: 0x8, addend: 0x0, symName: __ZNK9Scintilla8Internal14ActionDuration20ActionsInAllowedTimeEd, symObjAddr: 0x298, symBinAddr: 0x1DCEC, symSize: 0x10 }
  - { offset: 0x15948D, size: 0x8, addend: 0x0, symName: __ZNK9Scintilla8Internal14ActionDuration20ActionsInAllowedTimeEd, symObjAddr: 0x298, symBinAddr: 0x1DCEC, symSize: 0x10 }
  - { offset: 0x1594A7, size: 0x8, addend: 0x0, symName: __ZN9Scintilla8Internal18CharacterExtractedC2EPKhm, symObjAddr: 0x2A8, symBinAddr: 0x1DCFC, symSize: 0xC4 }
  - { offset: 0x15953F, size: 0x8, addend: 0x0, symName: __ZN9Scintilla8Internal18CharacterExtractedC1EPKhm, symObjAddr: 0x36C, symBinAddr: 0x1DDC0, symSize: 0x4 }
  - { offset: 0x159570, size: 0x8, addend: 0x0, symName: __ZN9Scintilla8Internal18CharacterExtractedC1EPKhm, symObjAddr: 0x36C, symBinAddr: 0x1DDC0, symSize: 0x4 }
  - { offset: 0x15A374, size: 0x8, addend: 0x0, symName: __ZN9Scintilla8Internal8DocumentC2ENS_14DocumentOptionE, symObjAddr: 0x370, symBinAddr: 0x1DDC4, symSize: 0x388 }
  - { offset: 0x15B617, size: 0x8, addend: 0x0, symName: __ZN9Scintilla8Internal8DocumentC1ENS_14DocumentOptionE, symObjAddr: 0x6F8, symBinAddr: 0x1E14C, symSize: 0x4 }
  - { offset: 0x15B651, size: 0x8, addend: 0x0, symName: __ZN9Scintilla8Internal8DocumentC1ENS_14DocumentOptionE, symObjAddr: 0x6F8, symBinAddr: 0x1E14C, symSize: 0x4 }
  - { offset: 0x15B699, size: 0x8, addend: 0x0, symName: __ZN9Scintilla8Internal8DocumentD2Ev, symObjAddr: 0x6FC, symBinAddr: 0x1E150, symSize: 0x12C }
  - { offset: 0x15BE74, size: 0x8, addend: 0x0, symName: __ZN9Scintilla8Internal8DocumentD1Ev, symObjAddr: 0x828, symBinAddr: 0x1E27C, symSize: 0x4 }
  - { offset: 0x15BE97, size: 0x8, addend: 0x0, symName: __ZN9Scintilla8Internal8DocumentD1Ev, symObjAddr: 0x828, symBinAddr: 0x1E27C, symSize: 0x4 }
  - { offset: 0x15BEC5, size: 0x8, addend: 0x0, symName: __ZN9Scintilla8Internal8DocumentD0Ev, symObjAddr: 0x82C, symBinAddr: 0x1E280, symSize: 0x14 }
  - { offset: 0x15BF1F, size: 0x8, addend: 0x0, symName: __ZN9Scintilla8Internal8Document6AddRefEv, symObjAddr: 0x840, symBinAddr: 0x1E294, symSize: 0x14 }
  - { offset: 0x15BF57, size: 0x8, addend: 0x0, symName: __ZThn24_N9Scintilla8Internal8Document6AddRefEv, symObjAddr: 0x854, symBinAddr: 0x1E2A8, symSize: 0x14 }
  - { offset: 0x15BF71, size: 0x8, addend: 0x0, symName: __ZThn24_N9Scintilla8Internal8Document6AddRefEv, symObjAddr: 0x854, symBinAddr: 0x1E2A8, symSize: 0x14 }
  - { offset: 0x15BF8C, size: 0x8, addend: 0x0, symName: __ZN9Scintilla8Internal8Document7ReleaseEv, symObjAddr: 0x868, symBinAddr: 0x1E2BC, symSize: 0x3C }
  - { offset: 0x15BFE1, size: 0x8, addend: 0x0, symName: __ZThn16_N9Scintilla8Internal8Document7ReleaseEv, symObjAddr: 0x8A4, symBinAddr: 0x1E2F8, symSize: 0x38 }
  - { offset: 0x15C022, size: 0x8, addend: 0x0, symName: __ZThn24_N9Scintilla8Internal8Document7ReleaseEv, symObjAddr: 0x8DC, symBinAddr: 0x1E330, symSize: 0x38 }
  - { offset: 0x15C07B, size: 0x8, addend: 0x0, symName: __ZN9Scintilla8Internal8Document4InitEv, symObjAddr: 0x914, symBinAddr: 0x1E368, symSize: 0x40 }
  - { offset: 0x15C10B, size: 0x8, addend: 0x0, symName: __ZN9Scintilla8Internal8Document10InsertLineEl, symObjAddr: 0x954, symBinAddr: 0x1E3A8, symSize: 0x50 }
  - { offset: 0x15C1B1, size: 0x8, addend: 0x0, symName: __ZN9Scintilla8Internal8Document11InsertLinesEll, symObjAddr: 0x9A4, symBinAddr: 0x1E3F8, symSize: 0x58 }
  - { offset: 0x15C26C, size: 0x8, addend: 0x0, symName: __ZN9Scintilla8Internal8Document10RemoveLineEl, symObjAddr: 0x9FC, symBinAddr: 0x1E450, symSize: 0x50 }
  - { offset: 0x15C326, size: 0x8, addend: 0x0, symName: __ZNK9Scintilla8Internal8Document7MarkersEv, symObjAddr: 0xA4C, symBinAddr: 0x1E4A0, symSize: 0x8 }
  - { offset: 0x15C34A, size: 0x8, addend: 0x0, symName: __ZNK9Scintilla8Internal8Document7MarkersEv, symObjAddr: 0xA4C, symBinAddr: 0x1E4A0, symSize: 0x8 }
  - { offset: 0x15C366, size: 0x8, addend: 0x0, symName: __ZNK9Scintilla8Internal8Document6LevelsEv, symObjAddr: 0xA54, symBinAddr: 0x1E4A8, symSize: 0x8 }
  - { offset: 0x15C38A, size: 0x8, addend: 0x0, symName: __ZNK9Scintilla8Internal8Document6LevelsEv, symObjAddr: 0xA54, symBinAddr: 0x1E4A8, symSize: 0x8 }
  - { offset: 0x15C3A6, size: 0x8, addend: 0x0, symName: __ZNK9Scintilla8Internal8Document6StatesEv, symObjAddr: 0xA5C, symBinAddr: 0x1E4B0, symSize: 0x8 }
  - { offset: 0x15C3CA, size: 0x8, addend: 0x0, symName: __ZNK9Scintilla8Internal8Document6StatesEv, symObjAddr: 0xA5C, symBinAddr: 0x1E4B0, symSize: 0x8 }
  - { offset: 0x15C3E6, size: 0x8, addend: 0x0, symName: __ZNK9Scintilla8Internal8Document7MarginsEv, symObjAddr: 0xA64, symBinAddr: 0x1E4B8, symSize: 0x8 }
  - { offset: 0x15C40A, size: 0x8, addend: 0x0, symName: __ZNK9Scintilla8Internal8Document7MarginsEv, symObjAddr: 0xA64, symBinAddr: 0x1E4B8, symSize: 0x8 }
  - { offset: 0x15C426, size: 0x8, addend: 0x0, symName: __ZNK9Scintilla8Internal8Document11AnnotationsEv, symObjAddr: 0xA6C, symBinAddr: 0x1E4C0, symSize: 0x8 }
  - { offset: 0x15C44A, size: 0x8, addend: 0x0, symName: __ZNK9Scintilla8Internal8Document11AnnotationsEv, symObjAddr: 0xA6C, symBinAddr: 0x1E4C0, symSize: 0x8 }
  - { offset: 0x15C466, size: 0x8, addend: 0x0, symName: __ZNK9Scintilla8Internal8Document14EOLAnnotationsEv, symObjAddr: 0xA74, symBinAddr: 0x1E4C8, symSize: 0x8 }
  - { offset: 0x15C48A, size: 0x8, addend: 0x0, symName: __ZNK9Scintilla8Internal8Document14EOLAnnotationsEv, symObjAddr: 0xA74, symBinAddr: 0x1E4C8, symSize: 0x8 }
  - { offset: 0x15C4BF, size: 0x8, addend: 0x0, symName: __ZNK9Scintilla8Internal8Document21LineEndTypesSupportedEv, symObjAddr: 0xA7C, symBinAddr: 0x1E4D0, symSize: 0x2C }
  - { offset: 0x15C58C, size: 0x8, addend: 0x0, symName: __ZN9Scintilla8Internal8Document15SetDBCSCodePageEi, symObjAddr: 0xAA8, symBinAddr: 0x1E4FC, symSize: 0xC8 }
  - { offset: 0x15C706, size: 0x8, addend: 0x0, symName: __ZN9Scintilla8Internal8Document13SetCaseFolderENSt3__110unique_ptrINS0_10CaseFolderENS2_14default_deleteIS4_EEEE, symObjAddr: 0xB70, symBinAddr: 0x1E5C4, symSize: 0x28 }
  - { offset: 0x15C7D6, size: 0x8, addend: 0x0, symName: __ZN9Scintilla8Internal8Document10ModifiedAtEl, symObjAddr: 0xB98, symBinAddr: 0x1E5EC, symSize: 0x14 }
  - { offset: 0x15C816, size: 0x8, addend: 0x0, symName: __ZN9Scintilla8Internal8Document22SetLineEndTypesAllowedENS_11LineEndTypeE, symObjAddr: 0xBAC, symBinAddr: 0x1E600, symSize: 0x90 }
  - { offset: 0x15C968, size: 0x8, addend: 0x0, symName: __ZN9Scintilla8Internal8Document12SetSavePointEv, symObjAddr: 0xC3C, symBinAddr: 0x1E690, symSize: 0x58 }
  - { offset: 0x15CA53, size: 0x8, addend: 0x0, symName: __ZN9Scintilla8Internal8Document15NotifySavePointEb, symObjAddr: 0xC94, symBinAddr: 0x1E6E8, symSize: 0x58 }
  - { offset: 0x15CC88, size: 0x8, addend: 0x0, symName: __ZN9Scintilla8Internal8Document13TentativeUndoEv, symObjAddr: 0xCEC, symBinAddr: 0x1E740, symSize: 0x28C }
  - { offset: 0x15D0F4, size: 0x8, addend: 0x0, symName: __ZN9Scintilla8Internal8Document13CheckReadOnlyEv, symObjAddr: 0xF78, symBinAddr: 0x1E9CC, symSize: 0x80 }
  - { offset: 0x15D1D2, size: 0x8, addend: 0x0, symName: __ZN9Scintilla8Internal8Document14NotifyModifiedENS0_15DocModificationE, symObjAddr: 0x1000, symBinAddr: 0x1EA54, symSize: 0xA8 }
  - { offset: 0x15D34A, size: 0x8, addend: 0x0, symName: __ZNK9Scintilla8Internal8Document10LinesTotalEv, symObjAddr: 0xFF8, symBinAddr: 0x1EA4C, symSize: 0x8 }
  - { offset: 0x15D38A, size: 0x8, addend: 0x0, symName: __ZNK9Scintilla8Internal8Document11UndoActionsEv, symObjAddr: 0x10A8, symBinAddr: 0x1EAFC, symSize: 0x8 }
  - { offset: 0x15D3B3, size: 0x8, addend: 0x0, symName: __ZN9Scintilla8Internal8Document16SetUndoSavePointEi, symObjAddr: 0x10B0, symBinAddr: 0x1EB04, symSize: 0x8 }
  - { offset: 0x15D3EB, size: 0x8, addend: 0x0, symName: __ZNK9Scintilla8Internal8Document13UndoSavePointEv, symObjAddr: 0x10B8, symBinAddr: 0x1EB0C, symSize: 0x8 }
  - { offset: 0x15D414, size: 0x8, addend: 0x0, symName: __ZN9Scintilla8Internal8Document13SetUndoDetachEi, symObjAddr: 0x10C0, symBinAddr: 0x1EB14, symSize: 0x8 }
  - { offset: 0x15D44C, size: 0x8, addend: 0x0, symName: __ZNK9Scintilla8Internal8Document10UndoDetachEv, symObjAddr: 0x10C8, symBinAddr: 0x1EB1C, symSize: 0x8 }
  - { offset: 0x15D475, size: 0x8, addend: 0x0, symName: __ZN9Scintilla8Internal8Document16SetUndoTentativeEi, symObjAddr: 0x10D0, symBinAddr: 0x1EB24, symSize: 0x8 }
  - { offset: 0x15D4AD, size: 0x8, addend: 0x0, symName: __ZNK9Scintilla8Internal8Document13UndoTentativeEv, symObjAddr: 0x10D8, symBinAddr: 0x1EB2C, symSize: 0x8 }
  - { offset: 0x15D4D6, size: 0x8, addend: 0x0, symName: __ZN9Scintilla8Internal8Document14SetUndoCurrentEi, symObjAddr: 0x10E0, symBinAddr: 0x1EB34, symSize: 0x8 }
  - { offset: 0x15D50E, size: 0x8, addend: 0x0, symName: __ZNK9Scintilla8Internal8Document11UndoCurrentEv, symObjAddr: 0x10E8, symBinAddr: 0x1EB3C, symSize: 0x8 }
  - { offset: 0x15D537, size: 0x8, addend: 0x0, symName: __ZNK9Scintilla8Internal8Document14UndoActionTypeEi, symObjAddr: 0x10F0, symBinAddr: 0x1EB44, symSize: 0x8 }
  - { offset: 0x15D56F, size: 0x8, addend: 0x0, symName: __ZNK9Scintilla8Internal8Document18UndoActionPositionEi, symObjAddr: 0x10F8, symBinAddr: 0x1EB4C, symSize: 0x8 }
  - { offset: 0x15D5A7, size: 0x8, addend: 0x0, symName: __ZNK9Scintilla8Internal8Document14UndoActionTextEi, symObjAddr: 0x1100, symBinAddr: 0x1EB54, symSize: 0x8 }
  - { offset: 0x15D5DF, size: 0x8, addend: 0x0, symName: __ZN9Scintilla8Internal8Document18PushUndoActionTypeEil, symObjAddr: 0x1108, symBinAddr: 0x1EB5C, symSize: 0x8 }
  - { offset: 0x15D626, size: 0x8, addend: 0x0, symName: __ZN9Scintilla8Internal8Document24ChangeLastUndoActionTextEmPKc, symObjAddr: 0x1110, symBinAddr: 0x1EB64, symSize: 0x8 }
  - { offset: 0x15D703, size: 0x8, addend: 0x0, symName: __ZNK9Scintilla8Internal8Document7GetMarkElb, symObjAddr: 0x1118, symBinAddr: 0x1EB6C, symSize: 0x138 }
  - { offset: 0x15D951, size: 0x8, addend: 0x0, symName: __ZNK9Scintilla8Internal8Document10MarkerNextEli, symObjAddr: 0x1250, symBinAddr: 0x1ECA4, symSize: 0x8 }
  - { offset: 0x15D99A, size: 0x8, addend: 0x0, symName: __ZNK9Scintilla8Internal8Document10MarkerNextEli, symObjAddr: 0x1250, symBinAddr: 0x1ECA4, symSize: 0x8 }
  - { offset: 0x15D9B6, size: 0x8, addend: 0x0, symName: __ZNK9Scintilla8Internal8Document10MarkerNextEli, symObjAddr: 0x1250, symBinAddr: 0x1ECA4, symSize: 0x8 }
  - { offset: 0x15D9D4, size: 0x8, addend: 0x0, symName: __ZN9Scintilla8Internal8Document7AddMarkEli, symObjAddr: 0x1258, symBinAddr: 0x1ECAC, symSize: 0xBC }
  - { offset: 0x15DB6A, size: 0x8, addend: 0x0, symName: __ZN9Scintilla8Internal8Document10AddMarkSetEli, symObjAddr: 0x1314, symBinAddr: 0x1ED68, symSize: 0xCC }
  - { offset: 0x15DD11, size: 0x8, addend: 0x0, symName: __ZN9Scintilla8Internal8Document10DeleteMarkEli, symObjAddr: 0x13E0, symBinAddr: 0x1EE34, symSize: 0x6C }
  - { offset: 0x15DE4E, size: 0x8, addend: 0x0, symName: __ZN9Scintilla8Internal8Document20DeleteMarkFromHandleEi, symObjAddr: 0x144C, symBinAddr: 0x1EEA0, symSize: 0x54 }
  - { offset: 0x15DF61, size: 0x8, addend: 0x0, symName: __ZN9Scintilla8Internal8Document14DeleteAllMarksEi, symObjAddr: 0x14A0, symBinAddr: 0x1EEF4, symSize: 0xAC }
  - { offset: 0x15E0CA, size: 0x8, addend: 0x0, symName: __ZNK9Scintilla8Internal8Document14LineFromHandleEi, symObjAddr: 0x154C, symBinAddr: 0x1EFA0, symSize: 0x8 }
  - { offset: 0x15E104, size: 0x8, addend: 0x0, symName: __ZNK9Scintilla8Internal8Document14LineFromHandleEi, symObjAddr: 0x154C, symBinAddr: 0x1EFA0, symSize: 0x8 }
  - { offset: 0x15E120, size: 0x8, addend: 0x0, symName: __ZNK9Scintilla8Internal8Document14LineFromHandleEi, symObjAddr: 0x154C, symBinAddr: 0x1EFA0, symSize: 0x8 }
  - { offset: 0x15E13E, size: 0x8, addend: 0x0, symName: __ZNK9Scintilla8Internal8Document20MarkerNumberFromLineEli, symObjAddr: 0x1554, symBinAddr: 0x1EFA8, symSize: 0x8 }
  - { offset: 0x15E187, size: 0x8, addend: 0x0, symName: __ZNK9Scintilla8Internal8Document20MarkerNumberFromLineEli, symObjAddr: 0x1554, symBinAddr: 0x1EFA8, symSize: 0x8 }
  - { offset: 0x15E1A3, size: 0x8, addend: 0x0, symName: __ZNK9Scintilla8Internal8Document20MarkerNumberFromLineEli, symObjAddr: 0x1554, symBinAddr: 0x1EFA8, symSize: 0x8 }
  - { offset: 0x15E1C1, size: 0x8, addend: 0x0, symName: __ZNK9Scintilla8Internal8Document20MarkerHandleFromLineEli, symObjAddr: 0x155C, symBinAddr: 0x1EFB0, symSize: 0x8 }
  - { offset: 0x15E20A, size: 0x8, addend: 0x0, symName: __ZNK9Scintilla8Internal8Document20MarkerHandleFromLineEli, symObjAddr: 0x155C, symBinAddr: 0x1EFB0, symSize: 0x8 }
  - { offset: 0x15E226, size: 0x8, addend: 0x0, symName: __ZNK9Scintilla8Internal8Document20MarkerHandleFromLineEli, symObjAddr: 0x155C, symBinAddr: 0x1EFB0, symSize: 0x8 }
  - { offset: 0x15E243, size: 0x8, addend: 0x0, symName: __ZNK9Scintilla8Internal8Document9LineStartEl, symObjAddr: 0x1564, symBinAddr: 0x1EFB8, symSize: 0x8 }
  - { offset: 0x15E290, size: 0x8, addend: 0x0, symName: __ZThn8_NK9Scintilla8Internal8Document9LineStartEl, symObjAddr: 0x156C, symBinAddr: 0x1EFC0, symSize: 0x8 }
  - { offset: 0x15E2AB, size: 0x8, addend: 0x0, symName: __ZThn8_NK9Scintilla8Internal8Document9LineStartEl, symObjAddr: 0x156C, symBinAddr: 0x1EFC0, symSize: 0x8 }
  - { offset: 0x15E2CD, size: 0x8, addend: 0x0, symName: __ZNK9Scintilla8Internal8Document9LineRangeEl, symObjAddr: 0x1574, symBinAddr: 0x1EFC8, symSize: 0x48 }
  - { offset: 0x15E32B, size: 0x8, addend: 0x0, symName: __ZNK9Scintilla8Internal8Document19IsLineStartPositionEl, symObjAddr: 0x15BC, symBinAddr: 0x1F010, symSize: 0x3C }
  - { offset: 0x15E38B, size: 0x8, addend: 0x0, symName: __ZNK9Scintilla8Internal8Document17LineStartPositionEl, symObjAddr: 0x15F8, symBinAddr: 0x1F04C, symSize: 0x2C }
  - { offset: 0x15E3B5, size: 0x8, addend: 0x0, symName: __ZNK9Scintilla8Internal8Document7LineEndEl, symObjAddr: 0x1624, symBinAddr: 0x1F078, symSize: 0x8 }
  - { offset: 0x15E402, size: 0x8, addend: 0x0, symName: __ZThn8_NK9Scintilla8Internal8Document7LineEndEl, symObjAddr: 0x162C, symBinAddr: 0x1F080, symSize: 0x8 }
  - { offset: 0x15E41D, size: 0x8, addend: 0x0, symName: __ZThn8_NK9Scintilla8Internal8Document7LineEndEl, symObjAddr: 0x162C, symBinAddr: 0x1F080, symSize: 0x8 }
  - { offset: 0x15E43F, size: 0x8, addend: 0x0, symName: __ZNK9Scintilla8Internal8Document9DEVersionEv, symObjAddr: 0x1634, symBinAddr: 0x1F088, symSize: 0x8 }
  - { offset: 0x15E464, size: 0x8, addend: 0x0, symName: __ZThn24_NK9Scintilla8Internal8Document9DEVersionEv, symObjAddr: 0x163C, symBinAddr: 0x1F090, symSize: 0x8 }
  - { offset: 0x15E47B, size: 0x8, addend: 0x0, symName: __ZN9Scintilla8Internal8Document14SetErrorStatusEi, symObjAddr: 0x1644, symBinAddr: 0x1F098, symSize: 0x58 }
  - { offset: 0x15E595, size: 0x8, addend: 0x0, symName: __ZThn8_N9Scintilla8Internal8Document14SetErrorStatusEi, symObjAddr: 0x169C, symBinAddr: 0x1F0F0, symSize: 0x58 }
  - { offset: 0x15E667, size: 0x8, addend: 0x0, symName: __ZNK9Scintilla8Internal8Document16LineFromPositionEl, symObjAddr: 0x16F4, symBinAddr: 0x1F148, symSize: 0x8 }
  - { offset: 0x15E6B4, size: 0x8, addend: 0x0, symName: __ZThn8_NK9Scintilla8Internal8Document16LineFromPositionEl, symObjAddr: 0x16FC, symBinAddr: 0x1F150, symSize: 0x8 }
  - { offset: 0x15E6CF, size: 0x8, addend: 0x0, symName: __ZThn8_NK9Scintilla8Internal8Document16LineFromPositionEl, symObjAddr: 0x16FC, symBinAddr: 0x1F150, symSize: 0x8 }
  - { offset: 0x15E6F0, size: 0x8, addend: 0x0, symName: __ZNK9Scintilla8Internal8Document19SciLineFromPositionEl, symObjAddr: 0x1704, symBinAddr: 0x1F158, symSize: 0x8 }
  - { offset: 0x15E719, size: 0x8, addend: 0x0, symName: __ZNK9Scintilla8Internal8Document15LineEndPositionEl, symObjAddr: 0x170C, symBinAddr: 0x1F160, symSize: 0x2C }
  - { offset: 0x15E768, size: 0x8, addend: 0x0, symName: __ZNK9Scintilla8Internal8Document17IsLineEndPositionEl, symObjAddr: 0x1738, symBinAddr: 0x1F18C, symSize: 0x3C }
  - { offset: 0x15E7C8, size: 0x8, addend: 0x0, symName: __ZNK9Scintilla8Internal8Document19IsPositionInLineEndEl, symObjAddr: 0x1774, symBinAddr: 0x1F1C8, symSize: 0x3C }
  - { offset: 0x15E84C, size: 0x8, addend: 0x0, symName: __ZNK9Scintilla8Internal8Document14VCHomePositionEl, symObjAddr: 0x17B0, symBinAddr: 0x1F204, symSize: 0xB8 }
  - { offset: 0x15E920, size: 0x8, addend: 0x0, symName: __ZNK9Scintilla8Internal8Document14IndexLineStartElNS_22LineCharacterIndexTypeE, symObjAddr: 0x1868, symBinAddr: 0x1F2BC, symSize: 0x8 }
  - { offset: 0x15E967, size: 0x8, addend: 0x0, symName: __ZNK9Scintilla8Internal8Document21LineFromPositionIndexElNS_22LineCharacterIndexTypeE, symObjAddr: 0x1870, symBinAddr: 0x1F2C4, symSize: 0x8 }
  - { offset: 0x15E9C2, size: 0x8, addend: 0x0, symName: __ZNK9Scintilla8Internal8Document21LineFromPositionAfterEll, symObjAddr: 0x1878, symBinAddr: 0x1F2CC, symSize: 0x70 }
  - { offset: 0x15EA8E, size: 0x8, addend: 0x0, symName: __ZN9Scintilla8Internal8Document8SetLevelEli, symObjAddr: 0x18E8, symBinAddr: 0x1F33C, symSize: 0xA0 }
  - { offset: 0x15EC15, size: 0x8, addend: 0x0, symName: __ZThn8_N9Scintilla8Internal8Document8SetLevelEli, symObjAddr: 0x1988, symBinAddr: 0x1F3DC, symSize: 0x8 }
  - { offset: 0x15EC49, size: 0x8, addend: 0x0, symName: __ZNK9Scintilla8Internal8Document8GetLevelEl, symObjAddr: 0x1990, symBinAddr: 0x1F3E4, symSize: 0x8 }
  - { offset: 0x15EC74, size: 0x8, addend: 0x0, symName: __ZNK9Scintilla8Internal8Document8GetLevelEl, symObjAddr: 0x1990, symBinAddr: 0x1F3E4, symSize: 0x8 }
  - { offset: 0x15EC90, size: 0x8, addend: 0x0, symName: __ZNK9Scintilla8Internal8Document8GetLevelEl, symObjAddr: 0x1990, symBinAddr: 0x1F3E4, symSize: 0x8 }
  - { offset: 0x15ECD2, size: 0x8, addend: 0x0, symName: __ZThn8_NK9Scintilla8Internal8Document8GetLevelEl, symObjAddr: 0x1998, symBinAddr: 0x1F3EC, symSize: 0x8 }
  - { offset: 0x15ECED, size: 0x8, addend: 0x0, symName: __ZThn8_NK9Scintilla8Internal8Document8GetLevelEl, symObjAddr: 0x1998, symBinAddr: 0x1F3EC, symSize: 0x8 }
  - { offset: 0x15ED10, size: 0x8, addend: 0x0, symName: __ZThn8_NK9Scintilla8Internal8Document8GetLevelEl, symObjAddr: 0x1998, symBinAddr: 0x1F3EC, symSize: 0x8 }
  - { offset: 0x15ED2E, size: 0x8, addend: 0x0, symName: __ZThn8_NK9Scintilla8Internal8Document8GetLevelEl, symObjAddr: 0x1998, symBinAddr: 0x1F3EC, symSize: 0x8 }
  - { offset: 0x15ED4C, size: 0x8, addend: 0x0, symName: __ZNK9Scintilla8Internal8Document12GetFoldLevelEl, symObjAddr: 0x19A0, symBinAddr: 0x1F3F4, symSize: 0x8 }
  - { offset: 0x15ED77, size: 0x8, addend: 0x0, symName: __ZNK9Scintilla8Internal8Document12GetFoldLevelEl, symObjAddr: 0x19A0, symBinAddr: 0x1F3F4, symSize: 0x8 }
  - { offset: 0x15ED93, size: 0x8, addend: 0x0, symName: __ZNK9Scintilla8Internal8Document12GetFoldLevelEl, symObjAddr: 0x19A0, symBinAddr: 0x1F3F4, symSize: 0x8 }
  - { offset: 0x15EDB1, size: 0x8, addend: 0x0, symName: __ZN9Scintilla8Internal8Document11ClearLevelsEv, symObjAddr: 0x19A8, symBinAddr: 0x1F3FC, symSize: 0x8 }
  - { offset: 0x15EDDC, size: 0x8, addend: 0x0, symName: __ZN9Scintilla8Internal8Document11ClearLevelsEv, symObjAddr: 0x19A8, symBinAddr: 0x1F3FC, symSize: 0x8 }
  - { offset: 0x15EDF8, size: 0x8, addend: 0x0, symName: __ZN9Scintilla8Internal8Document11ClearLevelsEv, symObjAddr: 0x19A8, symBinAddr: 0x1F3FC, symSize: 0x8 }
  - { offset: 0x15EE6C, size: 0x8, addend: 0x0, symName: __ZN9Scintilla8Internal8Document12GetLastChildElNSt3__18optionalINS_9FoldLevelEEEl, symObjAddr: 0x19B0, symBinAddr: 0x1F404, symSize: 0x150 }
  - { offset: 0x15F1C1, size: 0x8, addend: 0x0, symName: __ZN9Scintilla8Internal8Document14EnsureStyledToEl, symObjAddr: 0x1B00, symBinAddr: 0x1F554, symSize: 0xD0 }
  - { offset: 0x15F3E8, size: 0x8, addend: 0x0, symName: __ZNK9Scintilla8Internal8Document13GetFoldParentEl, symObjAddr: 0x1BD0, symBinAddr: 0x1F624, symSize: 0x8 }
  - { offset: 0x15F413, size: 0x8, addend: 0x0, symName: __ZNK9Scintilla8Internal8Document13GetFoldParentEl, symObjAddr: 0x1BD0, symBinAddr: 0x1F624, symSize: 0x8 }
  - { offset: 0x15F42F, size: 0x8, addend: 0x0, symName: __ZNK9Scintilla8Internal8Document13GetFoldParentEl, symObjAddr: 0x1BD0, symBinAddr: 0x1F624, symSize: 0x8 }
  - { offset: 0x15F48A, size: 0x8, addend: 0x0, symName: __ZN9Scintilla8Internal8Document22GetHighlightDelimitersERNS0_18HighlightDelimiterEll, symObjAddr: 0x1BD8, symBinAddr: 0x1F62C, symSize: 0x28C }
  - { offset: 0x15FB2A, size: 0x8, addend: 0x0, symName: __ZNK9Scintilla8Internal8Document25ClampPositionIntoDocumentEl, symObjAddr: 0x1E64, symBinAddr: 0x1F8B8, symSize: 0x34 }
  - { offset: 0x15FB83, size: 0x8, addend: 0x0, symName: __ZNK9Scintilla8Internal8Document6IsCrLfEl, symObjAddr: 0x1E98, symBinAddr: 0x1F8EC, symSize: 0x70 }
  - { offset: 0x15FBDC, size: 0x8, addend: 0x0, symName: __ZNK9Scintilla8Internal8Document7LenCharEl, symObjAddr: 0x1F08, symBinAddr: 0x1F95C, symSize: 0x138 }
  - { offset: 0x15FCFA, size: 0x8, addend: 0x0, symName: __ZNK9Scintilla8Internal8Document22IsDBCSLeadByteNoExceptEc, symObjAddr: 0x2040, symBinAddr: 0x1FA94, symSize: 0x88 }
  - { offset: 0x15FD41, size: 0x8, addend: 0x0, symName: __ZNK9Scintilla8Internal8Document23IsDBCSTrailByteNoExceptEc, symObjAddr: 0x20C8, symBinAddr: 0x1FB1C, symSize: 0xB4 }
  - { offset: 0x15FD88, size: 0x8, addend: 0x0, symName: __ZNK9Scintilla8Internal8Document10InGoodUTF8ElRlS2_, symObjAddr: 0x217C, symBinAddr: 0x1FBD0, symSize: 0x144 }
  - { offset: 0x15FE97, size: 0x8, addend: 0x0, symName: __ZNK9Scintilla8Internal8Document23MovePositionOutsideCharEllb, symObjAddr: 0x22C0, symBinAddr: 0x1FD14, symSize: 0x1A0 }
  - { offset: 0x160056, size: 0x8, addend: 0x0, symName: __ZNK9Scintilla8Internal8Document16IsDBCSDualByteAtEl, symObjAddr: 0x2460, symBinAddr: 0x1FEB4, symSize: 0x68 }
  - { offset: 0x1600B2, size: 0x8, addend: 0x0, symName: __ZNK9Scintilla8Internal8Document12NextPositionEli, symObjAddr: 0x24C8, symBinAddr: 0x1FF1C, symSize: 0x25C }
  - { offset: 0x160309, size: 0x8, addend: 0x0, symName: __ZNK9Scintilla8Internal8Document13NextCharacterERli, symObjAddr: 0x2724, symBinAddr: 0x20178, symSize: 0x3C }
  - { offset: 0x160415, size: 0x8, addend: 0x0, symName: __ZNK9Scintilla8Internal8Document14CharacterAfterEl, symObjAddr: 0x2760, symBinAddr: 0x201B4, symSize: 0x13C }
  - { offset: 0x1605FC, size: 0x8, addend: 0x0, symName: __ZNK9Scintilla8Internal8Document15CharacterBeforeEl, symObjAddr: 0x289C, symBinAddr: 0x202F0, symSize: 0x124 }
  - { offset: 0x16084E, size: 0x8, addend: 0x0, symName: __ZNK9Scintilla8Internal8Document19GetRelativePositionEll, symObjAddr: 0x29C0, symBinAddr: 0x20414, symSize: 0x94 }
  - { offset: 0x160916, size: 0x8, addend: 0x0, symName: __ZThn8_NK9Scintilla8Internal8Document19GetRelativePositionEll, symObjAddr: 0x2A54, symBinAddr: 0x204A8, symSize: 0x8 }
  - { offset: 0x160967, size: 0x8, addend: 0x0, symName: __ZNK9Scintilla8Internal8Document24GetRelativePositionUTF16Ell, symObjAddr: 0x2A5C, symBinAddr: 0x204B0, symSize: 0xB8 }
  - { offset: 0x160A5B, size: 0x8, addend: 0x0, symName: __ZNK9Scintilla8Internal8Document20GetCharacterAndWidthElPl, symObjAddr: 0x2B14, symBinAddr: 0x20568, symSize: 0x1AC }
  - { offset: 0x160B9F, size: 0x8, addend: 0x0, symName: __ZThn8_NK9Scintilla8Internal8Document20GetCharacterAndWidthElPl, symObjAddr: 0x2CC0, symBinAddr: 0x20714, symSize: 0x8 }
  - { offset: 0x160BD3, size: 0x8, addend: 0x0, symName: __ZNK9Scintilla8Internal8Document8CodePageEv, symObjAddr: 0x2CC8, symBinAddr: 0x2071C, symSize: 0x8 }
  - { offset: 0x160C0D, size: 0x8, addend: 0x0, symName: __ZThn8_NK9Scintilla8Internal8Document8CodePageEv, symObjAddr: 0x2CD0, symBinAddr: 0x20724, symSize: 0x8 }
  - { offset: 0x160C28, size: 0x8, addend: 0x0, symName: __ZThn8_NK9Scintilla8Internal8Document8CodePageEv, symObjAddr: 0x2CD0, symBinAddr: 0x20724, symSize: 0x8 }
  - { offset: 0x160C42, size: 0x8, addend: 0x0, symName: __ZNK9Scintilla8Internal8Document14IsDBCSLeadByteEc, symObjAddr: 0x2CD8, symBinAddr: 0x2072C, symSize: 0x4 }
  - { offset: 0x160C6C, size: 0x8, addend: 0x0, symName: __ZNK9Scintilla8Internal8Document14IsDBCSLeadByteEc, symObjAddr: 0x2CD8, symBinAddr: 0x2072C, symSize: 0x4 }
  - { offset: 0x160CAA, size: 0x8, addend: 0x0, symName: __ZThn8_NK9Scintilla8Internal8Document14IsDBCSLeadByteEc, symObjAddr: 0x2CDC, symBinAddr: 0x20730, symSize: 0x8 }
  - { offset: 0x160CF4, size: 0x8, addend: 0x0, symName: __ZNK9Scintilla8Internal8Document13DBCSDrawBytesENSt3__117basic_string_viewIcNS2_11char_traitsIcEEEE, symObjAddr: 0x2CE4, symBinAddr: 0x20738, symSize: 0x60 }
  - { offset: 0x160D7C, size: 0x8, addend: 0x0, symName: __ZNK9Scintilla8Internal8Document11SafeSegmentENSt3__117basic_string_viewIcNS2_11char_traitsIcEEEE, symObjAddr: 0x2D44, symBinAddr: 0x20798, symSize: 0x158 }
  - { offset: 0x160F0E, size: 0x8, addend: 0x0, symName: __ZNK9Scintilla8Internal8Document14CodePageFamilyEv, symObjAddr: 0x2EDC, symBinAddr: 0x20930, symSize: 0x20 }
  - { offset: 0x160F37, size: 0x8, addend: 0x0, symName: __ZN9Scintilla8Internal8Document19NotifyModifyAttemptEv, symObjAddr: 0x2EFC, symBinAddr: 0x20950, symSize: 0x50 }
  - { offset: 0x1610AA, size: 0x8, addend: 0x0, symName: __ZNK9Scintilla8Internal8Document15TrimReplacementERNSt3__117basic_string_viewIcNS2_11char_traitsIcEEEERNS0_5RangeE, symObjAddr: 0x2F4C, symBinAddr: 0x209A0, symSize: 0xD4 }
  - { offset: 0x161212, size: 0x8, addend: 0x0, symName: __ZN9Scintilla8Internal8Document11DeleteCharsEll, symObjAddr: 0x3020, symBinAddr: 0x20A74, symSize: 0x1BC }
  - { offset: 0x1616EA, size: 0x8, addend: 0x0, symName: __ZN9Scintilla8Internal8Document12InsertStringElPKcl, symObjAddr: 0x31DC, symBinAddr: 0x20C30, symSize: 0x218 }
  - { offset: 0x161D99, size: 0x8, addend: 0x0, symName: __ZN9Scintilla8Internal8Document12InsertStringElNSt3__117basic_string_viewIcNS2_11char_traitsIcEEEE, symObjAddr: 0x33F4, symBinAddr: 0x20E48, symSize: 0x4 }
  - { offset: 0x161DCC, size: 0x8, addend: 0x0, symName: __ZN9Scintilla8Internal8Document12InsertStringElNSt3__117basic_string_viewIcNS2_11char_traitsIcEEEE, symObjAddr: 0x33F4, symBinAddr: 0x20E48, symSize: 0x4 }
  - { offset: 0x161DF4, size: 0x8, addend: 0x0, symName: __ZN9Scintilla8Internal8Document15ChangeInsertionEPKcl, symObjAddr: 0x33F8, symBinAddr: 0x20E4C, symSize: 0x10 }
  - { offset: 0x161E3B, size: 0x8, addend: 0x0, symName: __ZN9Scintilla8Internal8Document7AddDataEPKcl, symObjAddr: 0x3408, symBinAddr: 0x20E5C, symSize: 0x6C }
  - { offset: 0x161EE2, size: 0x8, addend: 0x0, symName: __ZThn16_N9Scintilla8Internal8Document7AddDataEPKcl, symObjAddr: 0x3474, symBinAddr: 0x20EC8, symSize: 0x8 }
  - { offset: 0x161F16, size: 0x8, addend: 0x0, symName: __ZN9Scintilla8Internal8Document18AsDocumentEditableEv, symObjAddr: 0x347C, symBinAddr: 0x20ED0, symSize: 0x8 }
  - { offset: 0x161F4F, size: 0x8, addend: 0x0, symName: __ZN9Scintilla8Internal8Document17ConvertToDocumentEv, symObjAddr: 0x3484, symBinAddr: 0x20ED8, symSize: 0x8 }
  - { offset: 0x161F73, size: 0x8, addend: 0x0, symName: __ZN9Scintilla8Internal8Document17ConvertToDocumentEv, symObjAddr: 0x3484, symBinAddr: 0x20ED8, symSize: 0x8 }
  - { offset: 0x161FA6, size: 0x8, addend: 0x0, symName: __ZThn16_N9Scintilla8Internal8Document17ConvertToDocumentEv, symObjAddr: 0x348C, symBinAddr: 0x20EE0, symSize: 0x8 }
  - { offset: 0x161FC1, size: 0x8, addend: 0x0, symName: __ZThn16_N9Scintilla8Internal8Document17ConvertToDocumentEv, symObjAddr: 0x348C, symBinAddr: 0x20EE0, symSize: 0x8 }
  - { offset: 0x161FDD, size: 0x8, addend: 0x0, symName: __ZThn16_N9Scintilla8Internal8Document17ConvertToDocumentEv, symObjAddr: 0x348C, symBinAddr: 0x20EE0, symSize: 0x8 }
  - { offset: 0x16201A, size: 0x8, addend: 0x0, symName: __ZN9Scintilla8Internal8Document4UndoEv, symObjAddr: 0x3494, symBinAddr: 0x20EE8, symSize: 0x314 }
  - { offset: 0x1624A9, size: 0x8, addend: 0x0, symName: __ZN9Scintilla8Internal8Document4RedoEv, symObjAddr: 0x37A8, symBinAddr: 0x211FC, symSize: 0x2B0 }
  - { offset: 0x16290A, size: 0x8, addend: 0x0, symName: __ZNK9Scintilla8Internal8Document17UndoSequenceDepthEv, symObjAddr: 0x3A58, symBinAddr: 0x214AC, symSize: 0x8 }
  - { offset: 0x162933, size: 0x8, addend: 0x0, symName: __ZN9Scintilla8Internal8Document7DelCharEl, symObjAddr: 0x3A60, symBinAddr: 0x214B4, symSize: 0x30 }
  - { offset: 0x162997, size: 0x8, addend: 0x0, symName: __ZN9Scintilla8Internal8Document11DelCharBackEl, symObjAddr: 0x3A90, symBinAddr: 0x214E4, symSize: 0x94 }
  - { offset: 0x162A57, size: 0x8, addend: 0x0, symName: __ZN9Scintilla8Internal8Document18GetLineIndentationEl, symObjAddr: 0x3B24, symBinAddr: 0x21578, symSize: 0xD0 }
  - { offset: 0x162B7B, size: 0x8, addend: 0x0, symName: __ZThn8_N9Scintilla8Internal8Document18GetLineIndentationEl, symObjAddr: 0x3BF4, symBinAddr: 0x21648, symSize: 0x8 }
  - { offset: 0x162D3B, size: 0x8, addend: 0x0, symName: __ZN9Scintilla8Internal8Document18SetLineIndentationEll, symObjAddr: 0x3BFC, symBinAddr: 0x21650, symSize: 0x188 }
  - { offset: 0x163243, size: 0x8, addend: 0x0, symName: __ZNK9Scintilla8Internal8Document21GetLineIndentPositionEl, symObjAddr: 0x3D84, symBinAddr: 0x217D8, symSize: 0x90 }
  - { offset: 0x1632BE, size: 0x8, addend: 0x0, symName: __ZNK9Scintilla8Internal8Document9GetColumnEl, symObjAddr: 0x3E14, symBinAddr: 0x21868, symSize: 0x100 }
  - { offset: 0x163408, size: 0x8, addend: 0x0, symName: __ZNK9Scintilla8Internal8Document15CountCharactersEll, symObjAddr: 0x3F14, symBinAddr: 0x21968, symSize: 0x88 }
  - { offset: 0x1634D9, size: 0x8, addend: 0x0, symName: __ZNK9Scintilla8Internal8Document10CountUTF16Ell, symObjAddr: 0x3F9C, symBinAddr: 0x219F0, symSize: 0xA0 }
  - { offset: 0x1635C9, size: 0x8, addend: 0x0, symName: __ZN9Scintilla8Internal8Document10FindColumnEll, symObjAddr: 0x403C, symBinAddr: 0x21A90, symSize: 0xE8 }
  - { offset: 0x163705, size: 0x8, addend: 0x0, symName: __ZN9Scintilla8Internal8Document6IndentEbll, symObjAddr: 0x4124, symBinAddr: 0x21B78, symSize: 0xC0 }
  - { offset: 0x16375F, size: 0x8, addend: 0x0, symName: __ZN9Scintilla8Internal8Document6IndentEbll, symObjAddr: 0x4124, symBinAddr: 0x21B78, symSize: 0xC0 }
  - { offset: 0x16387E, size: 0x8, addend: 0x0, symName: __ZN9Scintilla8Internal8Document17TransformLineEndsEPKcmNS_9EndOfLineE, symObjAddr: 0x41E4, symBinAddr: 0x21C38, symSize: 0xFC }
  - { offset: 0x163AE7, size: 0x8, addend: 0x0, symName: __ZN9Scintilla8Internal8Document15ConvertLineEndsENS_9EndOfLineE, symObjAddr: 0x42E0, symBinAddr: 0x21D34, symSize: 0x1A8 }
  - { offset: 0x163D5F, size: 0x8, addend: 0x0, symName: __ZNK9Scintilla8Internal8Document9EOLStringEv, symObjAddr: 0x4488, symBinAddr: 0x21EDC, symSize: 0x44 }
  - { offset: 0x163DA5, size: 0x8, addend: 0x0, symName: __ZNK9Scintilla8Internal8Document7OptionsEv, symObjAddr: 0x44CC, symBinAddr: 0x21F20, symSize: 0x40 }
  - { offset: 0x163E11, size: 0x8, addend: 0x0, symName: __ZNK9Scintilla8Internal8Document11IsWhiteLineEl, symObjAddr: 0x450C, symBinAddr: 0x21F60, symSize: 0x9C }
  - { offset: 0x163EA1, size: 0x8, addend: 0x0, symName: __ZNK9Scintilla8Internal8Document6ParaUpEl, symObjAddr: 0x45A8, symBinAddr: 0x21FFC, symSize: 0xB0 }
  - { offset: 0x163F7A, size: 0x8, addend: 0x0, symName: __ZNK9Scintilla8Internal8Document8ParaDownEl, symObjAddr: 0x4658, symBinAddr: 0x220AC, symSize: 0xAC }
  - { offset: 0x1640E3, size: 0x8, addend: 0x0, symName: __ZNK9Scintilla8Internal8Document18WordCharacterClassEj, symObjAddr: 0x4704, symBinAddr: 0x22158, symSize: 0x90 }
  - { offset: 0x1641A5, size: 0x8, addend: 0x0, symName: __ZNK9Scintilla8Internal8Document16ExtendWordSelectElib, symObjAddr: 0x4794, symBinAddr: 0x221E8, symSize: 0x120 }
  - { offset: 0x1643A0, size: 0x8, addend: 0x0, symName: __ZNK9Scintilla8Internal8Document13NextWordStartEli, symObjAddr: 0x48B4, symBinAddr: 0x22308, symSize: 0x16C }
  - { offset: 0x1645BC, size: 0x8, addend: 0x0, symName: __ZNK9Scintilla8Internal8Document11NextWordEndEli, symObjAddr: 0x4A20, symBinAddr: 0x22474, symSize: 0x180 }
  - { offset: 0x1647FF, size: 0x8, addend: 0x0, symName: __ZNK9Scintilla8Internal8Document13IsWordStartAtEl, symObjAddr: 0x4BA0, symBinAddr: 0x225F4, symSize: 0xA4 }
  - { offset: 0x164904, size: 0x8, addend: 0x0, symName: __ZNK9Scintilla8Internal8Document11IsWordEndAtEl, symObjAddr: 0x4C44, symBinAddr: 0x22698, symSize: 0xB4 }
  - { offset: 0x164A20, size: 0x8, addend: 0x0, symName: __ZNK9Scintilla8Internal8Document8IsWordAtEll, symObjAddr: 0x4CF8, symBinAddr: 0x2274C, symSize: 0x48 }
  - { offset: 0x164A86, size: 0x8, addend: 0x0, symName: __ZNK9Scintilla8Internal8Document18MatchesWordOptionsEbbll, symObjAddr: 0x4D40, symBinAddr: 0x22794, symSize: 0x7C }
  - { offset: 0x164B39, size: 0x8, addend: 0x0, symName: __ZNK9Scintilla8Internal8Document13HasCaseFolderEv, symObjAddr: 0x4DBC, symBinAddr: 0x22810, symSize: 0x10 }
  - { offset: 0x164B64, size: 0x8, addend: 0x0, symName: __ZNK9Scintilla8Internal8Document13HasCaseFolderEv, symObjAddr: 0x4DBC, symBinAddr: 0x22810, symSize: 0x10 }
  - { offset: 0x164B89, size: 0x8, addend: 0x0, symName: __ZNK9Scintilla8Internal8Document13HasCaseFolderEv, symObjAddr: 0x4DBC, symBinAddr: 0x22810, symSize: 0x10 }
  - { offset: 0x164BA8, size: 0x8, addend: 0x0, symName: __ZNK9Scintilla8Internal8Document16ExtractCharacterEl, symObjAddr: 0x4DCC, symBinAddr: 0x22820, symSize: 0xBC }
  - { offset: 0x164EBE, size: 0x8, addend: 0x0, symName: __ZN9Scintilla8Internal8Document8FindTextEllPKcNS_10FindOptionEPl, symObjAddr: 0x4E88, symBinAddr: 0x228DC, symSize: 0xADC }
  - { offset: 0x16617B, size: 0x8, addend: 0x0, symName: __ZN9Scintilla8Internal8Document20SubstituteByPositionEPKcPl, symObjAddr: 0x59C8, symBinAddr: 0x2341C, symSize: 0x24 }
  - { offset: 0x1661F2, size: 0x8, addend: 0x0, symName: __ZNK9Scintilla8Internal8Document18LineCharacterIndexEv, symObjAddr: 0x59EC, symBinAddr: 0x23440, symSize: 0x8 }
  - { offset: 0x16621B, size: 0x8, addend: 0x0, symName: __ZN9Scintilla8Internal8Document26AllocateLineCharacterIndexENS_22LineCharacterIndexTypeE, symObjAddr: 0x59F4, symBinAddr: 0x23448, symSize: 0x8 }
  - { offset: 0x166253, size: 0x8, addend: 0x0, symName: __ZN9Scintilla8Internal8Document25ReleaseLineCharacterIndexENS_22LineCharacterIndexTypeE, symObjAddr: 0x59FC, symBinAddr: 0x23450, symSize: 0x8 }
  - { offset: 0x16628B, size: 0x8, addend: 0x0, symName: __ZN9Scintilla8Internal8Document13AllocateLinesEl, symObjAddr: 0x5A04, symBinAddr: 0x23458, symSize: 0x8 }
  - { offset: 0x1662C3, size: 0x8, addend: 0x0, symName: __ZN9Scintilla8Internal8Document21SetDefaultCharClassesEb, symObjAddr: 0x5A0C, symBinAddr: 0x23460, symSize: 0x8 }
  - { offset: 0x166300, size: 0x8, addend: 0x0, symName: __ZN9Scintilla8Internal8Document14SetCharClassesEPKhNS0_14CharacterClassE, symObjAddr: 0x5A14, symBinAddr: 0x23468, symSize: 0x8 }
  - { offset: 0x166347, size: 0x8, addend: 0x0, symName: __ZNK9Scintilla8Internal8Document15GetCharsOfClassENS0_14CharacterClassEPh, symObjAddr: 0x5A1C, symBinAddr: 0x23470, symSize: 0x8 }
  - { offset: 0x16638E, size: 0x8, addend: 0x0, symName: __ZN9Scintilla8Internal8Document32SetCharacterCategoryOptimizationEi, symObjAddr: 0x5A24, symBinAddr: 0x23478, symSize: 0x8 }
  - { offset: 0x1663C6, size: 0x8, addend: 0x0, symName: __ZNK9Scintilla8Internal8Document29CharacterCategoryOptimizationEv, symObjAddr: 0x5A2C, symBinAddr: 0x23480, symSize: 0x8 }
  - { offset: 0x1663EE, size: 0x8, addend: 0x0, symName: __ZN9Scintilla8Internal8Document12StartStylingEl, symObjAddr: 0x5A34, symBinAddr: 0x23488, symSize: 0x8 }
  - { offset: 0x166439, size: 0x8, addend: 0x0, symName: __ZThn8_N9Scintilla8Internal8Document12StartStylingEl, symObjAddr: 0x5A3C, symBinAddr: 0x23490, symSize: 0x8 }
  - { offset: 0x166454, size: 0x8, addend: 0x0, symName: __ZThn8_N9Scintilla8Internal8Document12StartStylingEl, symObjAddr: 0x5A3C, symBinAddr: 0x23490, symSize: 0x8 }
  - { offset: 0x166476, size: 0x8, addend: 0x0, symName: __ZN9Scintilla8Internal8Document11SetStyleForElc, symObjAddr: 0x5A44, symBinAddr: 0x23498, symSize: 0xA0 }
  - { offset: 0x166597, size: 0x8, addend: 0x0, symName: __ZThn8_N9Scintilla8Internal8Document11SetStyleForElc, symObjAddr: 0x5AE4, symBinAddr: 0x23538, symSize: 0x8 }
  - { offset: 0x1665CC, size: 0x8, addend: 0x0, symName: __ZN9Scintilla8Internal8Document9SetStylesElPKc, symObjAddr: 0x5AEC, symBinAddr: 0x23540, symSize: 0xEC }
  - { offset: 0x166731, size: 0x8, addend: 0x0, symName: __ZThn8_N9Scintilla8Internal8Document9SetStylesElPKc, symObjAddr: 0x5BD8, symBinAddr: 0x2362C, symSize: 0x8 }
  - { offset: 0x166765, size: 0x8, addend: 0x0, symName: __ZN9Scintilla8Internal8Document19IncrementStyleClockEv, symObjAddr: 0x5BE0, symBinAddr: 0x23634, symSize: 0x20 }
  - { offset: 0x166884, size: 0x8, addend: 0x0, symName: __ZN9Scintilla8Internal8Document28StyleToAdjustingLineDurationEl, symObjAddr: 0x5C00, symBinAddr: 0x23654, symSize: 0xB8 }
  - { offset: 0x166A86, size: 0x8, addend: 0x0, symName: __ZNK9Scintilla8Internal8Document15GetLexInterfaceEv, symObjAddr: 0x5CB8, symBinAddr: 0x2370C, symSize: 0x8 }
  - { offset: 0x166AB1, size: 0x8, addend: 0x0, symName: __ZNK9Scintilla8Internal8Document15GetLexInterfaceEv, symObjAddr: 0x5CB8, symBinAddr: 0x2370C, symSize: 0x8 }
  - { offset: 0x166B0E, size: 0x8, addend: 0x0, symName: __ZN9Scintilla8Internal8Document15SetLexInterfaceENSt3__110unique_ptrINS0_12LexInterfaceENS2_14default_deleteIS4_EEEE, symObjAddr: 0x5CC0, symBinAddr: 0x23714, symSize: 0x28 }
  - { offset: 0x166C04, size: 0x8, addend: 0x0, symName: __ZN9Scintilla8Internal8Document12SetLineStateEli, symObjAddr: 0x5CE8, symBinAddr: 0x2373C, symSize: 0x9C }
  - { offset: 0x166D7F, size: 0x8, addend: 0x0, symName: __ZThn8_N9Scintilla8Internal8Document12SetLineStateEli, symObjAddr: 0x5D84, symBinAddr: 0x237D8, symSize: 0x8 }
  - { offset: 0x166DB3, size: 0x8, addend: 0x0, symName: __ZNK9Scintilla8Internal8Document12GetLineStateEl, symObjAddr: 0x5D8C, symBinAddr: 0x237E0, symSize: 0x8 }
  - { offset: 0x166DDE, size: 0x8, addend: 0x0, symName: __ZNK9Scintilla8Internal8Document12GetLineStateEl, symObjAddr: 0x5D8C, symBinAddr: 0x237E0, symSize: 0x8 }
  - { offset: 0x166DFA, size: 0x8, addend: 0x0, symName: __ZNK9Scintilla8Internal8Document12GetLineStateEl, symObjAddr: 0x5D8C, symBinAddr: 0x237E0, symSize: 0x8 }
  - { offset: 0x166E3C, size: 0x8, addend: 0x0, symName: __ZThn8_NK9Scintilla8Internal8Document12GetLineStateEl, symObjAddr: 0x5D94, symBinAddr: 0x237E8, symSize: 0x8 }
  - { offset: 0x166E57, size: 0x8, addend: 0x0, symName: __ZThn8_NK9Scintilla8Internal8Document12GetLineStateEl, symObjAddr: 0x5D94, symBinAddr: 0x237E8, symSize: 0x8 }
  - { offset: 0x166E7A, size: 0x8, addend: 0x0, symName: __ZThn8_NK9Scintilla8Internal8Document12GetLineStateEl, symObjAddr: 0x5D94, symBinAddr: 0x237E8, symSize: 0x8 }
  - { offset: 0x166E98, size: 0x8, addend: 0x0, symName: __ZThn8_NK9Scintilla8Internal8Document12GetLineStateEl, symObjAddr: 0x5D94, symBinAddr: 0x237E8, symSize: 0x8 }
  - { offset: 0x166EB7, size: 0x8, addend: 0x0, symName: __ZNK9Scintilla8Internal8Document15GetMaxLineStateEv, symObjAddr: 0x5D9C, symBinAddr: 0x237F0, symSize: 0x8 }
  - { offset: 0x166EE2, size: 0x8, addend: 0x0, symName: __ZNK9Scintilla8Internal8Document15GetMaxLineStateEv, symObjAddr: 0x5D9C, symBinAddr: 0x237F0, symSize: 0x8 }
  - { offset: 0x166EFE, size: 0x8, addend: 0x0, symName: __ZNK9Scintilla8Internal8Document15GetMaxLineStateEv, symObjAddr: 0x5D9C, symBinAddr: 0x237F0, symSize: 0x8 }
  - { offset: 0x166F1C, size: 0x8, addend: 0x0, symName: __ZN9Scintilla8Internal8Document16ChangeLexerStateEll, symObjAddr: 0x5DA4, symBinAddr: 0x237F8, symSize: 0x3C }
  - { offset: 0x16703C, size: 0x8, addend: 0x0, symName: __ZThn8_N9Scintilla8Internal8Document16ChangeLexerStateEll, symObjAddr: 0x5DE0, symBinAddr: 0x23834, symSize: 0x40 }
  - { offset: 0x1671DB, size: 0x8, addend: 0x0, symName: __ZNK9Scintilla8Internal8Document16MarginStyledTextEl, symObjAddr: 0x5E20, symBinAddr: 0x23874, symSize: 0x94 }
  - { offset: 0x1672D3, size: 0x8, addend: 0x0, symName: __ZN9Scintilla8Internal8Document13MarginSetTextElPKc, symObjAddr: 0x5EB4, symBinAddr: 0x23908, symSize: 0x68 }
  - { offset: 0x167412, size: 0x8, addend: 0x0, symName: __ZN9Scintilla8Internal8Document14MarginSetStyleEli, symObjAddr: 0x5F1C, symBinAddr: 0x23970, symSize: 0x68 }
  - { offset: 0x167560, size: 0x8, addend: 0x0, symName: __ZN9Scintilla8Internal8Document15MarginSetStylesElPKh, symObjAddr: 0x5F84, symBinAddr: 0x239D8, symSize: 0x68 }
  - { offset: 0x1676AE, size: 0x8, addend: 0x0, symName: __ZN9Scintilla8Internal8Document14MarginClearAllEv, symObjAddr: 0x5FEC, symBinAddr: 0x23A40, symSize: 0x5C }
  - { offset: 0x167795, size: 0x8, addend: 0x0, symName: __ZNK9Scintilla8Internal8Document20AnnotationStyledTextEl, symObjAddr: 0x6048, symBinAddr: 0x23A9C, symSize: 0x94 }
  - { offset: 0x1678B1, size: 0x8, addend: 0x0, symName: __ZN9Scintilla8Internal8Document17AnnotationSetTextElPKc, symObjAddr: 0x60DC, symBinAddr: 0x23B30, symSize: 0xB8 }
  - { offset: 0x167A83, size: 0x8, addend: 0x0, symName: __ZNK9Scintilla8Internal8Document15AnnotationLinesEl, symObjAddr: 0x6194, symBinAddr: 0x23BE8, symSize: 0x8 }
  - { offset: 0x167AAE, size: 0x8, addend: 0x0, symName: __ZNK9Scintilla8Internal8Document15AnnotationLinesEl, symObjAddr: 0x6194, symBinAddr: 0x23BE8, symSize: 0x8 }
  - { offset: 0x167ACA, size: 0x8, addend: 0x0, symName: __ZNK9Scintilla8Internal8Document15AnnotationLinesEl, symObjAddr: 0x6194, symBinAddr: 0x23BE8, symSize: 0x8 }
  - { offset: 0x167AE8, size: 0x8, addend: 0x0, symName: __ZN9Scintilla8Internal8Document18AnnotationSetStyleEli, symObjAddr: 0x619C, symBinAddr: 0x23BF0, symSize: 0x90 }
  - { offset: 0x167C52, size: 0x8, addend: 0x0, symName: __ZN9Scintilla8Internal8Document19AnnotationSetStylesElPKh, symObjAddr: 0x622C, symBinAddr: 0x23C80, symSize: 0x5C }
  - { offset: 0x167CF6, size: 0x8, addend: 0x0, symName: __ZN9Scintilla8Internal8Document18AnnotationClearAllEv, symObjAddr: 0x6288, symBinAddr: 0x23CDC, symSize: 0x78 }
  - { offset: 0x167E0E, size: 0x8, addend: 0x0, symName: __ZNK9Scintilla8Internal8Document23EOLAnnotationStyledTextEl, symObjAddr: 0x6300, symBinAddr: 0x23D54, symSize: 0x94 }
  - { offset: 0x167F06, size: 0x8, addend: 0x0, symName: __ZN9Scintilla8Internal8Document20EOLAnnotationSetTextElPKc, symObjAddr: 0x6394, symBinAddr: 0x23DE8, symSize: 0x90 }
  - { offset: 0x168072, size: 0x8, addend: 0x0, symName: __ZN9Scintilla8Internal8Document21EOLAnnotationSetStyleEli, symObjAddr: 0x6424, symBinAddr: 0x23E78, symSize: 0x90 }
  - { offset: 0x1681DE, size: 0x8, addend: 0x0, symName: __ZN9Scintilla8Internal8Document21EOLAnnotationClearAllEv, symObjAddr: 0x64B4, symBinAddr: 0x23F08, symSize: 0x78 }
  - { offset: 0x1682DF, size: 0x8, addend: 0x0, symName: __ZN9Scintilla8Internal8Document29DecorationSetCurrentIndicatorEi, symObjAddr: 0x652C, symBinAddr: 0x23F80, symSize: 0x10 }
  - { offset: 0x16830A, size: 0x8, addend: 0x0, symName: __ZN9Scintilla8Internal8Document29DecorationSetCurrentIndicatorEi, symObjAddr: 0x652C, symBinAddr: 0x23F80, symSize: 0x10 }
  - { offset: 0x168360, size: 0x8, addend: 0x0, symName: __ZThn8_N9Scintilla8Internal8Document29DecorationSetCurrentIndicatorEi, symObjAddr: 0x653C, symBinAddr: 0x23F90, symSize: 0x10 }
  - { offset: 0x16837B, size: 0x8, addend: 0x0, symName: __ZThn8_N9Scintilla8Internal8Document29DecorationSetCurrentIndicatorEi, symObjAddr: 0x653C, symBinAddr: 0x23F90, symSize: 0x10 }
  - { offset: 0x16839E, size: 0x8, addend: 0x0, symName: __ZThn8_N9Scintilla8Internal8Document29DecorationSetCurrentIndicatorEi, symObjAddr: 0x653C, symBinAddr: 0x23F90, symSize: 0x10 }
  - { offset: 0x1683D1, size: 0x8, addend: 0x0, symName: __ZN9Scintilla8Internal8Document19DecorationFillRangeElil, symObjAddr: 0x654C, symBinAddr: 0x23FA0, symSize: 0x6C }
  - { offset: 0x168524, size: 0x8, addend: 0x0, symName: __ZThn8_N9Scintilla8Internal8Document19DecorationFillRangeElil, symObjAddr: 0x65B8, symBinAddr: 0x2400C, symSize: 0x8 }
  - { offset: 0x1688DB, size: 0x8, addend: 0x0, symName: __ZN9Scintilla8Internal8Document10AddWatcherEPNS0_10DocWatcherEPv, symObjAddr: 0x65C0, symBinAddr: 0x24014, symSize: 0x14C }
  - { offset: 0x168DFE, size: 0x8, addend: 0x0, symName: __ZN9Scintilla8Internal8Document13RemoveWatcherEPNS0_10DocWatcherEPv, symObjAddr: 0x670C, symBinAddr: 0x24160, symSize: 0x8C }
  - { offset: 0x168E10, size: 0x8, addend: 0x0, symName: __ZNKSt3__16vectorIN9Scintilla8Internal8Document19WatcherWithUserDataENS_9allocatorIS4_EEE20__throw_length_errorB8ne180100Ev, symObjAddr: 0x1E19C, symBinAddr: 0x3B728, symSize: 0x14 }
  - { offset: 0x168E38, size: 0x8, addend: 0x0, symName: __ZNSt3__119__allocate_at_leastB8ne180100INS_9allocatorIN9Scintilla8Internal8Document19WatcherWithUserDataEEEEENS_19__allocation_resultINS_16allocator_traitsIT_E7pointerEEERS9_m, symObjAddr: 0x1E1B0, symBinAddr: 0x3B73C, symSize: 0x34 }
  - { offset: 0x168F1F, size: 0x8, addend: 0x0, symName: __ZN9Scintilla8Internal8Document13RemoveWatcherEPNS0_10DocWatcherEPv, symObjAddr: 0x670C, symBinAddr: 0x24160, symSize: 0x8C }
  - { offset: 0x169217, size: 0x8, addend: 0x0, symName: __ZNK9Scintilla8Internal8Document19IsWordPartSeparatorEj, symObjAddr: 0x6798, symBinAddr: 0x241EC, symSize: 0x3C }
  - { offset: 0x169290, size: 0x8, addend: 0x0, symName: __ZNK9Scintilla8Internal8Document12WordPartLeftEl, symObjAddr: 0x67D4, symBinAddr: 0x24228, symSize: 0x350 }
  - { offset: 0x1697B1, size: 0x8, addend: 0x0, symName: __ZNK9Scintilla8Internal8Document13WordPartRightEl, symObjAddr: 0x6B24, symBinAddr: 0x24578, symSize: 0x2E8 }
  - { offset: 0x169C82, size: 0x8, addend: 0x0, symName: __ZN9Scintilla8Internal8Document16ExtendStyleRangeElib, symObjAddr: 0x6E0C, symBinAddr: 0x24860, symSize: 0xF4 }
  - { offset: 0x169D37, size: 0x8, addend: 0x0, symName: __ZN9Scintilla8Internal8Document10BraceMatchElllb, symObjAddr: 0x6F00, symBinAddr: 0x24954, symSize: 0x1E0 }
  - { offset: 0x16B55D, size: 0x8, addend: 0x0, symName: __ZN12BuiltinRegex8FindTextEPN9Scintilla8Internal8DocumentEllPKcbbbNS0_10FindOptionEPl, symObjAddr: 0x70E0, symBinAddr: 0x24B34, symSize: 0x1208 }
  - { offset: 0x16EC35, size: 0x8, addend: 0x0, symName: __ZN12_GLOBAL__N_113RESearchRangeC1EPKN9Scintilla8Internal8DocumentEll, symObjAddr: 0x82E8, symBinAddr: 0x25D3C, symSize: 0x98 }
  - { offset: 0x16ED66, size: 0x8, addend: 0x0, symName: __ZNSt3__112regex_traitsIwEC2Ev, symObjAddr: 0x867C, symBinAddr: 0x260D0, symSize: 0x5C }
  - { offset: 0x16EDE9, size: 0x8, addend: 0x0, symName: __ZNSt3__111basic_regexIwNS_12regex_traitsIwEEE6assignB8ne180100INS_11__wrap_iterIPKwEELi0EEERS3_T_SA_NS_15regex_constants18syntax_option_typeE, symObjAddr: 0x86D8, symBinAddr: 0x2612C, symSize: 0x98 }
  - { offset: 0x16F03A, size: 0x8, addend: 0x0, symName: __ZNSt3__112regex_traitsIcEC2Ev, symObjAddr: 0x138D0, symBinAddr: 0x31108, symSize: 0x5C }
  - { offset: 0x16F0BD, size: 0x8, addend: 0x0, symName: __ZNSt3__111basic_regexIcNS_12regex_traitsIcEEE6assignB8ne180100IPKcLi0EEERS3_T_S8_NS_15regex_constants18syntax_option_typeE, symObjAddr: 0x1392C, symBinAddr: 0x31164, symSize: 0x98 }
  - { offset: 0x16F30E, size: 0x8, addend: 0x0, symName: __ZNKSt3__16vectorINS_9sub_matchIN12_GLOBAL__N_112ByteIteratorEEENS_9allocatorIS4_EEE20__throw_length_errorB8ne180100Ev, symObjAddr: 0x1E01C, symBinAddr: 0x3B658, symSize: 0x14 }
  - { offset: 0x16F332, size: 0x8, addend: 0x0, symName: __ZNSt3__119__allocate_at_leastB8ne180100INS_9allocatorINS_9sub_matchIN12_GLOBAL__N_112ByteIteratorEEEEEEENS_19__allocation_resultINS_16allocator_traitsIT_E7pointerEEERS9_m, symObjAddr: 0x1E030, symBinAddr: 0x3B66C, symSize: 0x44 }
  - { offset: 0x16F33D, size: 0x8, addend: 0x0, symName: __ZNKSt3__16vectorINS_9sub_matchIN12_GLOBAL__N_112UTF8IteratorEEENS_9allocatorIS4_EEE20__throw_length_errorB8ne180100Ev, symObjAddr: 0x13878, symBinAddr: 0x310B0, symSize: 0x14 }
  - { offset: 0x16F361, size: 0x8, addend: 0x0, symName: __ZNSt3__119__allocate_at_leastB8ne180100INS_9allocatorINS_9sub_matchIN12_GLOBAL__N_112UTF8IteratorEEEEEEENS_19__allocation_resultINS_16allocator_traitsIT_E7pointerEEERS9_m, symObjAddr: 0x1388C, symBinAddr: 0x310C4, symSize: 0x44 }
  - { offset: 0x16F36C, size: 0x8, addend: 0x0, symName: __ZNSt3__110shared_ptrINS_13__empty_stateIwEEED2B8ne180100Ev, symObjAddr: 0x87CC, symBinAddr: 0x26220, symSize: 0x50 }
  - { offset: 0x16F3F6, size: 0x8, addend: 0x0, symName: __ZNSt3__110shared_ptrINS_13__empty_stateIcEEED2B8ne180100Ev, symObjAddr: 0x13A20, symBinAddr: 0x31258, symSize: 0x50 }
  - { offset: 0x16F51E, size: 0x8, addend: 0x0, symName: __ZN12BuiltinRegex20SubstituteByPositionEPN9Scintilla8Internal8DocumentEPKcPl, symObjAddr: 0x8380, symBinAddr: 0x25DD4, symSize: 0x228 }
  - { offset: 0x16F95E, size: 0x8, addend: 0x0, symName: __ZNK9Scintilla8Internal8Document7VersionEv, symObjAddr: 0x85A8, symBinAddr: 0x25FFC, symSize: 0x8 }
  - { offset: 0x16F983, size: 0x8, addend: 0x0, symName: __ZN9Scintilla8Internal8Document13BufferPointerEv, symObjAddr: 0x85B0, symBinAddr: 0x26004, symSize: 0x8 }
  - { offset: 0x16F9A4, size: 0x8, addend: 0x0, symName: __ZNK9Scintilla8Internal8Document12GetCharRangeEPcll, symObjAddr: 0x85B8, symBinAddr: 0x2600C, symSize: 0x8 }
  - { offset: 0x16F9DA, size: 0x8, addend: 0x0, symName: __ZNK9Scintilla8Internal8Document7StyleAtEl, symObjAddr: 0x85C0, symBinAddr: 0x26014, symSize: 0x8 }
  - { offset: 0x16FA02, size: 0x8, addend: 0x0, symName: __ZNK9Scintilla8Internal8Document6LengthEv, symObjAddr: 0x85C8, symBinAddr: 0x2601C, symSize: 0x8 }
  - { offset: 0x16FA24, size: 0x8, addend: 0x0, symName: __ZThn8_NK9Scintilla8Internal8Document7VersionEv, symObjAddr: 0x85D0, symBinAddr: 0x26024, symSize: 0x8 }
  - { offset: 0x16FA4F, size: 0x8, addend: 0x0, symName: __ZThn8_NK9Scintilla8Internal8Document6LengthEv, symObjAddr: 0x85D8, symBinAddr: 0x2602C, symSize: 0x8 }
  - { offset: 0x16FA6A, size: 0x8, addend: 0x0, symName: __ZThn8_NK9Scintilla8Internal8Document6LengthEv, symObjAddr: 0x85D8, symBinAddr: 0x2602C, symSize: 0x8 }
  - { offset: 0x16FABD, size: 0x8, addend: 0x0, symName: __ZThn8_NK9Scintilla8Internal8Document12GetCharRangeEPcll, symObjAddr: 0x85E0, symBinAddr: 0x26034, symSize: 0x8 }
  - { offset: 0x16FAD8, size: 0x8, addend: 0x0, symName: __ZThn8_NK9Scintilla8Internal8Document12GetCharRangeEPcll, symObjAddr: 0x85E0, symBinAddr: 0x26034, symSize: 0x8 }
  - { offset: 0x16FB28, size: 0x8, addend: 0x0, symName: __ZThn8_NK9Scintilla8Internal8Document7StyleAtEl, symObjAddr: 0x85E8, symBinAddr: 0x2603C, symSize: 0x8 }
  - { offset: 0x16FB43, size: 0x8, addend: 0x0, symName: __ZThn8_NK9Scintilla8Internal8Document7StyleAtEl, symObjAddr: 0x85E8, symBinAddr: 0x2603C, symSize: 0x8 }
  - { offset: 0x16FB79, size: 0x8, addend: 0x0, symName: __ZThn8_N9Scintilla8Internal8Document13BufferPointerEv, symObjAddr: 0x85F0, symBinAddr: 0x26044, symSize: 0x8 }
  - { offset: 0x16FB94, size: 0x8, addend: 0x0, symName: __ZThn8_N9Scintilla8Internal8Document13BufferPointerEv, symObjAddr: 0x85F0, symBinAddr: 0x26044, symSize: 0x8 }
  - { offset: 0x16FBCB, size: 0x8, addend: 0x0, symName: __ZN12BuiltinRegexD1Ev, symObjAddr: 0x85F8, symBinAddr: 0x2604C, symSize: 0x40 }
  - { offset: 0x16FD50, size: 0x8, addend: 0x0, symName: __ZN12BuiltinRegexD0Ev, symObjAddr: 0x8638, symBinAddr: 0x2608C, symSize: 0x40 }
  - { offset: 0x16FEFB, size: 0x8, addend: 0x0, symName: __ZN9Scintilla8Internal10RegexErrorD1Ev, symObjAddr: 0x8678, symBinAddr: 0x260CC, symSize: 0x4 }
  - { offset: 0x16FF1D, size: 0x8, addend: 0x0, symName: __ZN9Scintilla8Internal10RegexErrorD1Ev, symObjAddr: 0x8678, symBinAddr: 0x260CC, symSize: 0x4 }
  - { offset: 0x170002, size: 0x8, addend: 0x0, symName: __ZNSt3__111basic_regexIwNS_12regex_traitsIwEEEC2B8ne180100INS_11__wrap_iterIPKwEEEET_S9_NS_15regex_constants18syntax_option_typeE, symObjAddr: 0x881C, symBinAddr: 0x26270, symSize: 0x84 }
  - { offset: 0x170162, size: 0x8, addend: 0x0, symName: __ZNSt3__110shared_ptrINS_13__empty_stateIwEEEaSB8ne180100EOS3_, symObjAddr: 0x8770, symBinAddr: 0x261C4, symSize: 0x5C }
  - { offset: 0x17037D, size: 0x8, addend: 0x0, symName: __ZNSt3__111basic_regexIwNS_12regex_traitsIwEEE7__parseINS_11__wrap_iterIPKwEEEET_S9_S9_, symObjAddr: 0x88A0, symBinAddr: 0x262F4, symSize: 0x150 }
  - { offset: 0x1707E1, size: 0x8, addend: 0x0, symName: __ZNSt3__110shared_ptrINS_13__empty_stateIwEEE5resetB8ne180100IS2_vEEvPT_, symObjAddr: 0x8A3C, symBinAddr: 0x26490, symSize: 0x68 }
  - { offset: 0x17094B, size: 0x8, addend: 0x0, symName: __ZNSt3__111basic_regexIwNS_12regex_traitsIwEEE13__parse_egrepINS_11__wrap_iterIPKwEEEET_S9_S9_, symObjAddr: 0x8EB4, symBinAddr: 0x26908, symSize: 0x144 }
  - { offset: 0x170D59, size: 0x8, addend: 0x0, symName: __ZNSt3__111basic_regexIwNS_12regex_traitsIwEEE24__parse_extended_reg_expINS_11__wrap_iterIPKwEEEET_S9_S9_, symObjAddr: 0x8CD0, symBinAddr: 0x26724, symSize: 0xA0 }
  - { offset: 0x170E5F, size: 0x8, addend: 0x0, symName: __ZNSt3__111basic_regexIwNS_12regex_traitsIwEEE12__parse_grepINS_11__wrap_iterIPKwEEEET_S9_S9_, symObjAddr: 0x8D70, symBinAddr: 0x267C4, symSize: 0x144 }
  - { offset: 0x170E73, size: 0x8, addend: 0x0, symName: __ZNSt3__111basic_regexIwNS_12regex_traitsIwEEE16__parse_ecma_expINS_11__wrap_iterIPKwEEEET_S9_S9_, symObjAddr: 0x8AA4, symBinAddr: 0x264F8, symSize: 0x100 }
  - { offset: 0x1710DA, size: 0x8, addend: 0x0, symName: __ZNSt3__111basic_regexIwNS_12regex_traitsIwEEE21__parse_basic_reg_expINS_11__wrap_iterIPKwEEEET_S9_S9_, symObjAddr: 0x8BA4, symBinAddr: 0x265F8, symSize: 0x12C }
  - { offset: 0x1713EB, size: 0x8, addend: 0x0, symName: __ZNSt3__111basic_regexIwNS_12regex_traitsIwEEE24__parse_extended_reg_expINS_11__wrap_iterIPKwEEEET_S9_S9_, symObjAddr: 0x8CD0, symBinAddr: 0x26724, symSize: 0xA0 }
  - { offset: 0x1713FF, size: 0x8, addend: 0x0, symName: __ZNSt3__111basic_regexIwNS_12regex_traitsIwEEE12__parse_grepINS_11__wrap_iterIPKwEEEET_S9_S9_, symObjAddr: 0x8D70, symBinAddr: 0x267C4, symSize: 0x144 }
  - { offset: 0x17183C, size: 0x8, addend: 0x0, symName: __ZNSt3__110shared_ptrINS_13__empty_stateIwEEEC2B8ne180100IS2_vEEPT_, symObjAddr: 0x9060, symBinAddr: 0x26AB4, symSize: 0x68 }
  - { offset: 0x1719B8, size: 0x8, addend: 0x0, symName: __ZNSt3__111basic_regexIwNS_12regex_traitsIwEEE19__parse_alternativeINS_11__wrap_iterIPKwEEEET_S9_S9_, symObjAddr: 0x92A8, symBinAddr: 0x26CFC, symSize: 0x48 }
  - { offset: 0x171A44, size: 0x8, addend: 0x0, symName: __ZNSt3__111basic_regexIwNS_12regex_traitsIwEEE18__push_alternationEPNS_16__owns_one_stateIwEES6_, symObjAddr: 0x92F0, symBinAddr: 0x26D44, symSize: 0xB0 }
  - { offset: 0x171DB1, size: 0x8, addend: 0x0, symName: __ZNSt3__111basic_regexIwNS_12regex_traitsIwEEE17__parse_simple_REINS_11__wrap_iterIPKwEEEET_S9_S9_, symObjAddr: 0x107DC, symBinAddr: 0x2E014, symSize: 0x88 }
  - { offset: 0x171E67, size: 0x8, addend: 0x0, symName: __ZNSt3__111basic_regexIwNS_12regex_traitsIwEEE18__parse_ERE_branchINS_11__wrap_iterIPKwEEEET_S9_S9_, symObjAddr: 0x10DD8, symBinAddr: 0x2E610, symSize: 0x5C }
  - { offset: 0x171F07, size: 0x8, addend: 0x0, symName: __ZNSt3__111basic_regexIwNS_12regex_traitsIwEEE22__parse_ERE_expressionINS_11__wrap_iterIPKwEEEET_S9_S9_, symObjAddr: 0x10E34, symBinAddr: 0x2E66C, symSize: 0x190 }
  - { offset: 0x171F3C, size: 0x8, addend: 0x0, symName: __ZNSt3__111__end_stateIwED1Ev, symObjAddr: 0x9044, symBinAddr: 0x26A98, symSize: 0x4 }
  - { offset: 0x171F67, size: 0x8, addend: 0x0, symName: __ZNSt3__111__end_stateIwED0Ev, symObjAddr: 0x9048, symBinAddr: 0x26A9C, symSize: 0x4 }
  - { offset: 0x171F92, size: 0x8, addend: 0x0, symName: __ZNKSt3__111__end_stateIwE6__execERNS_7__stateIwEE, symObjAddr: 0x904C, symBinAddr: 0x26AA0, symSize: 0xC }
  - { offset: 0x171FC7, size: 0x8, addend: 0x0, symName: __ZNKSt3__16__nodeIwE12__exec_splitEbRNS_7__stateIwEE, symObjAddr: 0x9058, symBinAddr: 0x26AAC, symSize: 0x4 }
  - { offset: 0x172006, size: 0x8, addend: 0x0, symName: __ZNKSt3__16__nodeIwE6__execERNS_7__stateIwEE, symObjAddr: 0x905C, symBinAddr: 0x26AB0, symSize: 0x4 }
  - { offset: 0x1722B8, size: 0x8, addend: 0x0, symName: __ZNSt3__120__shared_ptr_pointerIPNS_13__empty_stateIwEENS_10shared_ptrIS2_E27__shared_ptr_default_deleteIS2_S2_EENS_9allocatorIS2_EEED1Ev, symObjAddr: 0x90C8, symBinAddr: 0x26B1C, symSize: 0x4 }
  - { offset: 0x1722DA, size: 0x8, addend: 0x0, symName: __ZNSt3__120__shared_ptr_pointerIPNS_13__empty_stateIwEENS_10shared_ptrIS2_E27__shared_ptr_default_deleteIS2_S2_EENS_9allocatorIS2_EEED1Ev, symObjAddr: 0x90C8, symBinAddr: 0x26B1C, symSize: 0x4 }
  - { offset: 0x17230F, size: 0x8, addend: 0x0, symName: __ZNSt3__120__shared_ptr_pointerIPNS_13__empty_stateIwEENS_10shared_ptrIS2_E27__shared_ptr_default_deleteIS2_S2_EENS_9allocatorIS2_EEED0Ev, symObjAddr: 0x90CC, symBinAddr: 0x26B20, symSize: 0x14 }
  - { offset: 0x172371, size: 0x8, addend: 0x0, symName: __ZNSt3__120__shared_ptr_pointerIPNS_13__empty_stateIwEENS_10shared_ptrIS2_E27__shared_ptr_default_deleteIS2_S2_EENS_9allocatorIS2_EEE16__on_zero_sharedEv, symObjAddr: 0x90E0, symBinAddr: 0x26B34, symSize: 0x18 }
  - { offset: 0x1723C0, size: 0x8, addend: 0x0, symName: __ZNKSt3__120__shared_ptr_pointerIPNS_13__empty_stateIwEENS_10shared_ptrIS2_E27__shared_ptr_default_deleteIS2_S2_EENS_9allocatorIS2_EEE13__get_deleterERKSt9type_info, symObjAddr: 0x90F8, symBinAddr: 0x26B4C, symSize: 0x3C }
  - { offset: 0x17240B, size: 0x8, addend: 0x0, symName: __ZNKSt9type_infoeqB8ne180100ERKS_, symObjAddr: 0x9138, symBinAddr: 0x26B8C, symSize: 0x4C }
  - { offset: 0x172501, size: 0x8, addend: 0x0, symName: __ZNSt3__120__shared_ptr_pointerIPNS_13__empty_stateIwEENS_10shared_ptrIS2_E27__shared_ptr_default_deleteIS2_S2_EENS_9allocatorIS2_EEE21__on_zero_shared_weakEv, symObjAddr: 0x9134, symBinAddr: 0x26B88, symSize: 0x4 }
  - { offset: 0x172533, size: 0x8, addend: 0x0, symName: __ZNSt3__120__shared_ptr_pointerIPNS_13__empty_stateIwEENS_10shared_ptrIS2_E27__shared_ptr_default_deleteIS2_S2_EENS_9allocatorIS2_EEE21__on_zero_shared_weakEv, symObjAddr: 0x9134, symBinAddr: 0x26B88, symSize: 0x4 }
  - { offset: 0x172554, size: 0x8, addend: 0x0, symName: __ZNSt3__120__shared_ptr_pointerIPNS_13__empty_stateIwEENS_10shared_ptrIS2_E27__shared_ptr_default_deleteIS2_S2_EENS_9allocatorIS2_EEE21__on_zero_shared_weakEv, symObjAddr: 0x9134, symBinAddr: 0x26B88, symSize: 0x4 }
  - { offset: 0x17257F, size: 0x8, addend: 0x0, symName: __ZNSt3__120__shared_ptr_pointerIPNS_13__empty_stateIwEENS_10shared_ptrIS2_E27__shared_ptr_default_deleteIS2_S2_EENS_9allocatorIS2_EEE21__on_zero_shared_weakEv, symObjAddr: 0x9134, symBinAddr: 0x26B88, symSize: 0x4 }
  - { offset: 0x1725A5, size: 0x8, addend: 0x0, symName: __ZNSt3__120__shared_ptr_pointerIPNS_13__empty_stateIwEENS_10shared_ptrIS2_E27__shared_ptr_default_deleteIS2_S2_EENS_9allocatorIS2_EEE21__on_zero_shared_weakEv, symObjAddr: 0x9134, symBinAddr: 0x26B88, symSize: 0x4 }
  - { offset: 0x17264D, size: 0x8, addend: 0x0, symName: __ZNSt3__113__empty_stateIwED1Ev, symObjAddr: 0x9184, symBinAddr: 0x26BD8, symSize: 0x44 }
  - { offset: 0x1726D1, size: 0x8, addend: 0x0, symName: __ZNSt3__113__empty_stateIwED0Ev, symObjAddr: 0x91C8, symBinAddr: 0x26C1C, symSize: 0x44 }
  - { offset: 0x17276F, size: 0x8, addend: 0x0, symName: __ZNKSt3__113__empty_stateIwE6__execERNS_7__stateIwEE, symObjAddr: 0x920C, symBinAddr: 0x26C60, symSize: 0x14 }
  - { offset: 0x1727C1, size: 0x8, addend: 0x0, symName: __ZNSt3__116__owns_one_stateIwED1Ev, symObjAddr: 0x9220, symBinAddr: 0x26C74, symSize: 0x44 }
  - { offset: 0x172827, size: 0x8, addend: 0x0, symName: __ZNSt3__116__owns_one_stateIwED0Ev, symObjAddr: 0x9264, symBinAddr: 0x26CB8, symSize: 0x44 }
  - { offset: 0x172899, size: 0x8, addend: 0x0, symName: __ZNSt3__111basic_regexIwNS_12regex_traitsIwEEE12__parse_termINS_11__wrap_iterIPKwEEEET_S9_S9_, symObjAddr: 0x93A0, symBinAddr: 0x26DF4, symSize: 0x94 }
  - { offset: 0x172AAB, size: 0x8, addend: 0x0, symName: __ZNSt3__111basic_regexIwNS_12regex_traitsIwEEE17__parse_assertionINS_11__wrap_iterIPKwEEEET_S9_S9_, symObjAddr: 0x9434, symBinAddr: 0x26E88, symSize: 0x290 }
  - { offset: 0x173016, size: 0x8, addend: 0x0, symName: __ZNSt3__111basic_regexIwNS_12regex_traitsIwEEE12__parse_atomINS_11__wrap_iterIPKwEEEET_S9_S9_, symObjAddr: 0x96C4, symBinAddr: 0x27118, symSize: 0x1D8 }
  - { offset: 0x17330F, size: 0x8, addend: 0x0, symName: __ZNSt3__111basic_regexIwNS_12regex_traitsIwEEE23__parse_ERE_dupl_symbolINS_11__wrap_iterIPKwEEEET_S9_S9_PNS_16__owns_one_stateIwEEjj, symObjAddr: 0x989C, symBinAddr: 0x272F0, symSize: 0x308 }
  - { offset: 0x173323, size: 0x8, addend: 0x0, symName: __ZNSt3__111basic_regexIwNS_12regex_traitsIwEEE23__parse_ERE_dupl_symbolINS_11__wrap_iterIPKwEEEET_S9_S9_PNS_16__owns_one_stateIwEEjj, symObjAddr: 0x989C, symBinAddr: 0x272F0, symSize: 0x308 }
  - { offset: 0x173705, size: 0x8, addend: 0x0, symName: __ZNSt3__111basic_regexIwNS_12regex_traitsIwEEE20__push_word_boundaryEb, symObjAddr: 0x9BA4, symBinAddr: 0x275F8, symSize: 0x74 }
  - { offset: 0x173719, size: 0x8, addend: 0x0, symName: __ZNSt3__111basic_regexIwNS_12regex_traitsIwEEE16__push_lookaheadERKS3_bj, symObjAddr: 0x9C18, symBinAddr: 0x2766C, symSize: 0x84 }
  - { offset: 0x1737C6, size: 0x8, addend: 0x0, symName: __ZNSt3__111basic_regexIwNS_12regex_traitsIwEEE20__push_word_boundaryEb, symObjAddr: 0x9BA4, symBinAddr: 0x275F8, symSize: 0x74 }
  - { offset: 0x173963, size: 0x8, addend: 0x0, symName: __ZNSt3__111basic_regexIwNS_12regex_traitsIwEEE26__parse_bracket_expressionINS_11__wrap_iterIPKwEEEET_S9_S9_, symObjAddr: 0xB510, symBinAddr: 0x28EC8, symSize: 0x110 }
  - { offset: 0x173AE4, size: 0x8, addend: 0x0, symName: __ZNSt3__111basic_regexIwNS_12regex_traitsIwEEE33__push_begin_marked_subexpressionEv, symObjAddr: 0xB620, symBinAddr: 0x28FD8, symSize: 0x64 }
  - { offset: 0x173AF8, size: 0x8, addend: 0x0, symName: __ZNSt3__111basic_regexIwNS_12regex_traitsIwEEE19__parse_atom_escapeINS_11__wrap_iterIPKwEEEET_S9_S9_, symObjAddr: 0xB470, symBinAddr: 0x28E28, symSize: 0xA0 }
  - { offset: 0x173C43, size: 0x8, addend: 0x0, symName: __ZNSt3__111basic_regexIwNS_12regex_traitsIwEEE26__parse_bracket_expressionINS_11__wrap_iterIPKwEEEET_S9_S9_, symObjAddr: 0xB510, symBinAddr: 0x28EC8, symSize: 0x110 }
  - { offset: 0x173C57, size: 0x8, addend: 0x0, symName: __ZNSt3__111basic_regexIwNS_12regex_traitsIwEEE33__push_begin_marked_subexpressionEv, symObjAddr: 0xB620, symBinAddr: 0x28FD8, symSize: 0x64 }
  - { offset: 0x173D1D, size: 0x8, addend: 0x0, symName: __ZNSt3__111basic_regexIwNS_12regex_traitsIwEEE31__push_end_marked_subexpressionEj, symObjAddr: 0xB684, symBinAddr: 0x2903C, symSize: 0x5C }
  - { offset: 0x173DF4, size: 0x8, addend: 0x0, symName: __ZNSt3__111basic_regexIwNS_12regex_traitsIwEEE25__parse_pattern_characterINS_11__wrap_iterIPKwEEEET_S9_S9_, symObjAddr: 0xB72C, symBinAddr: 0x290E4, symSize: 0x68 }
  - { offset: 0x173EF2, size: 0x8, addend: 0x0, symName: __ZNSt3__111basic_regexIwNS_12regex_traitsIwEEE17__parse_DUP_COUNTINS_11__wrap_iterIPKwEEEET_S9_S9_Ri, symObjAddr: 0x101A8, symBinAddr: 0x2D9E0, symSize: 0xF8 }
  - { offset: 0x17411A, size: 0x8, addend: 0x0, symName: __ZNSt3__119__throw_regex_errorB8ne180100ILNS_15regex_constants10error_typeE8EEEvv, symObjAddr: 0x102A0, symBinAddr: 0x2DAD8, symSize: 0x4C }
  - { offset: 0x17412E, size: 0x8, addend: 0x0, symName: __ZNSt3__111basic_regexIwNS_12regex_traitsIwEEE11__push_loopEmmPNS_16__owns_one_stateIwEEmmb, symObjAddr: 0x10074, symBinAddr: 0x2D8AC, symSize: 0x134 }
  - { offset: 0x174691, size: 0x8, addend: 0x0, symName: __ZNSt3__111__lookaheadIwNS_12regex_traitsIwEEEC2B8ne180100ERKNS_11basic_regexIwS2_EEbPNS_6__nodeIwEEj, symObjAddr: 0xA078, symBinAddr: 0x27ACC, symSize: 0x84 }
  - { offset: 0x17489C, size: 0x8, addend: 0x0, symName: __ZNSt3__120__l_anchor_multilineIwED1Ev, symObjAddr: 0x9CE8, symBinAddr: 0x2773C, symSize: 0x44 }
  - { offset: 0x174920, size: 0x8, addend: 0x0, symName: __ZNSt3__120__l_anchor_multilineIwED0Ev, symObjAddr: 0x9D2C, symBinAddr: 0x27780, symSize: 0x44 }
  - { offset: 0x1749B0, size: 0x8, addend: 0x0, symName: __ZNKSt3__120__l_anchor_multilineIwE6__execERNS_7__stateIwEE, symObjAddr: 0x9D70, symBinAddr: 0x277C4, symSize: 0x60 }
  - { offset: 0x174A15, size: 0x8, addend: 0x0, symName: __ZNSt3__120__r_anchor_multilineIwED1Ev, symObjAddr: 0x9DD0, symBinAddr: 0x27824, symSize: 0x44 }
  - { offset: 0x174A99, size: 0x8, addend: 0x0, symName: __ZNSt3__120__r_anchor_multilineIwED0Ev, symObjAddr: 0x9E14, symBinAddr: 0x27868, symSize: 0x44 }
  - { offset: 0x174B29, size: 0x8, addend: 0x0, symName: __ZNKSt3__120__r_anchor_multilineIwE6__execERNS_7__stateIwEE, symObjAddr: 0x9E58, symBinAddr: 0x278AC, symSize: 0x50 }
  - { offset: 0x174B8E, size: 0x8, addend: 0x0, symName: __ZNSt3__115__word_boundaryIwNS_12regex_traitsIwEEED1Ev, symObjAddr: 0x9EA8, symBinAddr: 0x278FC, symSize: 0x58 }
  - { offset: 0x174C4C, size: 0x8, addend: 0x0, symName: __ZNSt3__115__word_boundaryIwNS_12regex_traitsIwEEED0Ev, symObjAddr: 0x9F00, symBinAddr: 0x27954, symSize: 0x58 }
  - { offset: 0x174D76, size: 0x8, addend: 0x0, symName: __ZNKSt3__115__word_boundaryIwNS_12regex_traitsIwEEE6__execERNS_7__stateIwEE, symObjAddr: 0x9F58, symBinAddr: 0x279AC, symSize: 0x120 }
  - { offset: 0x175053, size: 0x8, addend: 0x0, symName: __ZNSt3__111__lookaheadIwNS_12regex_traitsIwEEED1Ev, symObjAddr: 0xA0FC, symBinAddr: 0x27B50, symSize: 0x68 }
  - { offset: 0x175175, size: 0x8, addend: 0x0, symName: __ZNSt3__111__lookaheadIwNS_12regex_traitsIwEEED0Ev, symObjAddr: 0xA164, symBinAddr: 0x27BB8, symSize: 0x68 }
  - { offset: 0x175560, size: 0x8, addend: 0x0, symName: __ZNKSt3__111__lookaheadIwNS_12regex_traitsIwEEE6__execERNS_7__stateIwEE, symObjAddr: 0xA1CC, symBinAddr: 0x27C20, symSize: 0x188 }
  - { offset: 0x175AF1, size: 0x8, addend: 0x0, symName: __ZNSt3__16vectorINS_9sub_matchIPKwEENS_9allocatorIS4_EEE6assignEmRKS4_, symObjAddr: 0xA7C8, symBinAddr: 0x2821C, symSize: 0x174 }
  - { offset: 0x17605B, size: 0x8, addend: 0x0, symName: __ZNSt3__16vectorINS_9sub_matchIPKwEENS_9allocatorIS4_EEE11__vallocateB8ne180100Em, symObjAddr: 0xA93C, symBinAddr: 0x28390, symSize: 0x50 }
  - { offset: 0x176072, size: 0x8, addend: 0x0, symName: __ZNKSt3__111basic_regexIwNS_12regex_traitsIwEEE21__match_at_start_ecmaINS_9allocatorINS_9sub_matchIPKwEEEEEEbS8_S8_RNS_13match_resultsIS8_T_EENS_15regex_constants15match_flag_typeEb, symObjAddr: 0xA3C4, symBinAddr: 0x27E18, symSize: 0x404 }
  - { offset: 0x176F3A, size: 0x8, addend: 0x0, symName: __ZNSt3__113match_resultsIPKwNS_9allocatorINS_9sub_matchIS2_EEEEE6__initEjS2_S2_b, symObjAddr: 0xA354, symBinAddr: 0x27DA8, symSize: 0x70 }
  - { offset: 0x1775CD, size: 0x8, addend: 0x0, symName: __ZNSt3__16vectorINS_7__stateIwEENS_9allocatorIS2_EEE21__push_back_slow_pathIS2_EEPS2_OT_, symObjAddr: 0xABC4, symBinAddr: 0x2857C, symSize: 0x14C }
  - { offset: 0x177960, size: 0x8, addend: 0x0, symName: __ZNSt3__16vectorINS_9sub_matchIPKwEENS_9allocatorIS4_EEE6resizeEmRKS4_, symObjAddr: 0xAAC0, symBinAddr: 0x28478, symSize: 0x3C }
  - { offset: 0x1779B9, size: 0x8, addend: 0x0, symName: __ZNSt3__16vectorINS_9sub_matchIPKwEENS_9allocatorIS4_EEE6resizeEmRKS4_, symObjAddr: 0xAAC0, symBinAddr: 0x28478, symSize: 0x3C }
  - { offset: 0x177A2A, size: 0x8, addend: 0x0, symName: __ZNSt3__16vectorINS_4pairImPKwEENS_9allocatorIS4_EEE6resizeEm, symObjAddr: 0xAAFC, symBinAddr: 0x284B4, symSize: 0x30 }
  - { offset: 0x177A74, size: 0x8, addend: 0x0, symName: __ZNSt3__16vectorINS_4pairImPKwEENS_9allocatorIS4_EEE6resizeEm, symObjAddr: 0xAAFC, symBinAddr: 0x284B4, symSize: 0x30 }
  - { offset: 0x177AE5, size: 0x8, addend: 0x0, symName: __ZNSt3__19allocatorINS_7__stateIwEEE7destroyB8ne180100EPS2_, symObjAddr: 0xAF40, symBinAddr: 0x288F8, symSize: 0x44 }
  - { offset: 0x177D9D, size: 0x8, addend: 0x0, symName: __ZNSt3__16vectorINS_9sub_matchIPKwEENS_9allocatorIS4_EEE16__init_with_sizeB8ne180100IPS4_S9_EEvT_T0_m, symObjAddr: 0xB2C0, symBinAddr: 0x28C78, symSize: 0x7C }
  - { offset: 0x1780A4, size: 0x8, addend: 0x0, symName: __ZNSt3__16vectorINS_4pairImPKwEENS_9allocatorIS4_EEE16__init_with_sizeB8ne180100IPS4_S9_EEvT_T0_m, symObjAddr: 0xB33C, symBinAddr: 0x28CF4, symSize: 0x70 }
  - { offset: 0x1783B3, size: 0x8, addend: 0x0, symName: __ZNSt3__16vectorINS_7__stateIwEENS_9allocatorIS2_EEE16__destroy_vectorclB8ne180100Ev, symObjAddr: 0xB3EC, symBinAddr: 0x28DA4, symSize: 0x84 }
  - { offset: 0x1784F0, size: 0x8, addend: 0x0, symName: __ZNSt3__17__stateIwED1Ev, symObjAddr: 0xAA80, symBinAddr: 0x28438, symSize: 0x40 }
  - { offset: 0x1789BE, size: 0x8, addend: 0x0, symName: __ZNSt3__16vectorINS_9sub_matchIPKwEENS_9allocatorIS4_EEE11__vallocateB8ne180100Em, symObjAddr: 0xA93C, symBinAddr: 0x28390, symSize: 0x50 }
  - { offset: 0x178A39, size: 0x8, addend: 0x0, symName: __ZNKSt3__16vectorINS_9sub_matchIPKwEENS_9allocatorIS4_EEE20__throw_length_errorB8ne180100Ev, symObjAddr: 0xA98C, symBinAddr: 0x283E0, symSize: 0x14 }
  - { offset: 0x178A4B, size: 0x8, addend: 0x0, symName: __ZNKSt3__16vectorINS_9sub_matchIPKwEENS_9allocatorIS4_EEE20__throw_length_errorB8ne180100Ev, symObjAddr: 0xA98C, symBinAddr: 0x283E0, symSize: 0x14 }
  - { offset: 0x178A73, size: 0x8, addend: 0x0, symName: __ZNSt3__119__allocate_at_leastB8ne180100INS_9allocatorINS_9sub_matchIPKwEEEEEENS_19__allocation_resultINS_16allocator_traitsIT_E7pointerEEERS9_m, symObjAddr: 0xA9A0, symBinAddr: 0x283F4, symSize: 0x44 }
  - { offset: 0x178B13, size: 0x8, addend: 0x0, symName: __ZNSt3__16vectorINS_9sub_matchIPKwEENS_9allocatorIS4_EEE8__appendEmRKS4_, symObjAddr: 0xAFF8, symBinAddr: 0x289B0, symSize: 0x174 }
  - { offset: 0x179006, size: 0x8, addend: 0x0, symName: __ZNSt3__16vectorINS_4pairImPKwEENS_9allocatorIS4_EEE8__appendEm, symObjAddr: 0xB16C, symBinAddr: 0x28B24, symSize: 0x10C }
  - { offset: 0x179044, size: 0x8, addend: 0x0, symName: __ZNSt3__16vectorINS_4pairImPKwEENS_9allocatorIS4_EEE8__appendEm, symObjAddr: 0xB16C, symBinAddr: 0x28B24, symSize: 0x10C }
  - { offset: 0x1794E1, size: 0x8, addend: 0x0, symName: __ZNKSt3__16vectorINS_4pairImPKwEENS_9allocatorIS4_EEE20__throw_length_errorB8ne180100Ev, symObjAddr: 0xB278, symBinAddr: 0x28C30, symSize: 0x14 }
  - { offset: 0x1796B6, size: 0x8, addend: 0x0, symName: __ZNSt3__114__split_bufferINS_7__stateIwEERNS_9allocatorIS2_EEED2Ev, symObjAddr: 0xAF84, symBinAddr: 0x2893C, symSize: 0x30 }
  - { offset: 0x17978D, size: 0x8, addend: 0x0, symName: __ZNKSt3__16vectorINS_7__stateIwEENS_9allocatorIS2_EEE20__throw_length_errorB8ne180100Ev, symObjAddr: 0xAD84, symBinAddr: 0x2873C, symSize: 0x14 }
  - { offset: 0x1797B5, size: 0x8, addend: 0x0, symName: __ZNSt3__119__allocate_at_leastB8ne180100INS_9allocatorINS_7__stateIwEEEEEENS_19__allocation_resultINS_16allocator_traitsIT_E7pointerEEERS7_m, symObjAddr: 0xAD98, symBinAddr: 0x28750, symSize: 0x44 }
  - { offset: 0x179862, size: 0x8, addend: 0x0, symName: __ZNSt3__128__exception_guard_exceptionsINS_29_AllocatorDestroyRangeReverseINS_9allocatorINS_7__stateIwEEEENS_16reverse_iteratorIPS4_EEEEED2B8ne180100Ev, symObjAddr: 0xAEBC, symBinAddr: 0x28874, symSize: 0x34 }
  - { offset: 0x1798A0, size: 0x8, addend: 0x0, symName: __ZNKSt3__129_AllocatorDestroyRangeReverseINS_9allocatorINS_7__stateIwEEEENS_16reverse_iteratorIPS3_EEEclB8ne180100Ev, symObjAddr: 0xAEF0, symBinAddr: 0x288A8, symSize: 0x50 }
  - { offset: 0x1799C9, size: 0x8, addend: 0x0, symName: __ZNSt3__114__split_bufferINS_7__stateIwEERNS_9allocatorIS2_EEE5clearB8ne180100Ev, symObjAddr: 0xAFB4, symBinAddr: 0x2896C, symSize: 0x44 }
  - { offset: 0x17A129, size: 0x8, addend: 0x0, symName: __ZNKSt3__16vectorINS_4pairImPKwEENS_9allocatorIS4_EEE20__throw_length_errorB8ne180100Ev, symObjAddr: 0xB278, symBinAddr: 0x28C30, symSize: 0x14 }
  - { offset: 0x17A151, size: 0x8, addend: 0x0, symName: __ZNSt3__119__allocate_at_leastB8ne180100INS_9allocatorINS_4pairImPKwEEEEEENS_19__allocation_resultINS_16allocator_traitsIT_E7pointerEEERS9_m, symObjAddr: 0xB28C, symBinAddr: 0x28C44, symSize: 0x34 }
  - { offset: 0x17A42D, size: 0x8, addend: 0x0, symName: __ZNSt3__16vectorINS_4pairImPKwEENS_9allocatorIS4_EEE11__vallocateB8ne180100Em, symObjAddr: 0xB3AC, symBinAddr: 0x28D64, symSize: 0x40 }
  - { offset: 0x17A4A8, size: 0x8, addend: 0x0, symName: __ZNSt3__16vectorINS_7__stateIwEENS_9allocatorIS2_EEE16__destroy_vectorclB8ne180100Ev, symObjAddr: 0xB3EC, symBinAddr: 0x28DA4, symSize: 0x84 }
  - { offset: 0x17A4E2, size: 0x8, addend: 0x0, symName: __ZNSt3__111basic_regexIwNS_12regex_traitsIwEEE22__parse_decimal_escapeINS_11__wrap_iterIPKwEEEET_S9_S9_, symObjAddr: 0xB868, symBinAddr: 0x29220, symSize: 0xB4 }
  - { offset: 0x17A59F, size: 0x8, addend: 0x0, symName: __ZNSt3__111basic_regexIwNS_12regex_traitsIwEEE30__parse_character_class_escapeINS_11__wrap_iterIPKwEEEET_S9_S9_, symObjAddr: 0xB91C, symBinAddr: 0x292D4, symSize: 0xCC }
  - { offset: 0x17A5B3, size: 0x8, addend: 0x0, symName: __ZNSt3__111basic_regexIwNS_12regex_traitsIwEEE30__parse_character_class_escapeINS_11__wrap_iterIPKwEEEET_S9_S9_, symObjAddr: 0xB91C, symBinAddr: 0x292D4, symSize: 0xCC }
  - { offset: 0x17A680, size: 0x8, addend: 0x0, symName: __ZNSt3__111basic_regexIwNS_12regex_traitsIwEEE24__parse_character_escapeINS_11__wrap_iterIPKwEEEET_S9_S9_PNS_12basic_stringIwNS_11char_traitsIwEENS_9allocatorIwEEEE, symObjAddr: 0xB9E8, symBinAddr: 0x293A0, symSize: 0x37C }
  - { offset: 0x17AC7E, size: 0x8, addend: 0x0, symName: __ZNSt3__111basic_regexIwNS_12regex_traitsIwEEE11__push_charEw, symObjAddr: 0xBD64, symBinAddr: 0x2971C, symSize: 0xE4 }
  - { offset: 0x17ACE4, size: 0x8, addend: 0x0, symName: __ZNSt3__111basic_regexIwNS_12regex_traitsIwEEE21__start_matching_listEb, symObjAddr: 0xC72C, symBinAddr: 0x2A0E4, symSize: 0x78 }
  - { offset: 0x17ADA2, size: 0x8, addend: 0x0, symName: __ZNSt3__120__bracket_expressionIwNS_12regex_traitsIwEEE10__add_charB8ne180100Ew, symObjAddr: 0xC7A4, symBinAddr: 0x2A15C, symSize: 0x214 }
  - { offset: 0x17B45A, size: 0x8, addend: 0x0, symName: __ZNSt3__120__bracket_expressionIwNS_12regex_traitsIwEEEC2B8ne180100ERKS2_PNS_6__nodeIwEEbbb, symObjAddr: 0xC9B8, symBinAddr: 0x2A370, symSize: 0x19C }
  - { offset: 0x17B465, size: 0x8, addend: 0x0, symName: __ZNSt3__111basic_regexIwNS_12regex_traitsIwEEE23__parse_expression_termINS_11__wrap_iterIPKwEEEET_S9_S9_PNS_20__bracket_expressionIwS2_EE, symObjAddr: 0xDC6C, symBinAddr: 0x2B5DC, symSize: 0x3B8 }
  - { offset: 0x17C4DF, size: 0x8, addend: 0x0, symName: __ZNSt3__111basic_regexIwNS_12regex_traitsIwEEE11__push_charEw, symObjAddr: 0xBD64, symBinAddr: 0x2971C, symSize: 0xE4 }
  - { offset: 0x17C72F, size: 0x8, addend: 0x0, symName: __ZNSt3__123__match_any_but_newlineIwED1Ev, symObjAddr: 0xB794, symBinAddr: 0x2914C, symSize: 0x44 }
  - { offset: 0x17C7B3, size: 0x8, addend: 0x0, symName: __ZNSt3__123__match_any_but_newlineIwED0Ev, symObjAddr: 0xB7D8, symBinAddr: 0x29190, symSize: 0x44 }
  - { offset: 0x17C843, size: 0x8, addend: 0x0, symName: __ZNSt3__111basic_regexIwNS_12regex_traitsIwEEE15__push_back_refEi, symObjAddr: 0xBE94, symBinAddr: 0x2984C, symSize: 0xCC }
  - { offset: 0x17CC58, size: 0x8, addend: 0x0, symName: __ZNSt3__118__match_char_icaseIwNS_12regex_traitsIwEEEC2B8ne180100ERKS2_wPNS_6__nodeIwEE, symObjAddr: 0xBF60, symBinAddr: 0x29918, symSize: 0xA4 }
  - { offset: 0x17D003, size: 0x8, addend: 0x0, symName: __ZNSt3__118__match_char_icaseIwNS_12regex_traitsIwEEED1Ev, symObjAddr: 0xC004, symBinAddr: 0x299BC, symSize: 0x58 }
  - { offset: 0x17D0C1, size: 0x8, addend: 0x0, symName: __ZNSt3__118__match_char_icaseIwNS_12regex_traitsIwEEED0Ev, symObjAddr: 0xC05C, symBinAddr: 0x29A14, symSize: 0x58 }
  - { offset: 0x17D18B, size: 0x8, addend: 0x0, symName: __ZNKSt3__118__match_char_icaseIwNS_12regex_traitsIwEEE6__execERNS_7__stateIwEE, symObjAddr: 0xC0B4, symBinAddr: 0x29A6C, symSize: 0x78 }
  - { offset: 0x17D253, size: 0x8, addend: 0x0, symName: __ZNSt3__120__match_char_collateIwNS_12regex_traitsIwEEED1Ev, symObjAddr: 0xC12C, symBinAddr: 0x29AE4, symSize: 0x58 }
  - { offset: 0x17D311, size: 0x8, addend: 0x0, symName: __ZNSt3__120__match_char_collateIwNS_12regex_traitsIwEEED0Ev, symObjAddr: 0xC184, symBinAddr: 0x29B3C, symSize: 0x58 }
  - { offset: 0x17D3DB, size: 0x8, addend: 0x0, symName: __ZNKSt3__120__match_char_collateIwNS_12regex_traitsIwEEE6__execERNS_7__stateIwEE, symObjAddr: 0xC1DC, symBinAddr: 0x29B94, symSize: 0x48 }
  - { offset: 0x17D449, size: 0x8, addend: 0x0, symName: __ZNSt3__112__match_charIwED1Ev, symObjAddr: 0xC224, symBinAddr: 0x29BDC, symSize: 0x44 }
  - { offset: 0x17D4CD, size: 0x8, addend: 0x0, symName: __ZNSt3__112__match_charIwED0Ev, symObjAddr: 0xC268, symBinAddr: 0x29C20, symSize: 0x44 }
  - { offset: 0x17D55D, size: 0x8, addend: 0x0, symName: __ZNKSt3__112__match_charIwE6__execERNS_7__stateIwEE, symObjAddr: 0xC2AC, symBinAddr: 0x29C64, symSize: 0x48 }
  - { offset: 0x17D5CB, size: 0x8, addend: 0x0, symName: __ZNSt3__116__back_ref_icaseIwNS_12regex_traitsIwEEED1Ev, symObjAddr: 0xC2F4, symBinAddr: 0x29CAC, symSize: 0x58 }
  - { offset: 0x17D689, size: 0x8, addend: 0x0, symName: __ZNSt3__116__back_ref_icaseIwNS_12regex_traitsIwEEED0Ev, symObjAddr: 0xC34C, symBinAddr: 0x29D04, symSize: 0x58 }
  - { offset: 0x17D753, size: 0x8, addend: 0x0, symName: __ZNKSt3__116__back_ref_icaseIwNS_12regex_traitsIwEEE6__execERNS_7__stateIwEE, symObjAddr: 0xC3A4, symBinAddr: 0x29D5C, symSize: 0xFC }
  - { offset: 0x17D8DD, size: 0x8, addend: 0x0, symName: __ZNSt3__118__back_ref_collateIwNS_12regex_traitsIwEEED1Ev, symObjAddr: 0xC4A0, symBinAddr: 0x29E58, symSize: 0x58 }
  - { offset: 0x17D99B, size: 0x8, addend: 0x0, symName: __ZNSt3__118__back_ref_collateIwNS_12regex_traitsIwEEED0Ev, symObjAddr: 0xC4F8, symBinAddr: 0x29EB0, symSize: 0x58 }
  - { offset: 0x17DA65, size: 0x8, addend: 0x0, symName: __ZNKSt3__118__back_ref_collateIwNS_12regex_traitsIwEEE6__execERNS_7__stateIwEE, symObjAddr: 0xC550, symBinAddr: 0x29F08, symSize: 0x98 }
  - { offset: 0x17DB3B, size: 0x8, addend: 0x0, symName: __ZNSt3__110__back_refIwED1Ev, symObjAddr: 0xC5E8, symBinAddr: 0x29FA0, symSize: 0x44 }
  - { offset: 0x17DBBF, size: 0x8, addend: 0x0, symName: __ZNSt3__110__back_refIwED0Ev, symObjAddr: 0xC62C, symBinAddr: 0x29FE4, symSize: 0x44 }
  - { offset: 0x17DC54, size: 0x8, addend: 0x0, symName: __ZNKSt3__110__back_refIwE6__execERNS_7__stateIwEE, symObjAddr: 0xC670, symBinAddr: 0x2A028, symSize: 0xBC }
  - { offset: 0x17DDD1, size: 0x8, addend: 0x0, symName: __ZNSt3__111basic_regexIwNS_12regex_traitsIwEEE21__start_matching_listEb, symObjAddr: 0xC72C, symBinAddr: 0x2A0E4, symSize: 0x78 }
  - { offset: 0x17DE31, size: 0x8, addend: 0x0, symName: __ZNSt3__120__bracket_expressionIwNS_12regex_traitsIwEEEC2B8ne180100ERKS2_PNS_6__nodeIwEEbbb, symObjAddr: 0xC9B8, symBinAddr: 0x2A370, symSize: 0x19C }
  - { offset: 0x17EA01, size: 0x8, addend: 0x0, symName: __ZNKSt3__16vectorIwNS_9allocatorIwEEE20__throw_length_errorB8ne180100Ev, symObjAddr: 0xDC0C, symBinAddr: 0x2B57C, symSize: 0x14 }
  - { offset: 0x17EA29, size: 0x8, addend: 0x0, symName: __ZNSt3__119__throw_regex_errorB8ne180100ILNS_15regex_constants10error_typeE5EEEvv, symObjAddr: 0xDC20, symBinAddr: 0x2B590, symSize: 0x4C }
  - { offset: 0x17ED90, size: 0x8, addend: 0x0, symName: __ZNSt3__16vectorINS_12basic_stringIwNS_11char_traitsIwEENS_9allocatorIwEEEENS4_IS6_EEE16__destroy_vectorclB8ne180100Ev, symObjAddr: 0xD4C0, symBinAddr: 0x2AE78, symSize: 0x40 }
  - { offset: 0x17EE59, size: 0x8, addend: 0x0, symName: __ZNSt3__16vectorINS_4pairINS_12basic_stringIwNS_11char_traitsIwEENS_9allocatorIwEEEES7_EENS5_IS8_EEE16__destroy_vectorclB8ne180100Ev, symObjAddr: 0xD54C, symBinAddr: 0x2AF04, symSize: 0x84 }
  - { offset: 0x17EFB2, size: 0x8, addend: 0x0, symName: __ZNSt3__120__bracket_expressionIwNS_12regex_traitsIwEEED1Ev, symObjAddr: 0xCB54, symBinAddr: 0x2A50C, symSize: 0xB4 }
  - { offset: 0x17F523, size: 0x8, addend: 0x0, symName: __ZNSt3__120__bracket_expressionIwNS_12regex_traitsIwEEED0Ev, symObjAddr: 0xCC08, symBinAddr: 0x2A5C0, symSize: 0xB8 }
  - { offset: 0x17FE41, size: 0x8, addend: 0x0, symName: __ZNKSt3__120__bracket_expressionIwNS_12regex_traitsIwEEE6__execERNS_7__stateIwEE, symObjAddr: 0xCCC0, symBinAddr: 0x2A678, symSize: 0x800 }
  - { offset: 0x1817D8, size: 0x8, addend: 0x0, symName: __ZNKSt3__112regex_traitsIwE20__lookup_collatenameIPwEENS_12basic_stringIwNS_11char_traitsIwEENS_9allocatorIwEEEET_SA_w, symObjAddr: 0xD6F4, symBinAddr: 0x2B0AC, symSize: 0x270 }
  - { offset: 0x18282B, size: 0x8, addend: 0x0, symName: __ZNKSt3__112regex_traitsIwE9transformIPwEENS_12basic_stringIwNS_11char_traitsIwEENS_9allocatorIwEEEET_SA_, symObjAddr: 0xD654, symBinAddr: 0x2B00C, symSize: 0xA0 }
  - { offset: 0x182C87, size: 0x8, addend: 0x0, symName: __ZNKSt3__112regex_traitsIwE19__transform_primaryIPwEENS_12basic_stringIwNS_11char_traitsIwEENS_9allocatorIwEEEET_SA_w, symObjAddr: 0xDB14, symBinAddr: 0x2B484, symSize: 0xF8 }
  - { offset: 0x183291, size: 0x8, addend: 0x0, symName: __ZNSt3__16vectorINS_12basic_stringIwNS_11char_traitsIwEENS_9allocatorIwEEEENS4_IS6_EEE7__clearB8ne180100Ev, symObjAddr: 0xD500, symBinAddr: 0x2AEB8, symSize: 0x4C }
  - { offset: 0x18355F, size: 0x8, addend: 0x0, symName: __ZNSt3__19allocatorINS_4pairINS_12basic_stringIwNS_11char_traitsIwEENS0_IwEEEES6_EEE7destroyB8ne180100EPS7_, symObjAddr: 0xD5D0, symBinAddr: 0x2AF88, symSize: 0x44 }
  - { offset: 0x183817, size: 0x8, addend: 0x0, symName: __ZNSt3__14pairINS_12basic_stringIwNS_11char_traitsIwEENS_9allocatorIwEEEES6_ED1Ev, symObjAddr: 0xD614, symBinAddr: 0x2AFCC, symSize: 0x40 }
  - { offset: 0x183BB0, size: 0x8, addend: 0x0, symName: __ZNSt3__112basic_stringIwNS_11char_traitsIwEENS_9allocatorIwEEE16__init_with_sizeB8ne180100IPwS7_EEvT_T0_m, symObjAddr: 0xD964, symBinAddr: 0x2B31C, symSize: 0x9C }
  - { offset: 0x184000, size: 0x8, addend: 0x0, symName: __ZNSt3__112basic_stringIwNS_11char_traitsIwEENS_9allocatorIwEEE16__assign_trivialB8ne180100INS_11__wrap_iterIPcEES9_EEvT_T0_m, symObjAddr: 0xDA48, symBinAddr: 0x2B3B8, symSize: 0xCC }
  - { offset: 0x1844BC, size: 0x8, addend: 0x0, symName: __ZNSt3__111basic_regexIwNS_12regex_traitsIwEEE25__parse_equivalence_classINS_11__wrap_iterIPKwEEEET_S9_S9_PNS_20__bracket_expressionIwS2_EE, symObjAddr: 0xE024, symBinAddr: 0x2B994, symSize: 0x1DC }
  - { offset: 0x184EDF, size: 0x8, addend: 0x0, symName: __ZNSt3__111basic_regexIwNS_12regex_traitsIwEEE18__parse_awk_escapeINS_11__wrap_iterIPKwEEEET_S9_S9_PNS_12basic_stringIwNS_11char_traitsIwEENS_9allocatorIwEEEE, symObjAddr: 0xE4BC, symBinAddr: 0x2BE2C, symSize: 0x1D4 }
  - { offset: 0x184FDE, size: 0x8, addend: 0x0, symName: __ZNSt3__120__bracket_expressionIwNS_12regex_traitsIwEEE11__add_rangeB8ne180100ENS_12basic_stringIwNS_11char_traitsIwEENS_9allocatorIwEEEES9_, symObjAddr: 0xE690, symBinAddr: 0x2C000, symSize: 0x3C4 }
  - { offset: 0x184FF2, size: 0x8, addend: 0x0, symName: __ZNSt3__111basic_regexIwNS_12regex_traitsIwEEE24__parse_collating_symbolINS_11__wrap_iterIPKwEEEET_S9_S9_RNS_12basic_stringIwNS_11char_traitsIwEENS_9allocatorIwEEEE, symObjAddr: 0xE2B4, symBinAddr: 0x2BC24, symSize: 0xE8 }
  - { offset: 0x185427, size: 0x8, addend: 0x0, symName: __ZNSt3__111basic_regexIwNS_12regex_traitsIwEEE20__parse_class_escapeINS_11__wrap_iterIPKwEEEET_S9_S9_RNS_12basic_stringIwNS_11char_traitsIwEENS_9allocatorIwEEEEPNS_20__bracket_expressionIwS2_EE, symObjAddr: 0xE39C, symBinAddr: 0x2BD0C, symSize: 0x120 }
  - { offset: 0x18543B, size: 0x8, addend: 0x0, symName: __ZNSt3__111basic_regexIwNS_12regex_traitsIwEEE23__parse_character_classINS_11__wrap_iterIPKwEEEET_S9_S9_PNS_20__bracket_expressionIwS2_EE, symObjAddr: 0xE200, symBinAddr: 0x2BB70, symSize: 0xB4 }
  - { offset: 0x18575E, size: 0x8, addend: 0x0, symName: __ZNSt3__111basic_regexIwNS_12regex_traitsIwEEE24__parse_collating_symbolINS_11__wrap_iterIPKwEEEET_S9_S9_RNS_12basic_stringIwNS_11char_traitsIwEENS_9allocatorIwEEEE, symObjAddr: 0xE2B4, symBinAddr: 0x2BC24, symSize: 0xE8 }
  - { offset: 0x18577E, size: 0x8, addend: 0x0, symName: __ZNSt3__120__bracket_expressionIwNS_12regex_traitsIwEEE13__add_digraphB8ne180100Eww, symObjAddr: 0xEA54, symBinAddr: 0x2C3C4, symSize: 0x234 }
  - { offset: 0x186066, size: 0x8, addend: 0x0, symName: __ZNSt3__119__throw_regex_errorB8ne180100ILNS_15regex_constants10error_typeE1EEEvv, symObjAddr: 0xEC88, symBinAddr: 0x2C5F8, symSize: 0x4C }
  - { offset: 0x186078, size: 0x8, addend: 0x0, symName: __ZNSt3__111basic_regexIwNS_12regex_traitsIwEEE20__parse_class_escapeINS_11__wrap_iterIPKwEEEET_S9_S9_RNS_12basic_stringIwNS_11char_traitsIwEENS_9allocatorIwEEEEPNS_20__bracket_expressionIwS2_EE, symObjAddr: 0xE39C, symBinAddr: 0x2BD0C, symSize: 0x120 }
  - { offset: 0x186238, size: 0x8, addend: 0x0, symName: __ZNSt3__111basic_regexIwNS_12regex_traitsIwEEE18__parse_awk_escapeINS_11__wrap_iterIPKwEEEET_S9_S9_PNS_12basic_stringIwNS_11char_traitsIwEENS_9allocatorIwEEEE, symObjAddr: 0xE4BC, symBinAddr: 0x2BE2C, symSize: 0x1D4 }
  - { offset: 0x18624C, size: 0x8, addend: 0x0, symName: __ZNSt3__120__bracket_expressionIwNS_12regex_traitsIwEEE11__add_rangeB8ne180100ENS_12basic_stringIwNS_11char_traitsIwEENS_9allocatorIwEEEES9_, symObjAddr: 0xE690, symBinAddr: 0x2C000, symSize: 0x3C4 }
  - { offset: 0x18773C, size: 0x8, addend: 0x0, symName: __ZNKSt3__112regex_traitsIwE20__lookup_collatenameINS_11__wrap_iterIPKwEEEENS_12basic_stringIwNS_11char_traitsIwEENS_9allocatorIwEEEET_SD_w, symObjAddr: 0xED14, symBinAddr: 0x2C684, symSize: 0x270 }
  - { offset: 0x1887A3, size: 0x8, addend: 0x0, symName: __ZNKSt3__112regex_traitsIwE19__transform_primaryINS_11__wrap_iterIPwEEEENS_12basic_stringIwNS_11char_traitsIwEENS_9allocatorIwEEEET_SC_w, symObjAddr: 0xF020, symBinAddr: 0x2C8F4, symSize: 0xF8 }
  - { offset: 0x188D66, size: 0x8, addend: 0x0, symName: __ZNSt3__120__bracket_expressionIwNS_12regex_traitsIwEEE17__add_equivalenceB8ne180100ERKNS_12basic_stringIwNS_11char_traitsIwEENS_9allocatorIwEEEE, symObjAddr: 0xECD4, symBinAddr: 0x2C644, symSize: 0x40 }
  - { offset: 0x188E21, size: 0x8, addend: 0x0, symName: __ZNKSt3__112regex_traitsIwE18__lookup_classnameINS_11__wrap_iterIPKwEEEEjT_S7_bw, symObjAddr: 0xF674, symBinAddr: 0x2CEAC, symSize: 0x160 }
  - { offset: 0x189714, size: 0x8, addend: 0x0, symName: __ZNSt3__120__bracket_expressionIwNS_12regex_traitsIwEEE14__add_neg_charB8ne180100Ew, symObjAddr: 0xF7D4, symBinAddr: 0x2D00C, symSize: 0x214 }
  - { offset: 0x189DCC, size: 0x8, addend: 0x0, symName: __ZNSt3__16vectorINS_4pairINS_12basic_stringIwNS_11char_traitsIwEENS_9allocatorIwEEEES7_EENS5_IS8_EEE9push_backB8ne180100EOS8_, symObjAddr: 0xF9E8, symBinAddr: 0x2D220, symSize: 0x168 }
  - { offset: 0x189EA4, size: 0x8, addend: 0x0, symName: __ZNKSt3__112regex_traitsIwE9transformINS_11__wrap_iterIPwEEEENS_12basic_stringIwNS_11char_traitsIwEENS_9allocatorIwEEEET_SC_, symObjAddr: 0xFB50, symBinAddr: 0x2D388, symSize: 0xA0 }
  - { offset: 0x18A2F8, size: 0x8, addend: 0x0, symName: __ZNSt3__16vectorINS_4pairINS_12basic_stringIwNS_11char_traitsIwEENS_9allocatorIwEEEES7_EENS5_IS8_EEE9push_backB8ne180100EOS8_, symObjAddr: 0xF9E8, symBinAddr: 0x2D220, symSize: 0x168 }
  - { offset: 0x18AAC0, size: 0x8, addend: 0x0, symName: __ZNKSt3__16vectorINS_4pairIwwEENS_9allocatorIS2_EEE20__throw_length_errorB8ne180100Ev, symObjAddr: 0xFEB4, symBinAddr: 0x2D6EC, symSize: 0x14 }
  - { offset: 0x18AAE8, size: 0x8, addend: 0x0, symName: __ZNSt3__119__allocate_at_leastB8ne180100INS_9allocatorINS_4pairIwwEEEEEENS_19__allocation_resultINS_16allocator_traitsIT_E7pointerEEERS7_m, symObjAddr: 0xFEC8, symBinAddr: 0x2D700, symSize: 0x34 }
  - { offset: 0x18AB22, size: 0x8, addend: 0x0, symName: __ZNSt3__16vectorINS_12basic_stringIwNS_11char_traitsIwEENS_9allocatorIwEEEENS4_IS6_EEE22__construct_one_at_endB8ne180100IJRKS6_EEEvDpOT_, symObjAddr: 0xF1B4, symBinAddr: 0x2C9EC, symSize: 0x5C }
  - { offset: 0x18AD0A, size: 0x8, addend: 0x0, symName: __ZNSt3__16vectorINS_12basic_stringIwNS_11char_traitsIwEENS_9allocatorIwEEEENS4_IS6_EEE21__push_back_slow_pathIRKS6_EEPS6_OT_, symObjAddr: 0xF210, symBinAddr: 0x2CA48, symSize: 0x120 }
  - { offset: 0x18B208, size: 0x8, addend: 0x0, symName: __ZNKSt3__112regex_traitsIwE19__transform_primaryINS_11__wrap_iterIPwEEEENS_12basic_stringIwNS_11char_traitsIwEENS_9allocatorIwEEEET_SC_w, symObjAddr: 0xF020, symBinAddr: 0x2C8F4, symSize: 0xF8 }
  - { offset: 0x18B3F2, size: 0x8, addend: 0x0, symName: __ZNSt3__16vectorINS_12basic_stringIwNS_11char_traitsIwEENS_9allocatorIwEEEENS4_IS6_EEE22__construct_one_at_endB8ne180100IJRKS6_EEEvDpOT_, symObjAddr: 0xF1B4, symBinAddr: 0x2C9EC, symSize: 0x5C }
  - { offset: 0x18B5A4, size: 0x8, addend: 0x0, symName: __ZNSt3__112basic_stringIwNS_11char_traitsIwEENS_9allocatorIwEEE25__init_copy_ctor_externalEPKwm, symObjAddr: 0xF330, symBinAddr: 0x2CB68, symSize: 0x90 }
  - { offset: 0x18B8B5, size: 0x8, addend: 0x0, symName: __ZNSt3__16vectorINS_12basic_stringIwNS_11char_traitsIwEENS_9allocatorIwEEEENS4_IS6_EEE26__swap_out_circular_bufferERNS_14__split_bufferIS6_RS7_EE, symObjAddr: 0xF3C0, symBinAddr: 0x2CBF8, symSize: 0x74 }
  - { offset: 0x18BA71, size: 0x8, addend: 0x0, symName: __ZNSt3__114__split_bufferINS_12basic_stringIwNS_11char_traitsIwEENS_9allocatorIwEEEERNS4_IS6_EEED2Ev, symObjAddr: 0xF5A0, symBinAddr: 0x2CDD8, symSize: 0x34 }
  - { offset: 0x18BB65, size: 0x8, addend: 0x0, symName: __ZNKSt3__16vectorINS_12basic_stringIwNS_11char_traitsIwEENS_9allocatorIwEEEENS4_IS6_EEE20__throw_length_errorB8ne180100Ev, symObjAddr: 0xF434, symBinAddr: 0x2CC6C, symSize: 0x14 }
  - { offset: 0x18BB8D, size: 0x8, addend: 0x0, symName: __ZNSt3__119__allocate_at_leastB8ne180100INS_9allocatorINS_12basic_stringIwNS_11char_traitsIwEENS1_IwEEEEEEEENS_19__allocation_resultINS_16allocator_traitsIT_E7pointerEEERSA_m, symObjAddr: 0xF448, symBinAddr: 0x2CC80, symSize: 0x44 }
  - { offset: 0x18BD72, size: 0x8, addend: 0x0, symName: __ZNSt3__128__exception_guard_exceptionsINS_29_AllocatorDestroyRangeReverseINS_9allocatorINS_12basic_stringIwNS_11char_traitsIwEENS2_IwEEEEEENS_16reverse_iteratorIPS7_EEEEED2B8ne180100Ev, symObjAddr: 0xF528, symBinAddr: 0x2CD60, symSize: 0x34 }
  - { offset: 0x18BDB0, size: 0x8, addend: 0x0, symName: __ZNKSt3__129_AllocatorDestroyRangeReverseINS_9allocatorINS_12basic_stringIwNS_11char_traitsIwEENS1_IwEEEEEENS_16reverse_iteratorIPS6_EEEclB8ne180100Ev, symObjAddr: 0xF55C, symBinAddr: 0x2CD94, symSize: 0x44 }
  - { offset: 0x18BFAD, size: 0x8, addend: 0x0, symName: __ZNSt3__114__split_bufferINS_12basic_stringIwNS_11char_traitsIwEENS_9allocatorIwEEEERNS4_IS6_EEE17__destruct_at_endB8ne180100EPS6_, symObjAddr: 0xF5D4, symBinAddr: 0x2CE0C, symSize: 0x54 }
  - { offset: 0x18C4B2, size: 0x8, addend: 0x0, symName: __ZNSt3__114__split_bufferINS_4pairINS_12basic_stringIwNS_11char_traitsIwEENS_9allocatorIwEEEES7_EERNS5_IS8_EEED2Ev, symObjAddr: 0xFE40, symBinAddr: 0x2D678, symSize: 0x30 }
  - { offset: 0x18C589, size: 0x8, addend: 0x0, symName: __ZNKSt3__16vectorINS_4pairINS_12basic_stringIwNS_11char_traitsIwEENS_9allocatorIwEEEES7_EENS5_IS8_EEE20__throw_length_errorB8ne180100Ev, symObjAddr: 0xFCB0, symBinAddr: 0x2D4E8, symSize: 0x14 }
  - { offset: 0x18C5B1, size: 0x8, addend: 0x0, symName: __ZNSt3__119__allocate_at_leastB8ne180100INS_9allocatorINS_4pairINS_12basic_stringIwNS_11char_traitsIwEENS1_IwEEEES7_EEEEEENS_19__allocation_resultINS_16allocator_traitsIT_E7pointerEEERSC_m, symObjAddr: 0xFCC4, symBinAddr: 0x2D4FC, symSize: 0x44 }
  - { offset: 0x18C671, size: 0x8, addend: 0x0, symName: __ZNSt3__128__exception_guard_exceptionsINS_29_AllocatorDestroyRangeReverseINS_9allocatorINS_4pairINS_12basic_stringIwNS_11char_traitsIwEENS2_IwEEEES8_EEEENS_16reverse_iteratorIPS9_EEEEED2B8ne180100Ev, symObjAddr: 0xFDBC, symBinAddr: 0x2D5F4, symSize: 0x34 }
  - { offset: 0x18C6AF, size: 0x8, addend: 0x0, symName: __ZNKSt3__129_AllocatorDestroyRangeReverseINS_9allocatorINS_4pairINS_12basic_stringIwNS_11char_traitsIwEENS1_IwEEEES7_EEEENS_16reverse_iteratorIPS8_EEEclB8ne180100Ev, symObjAddr: 0xFDF0, symBinAddr: 0x2D628, symSize: 0x50 }
  - { offset: 0x18C787, size: 0x8, addend: 0x0, symName: __ZNSt3__114__split_bufferINS_4pairINS_12basic_stringIwNS_11char_traitsIwEENS_9allocatorIwEEEES7_EERNS5_IS8_EEE5clearB8ne180100Ev, symObjAddr: 0xFE70, symBinAddr: 0x2D6A8, symSize: 0x44 }
  - { offset: 0x18C940, size: 0x8, addend: 0x0, symName: __ZNSt3__128__begin_marked_subexpressionIwED1Ev, symObjAddr: 0xFEFC, symBinAddr: 0x2D734, symSize: 0x44 }
  - { offset: 0x18C9C4, size: 0x8, addend: 0x0, symName: __ZNSt3__128__begin_marked_subexpressionIwED0Ev, symObjAddr: 0xFF40, symBinAddr: 0x2D778, symSize: 0x44 }
  - { offset: 0x18CA54, size: 0x8, addend: 0x0, symName: __ZNKSt3__128__begin_marked_subexpressionIwE6__execERNS_7__stateIwEE, symObjAddr: 0xFF84, symBinAddr: 0x2D7BC, symSize: 0x30 }
  - { offset: 0x18CAE1, size: 0x8, addend: 0x0, symName: __ZNSt3__126__end_marked_subexpressionIwED1Ev, symObjAddr: 0xFFB4, symBinAddr: 0x2D7EC, symSize: 0x44 }
  - { offset: 0x18CB65, size: 0x8, addend: 0x0, symName: __ZNSt3__126__end_marked_subexpressionIwED0Ev, symObjAddr: 0xFFF8, symBinAddr: 0x2D830, symSize: 0x44 }
  - { offset: 0x18CBF5, size: 0x8, addend: 0x0, symName: __ZNKSt3__126__end_marked_subexpressionIwE6__execERNS_7__stateIwEE, symObjAddr: 0x1003C, symBinAddr: 0x2D874, symSize: 0x38 }
  - { offset: 0x18CF0D, size: 0x8, addend: 0x0, symName: __ZNSt3__16__loopIwED0Ev, symObjAddr: 0x103A0, symBinAddr: 0x2DBD8, symSize: 0x68 }
  - { offset: 0x18CFFD, size: 0x8, addend: 0x0, symName: __ZNSt3__16__loopIwED1Ev, symObjAddr: 0x10338, symBinAddr: 0x2DB70, symSize: 0x68 }
  - { offset: 0x18D0E6, size: 0x8, addend: 0x0, symName: __ZNKSt3__16__loopIwE6__execERNS_7__stateIwEE, symObjAddr: 0x10408, symBinAddr: 0x2DC40, symSize: 0xB4 }
  - { offset: 0x18D1AE, size: 0x8, addend: 0x0, symName: __ZNKSt3__16__loopIwE13__init_repeatB8ne180100ERNS_7__stateIwEE, symObjAddr: 0x105BC, symBinAddr: 0x2DDF4, symSize: 0x54 }
  - { offset: 0x18D216, size: 0x8, addend: 0x0, symName: __ZNKSt3__16__loopIwE12__exec_splitEbRNS_7__stateIwEE, symObjAddr: 0x104BC, symBinAddr: 0x2DCF4, symSize: 0x30 }
  - { offset: 0x18D2A4, size: 0x8, addend: 0x0, symName: __ZNSt3__117__owns_two_statesIwED1Ev, symObjAddr: 0x104EC, symBinAddr: 0x2DD24, symSize: 0x68 }
  - { offset: 0x18D333, size: 0x8, addend: 0x0, symName: __ZNSt3__117__owns_two_statesIwED0Ev, symObjAddr: 0x10554, symBinAddr: 0x2DD8C, symSize: 0x68 }
  - { offset: 0x18D3CE, size: 0x8, addend: 0x0, symName: __ZNSt3__117__repeat_one_loopIwED1Ev, symObjAddr: 0x10610, symBinAddr: 0x2DE48, symSize: 0x4 }
  - { offset: 0x18D3F9, size: 0x8, addend: 0x0, symName: __ZNSt3__117__repeat_one_loopIwED0Ev, symObjAddr: 0x10614, symBinAddr: 0x2DE4C, symSize: 0x4 }
  - { offset: 0x18D424, size: 0x8, addend: 0x0, symName: __ZNKSt3__117__repeat_one_loopIwE6__execERNS_7__stateIwEE, symObjAddr: 0x10618, symBinAddr: 0x2DE50, symSize: 0x14 }
  - { offset: 0x18D492, size: 0x8, addend: 0x0, symName: __ZNSt3__111__alternateIwED1Ev, symObjAddr: 0x1062C, symBinAddr: 0x2DE64, symSize: 0x68 }
  - { offset: 0x18D53F, size: 0x8, addend: 0x0, symName: __ZNSt3__111__alternateIwED0Ev, symObjAddr: 0x10694, symBinAddr: 0x2DECC, symSize: 0x68 }
  - { offset: 0x18D5F8, size: 0x8, addend: 0x0, symName: __ZNKSt3__111__alternateIwE6__execERNS_7__stateIwEE, symObjAddr: 0x106FC, symBinAddr: 0x2DF34, symSize: 0xC }
  - { offset: 0x18D62D, size: 0x8, addend: 0x0, symName: __ZNKSt3__111__alternateIwE12__exec_splitEbRNS_7__stateIwEE, symObjAddr: 0x10708, symBinAddr: 0x2DF40, symSize: 0x24 }
  - { offset: 0x18D676, size: 0x8, addend: 0x0, symName: __ZNSt3__121__empty_non_own_stateIwED1Ev, symObjAddr: 0x1072C, symBinAddr: 0x2DF64, symSize: 0x4 }
  - { offset: 0x18D6A1, size: 0x8, addend: 0x0, symName: __ZNSt3__121__empty_non_own_stateIwED0Ev, symObjAddr: 0x10730, symBinAddr: 0x2DF68, symSize: 0x4 }
  - { offset: 0x18D6CC, size: 0x8, addend: 0x0, symName: __ZNKSt3__121__empty_non_own_stateIwE6__execERNS_7__stateIwEE, symObjAddr: 0x10734, symBinAddr: 0x2DF6C, symSize: 0x14 }
  - { offset: 0x18D71E, size: 0x8, addend: 0x0, symName: __ZNSt3__111basic_regexIwNS_12regex_traitsIwEEE21__parse_RE_expressionINS_11__wrap_iterIPKwEEEET_S9_S9_, symObjAddr: 0x10748, symBinAddr: 0x2DF80, symSize: 0x48 }
  - { offset: 0x18D784, size: 0x8, addend: 0x0, symName: __ZNSt3__111basic_regexIwNS_12regex_traitsIwEEE18__parse_nondupl_REINS_11__wrap_iterIPKwEEEET_S9_S9_, symObjAddr: 0x10864, symBinAddr: 0x2E09C, symSize: 0x110 }
  - { offset: 0x18DA28, size: 0x8, addend: 0x0, symName: __ZNSt3__111basic_regexIwNS_12regex_traitsIwEEE22__parse_RE_dupl_symbolINS_11__wrap_iterIPKwEEEET_S9_S9_PNS_16__owns_one_stateIwEEjj, symObjAddr: 0x10974, symBinAddr: 0x2E1AC, symSize: 0x1A0 }
  - { offset: 0x18DA3C, size: 0x8, addend: 0x0, symName: __ZNSt3__111basic_regexIwNS_12regex_traitsIwEEE22__parse_RE_dupl_symbolINS_11__wrap_iterIPKwEEEET_S9_S9_PNS_16__owns_one_stateIwEEjj, symObjAddr: 0x10974, symBinAddr: 0x2E1AC, symSize: 0x1A0 }
  - { offset: 0x18DD86, size: 0x8, addend: 0x0, symName: __ZNSt3__111basic_regexIwNS_12regex_traitsIwEEE32__parse_one_char_or_coll_elem_REINS_11__wrap_iterIPKwEEEET_S9_S9_, symObjAddr: 0x10B14, symBinAddr: 0x2E34C, symSize: 0x104 }
  - { offset: 0x18DE6C, size: 0x8, addend: 0x0, symName: __ZNSt3__111basic_regexIwNS_12regex_traitsIwEEE32__parse_one_char_or_coll_elem_REINS_11__wrap_iterIPKwEEEET_S9_S9_, symObjAddr: 0x10B14, symBinAddr: 0x2E34C, symSize: 0x104 }
  - { offset: 0x18E010, size: 0x8, addend: 0x0, symName: __ZNSt3__111basic_regexIwNS_12regex_traitsIwEEE15__test_back_refEw, symObjAddr: 0x10D50, symBinAddr: 0x2E588, symSize: 0x88 }
  - { offset: 0x18E170, size: 0x8, addend: 0x0, symName: __ZNSt3__111basic_regexIwNS_12regex_traitsIwEEE18__parse_ERE_branchINS_11__wrap_iterIPKwEEEET_S9_S9_, symObjAddr: 0x10DD8, symBinAddr: 0x2E610, symSize: 0x5C }
  - { offset: 0x18E2C7, size: 0x8, addend: 0x0, symName: __ZNSt3__111basic_regexIwNS_12regex_traitsIwEEE19__parse_QUOTED_CHARINS_11__wrap_iterIPKwEEEET_S9_S9_, symObjAddr: 0x10C18, symBinAddr: 0x2E450, symSize: 0x70 }
  - { offset: 0x18E3F0, size: 0x8, addend: 0x0, symName: __ZNSt3__111__match_anyIwED1Ev, symObjAddr: 0x10C88, symBinAddr: 0x2E4C0, symSize: 0x44 }
  - { offset: 0x18E474, size: 0x8, addend: 0x0, symName: __ZNSt3__111__match_anyIwED0Ev, symObjAddr: 0x10CCC, symBinAddr: 0x2E504, symSize: 0x44 }
  - { offset: 0x18E504, size: 0x8, addend: 0x0, symName: __ZNKSt3__111__match_anyIwE6__execERNS_7__stateIwEE, symObjAddr: 0x10D10, symBinAddr: 0x2E548, symSize: 0x40 }
  - { offset: 0x18E556, size: 0x8, addend: 0x0, symName: __ZNSt3__111basic_regexIwNS_12regex_traitsIwEEE22__parse_ERE_expressionINS_11__wrap_iterIPKwEEEET_S9_S9_, symObjAddr: 0x10E34, symBinAddr: 0x2E66C, symSize: 0x190 }
  - { offset: 0x18E7B9, size: 0x8, addend: 0x0, symName: __ZNSt3__111basic_regexIwNS_12regex_traitsIwEEE33__parse_one_char_or_coll_elem_EREINS_11__wrap_iterIPKwEEEET_S9_S9_, symObjAddr: 0x10FC4, symBinAddr: 0x2E7FC, symSize: 0xB8 }
  - { offset: 0x18E7CD, size: 0x8, addend: 0x0, symName: __ZNSt3__111basic_regexIwNS_12regex_traitsIwEEE33__parse_one_char_or_coll_elem_EREINS_11__wrap_iterIPKwEEEET_S9_S9_, symObjAddr: 0x10FC4, symBinAddr: 0x2E7FC, symSize: 0xB8 }
  - { offset: 0x18E945, size: 0x8, addend: 0x0, symName: __ZNSt3__111basic_regexIwNS_12regex_traitsIwEEE20__parse_ORD_CHAR_EREINS_11__wrap_iterIPKwEEEET_S9_S9_, symObjAddr: 0x1107C, symBinAddr: 0x2E8B4, symSize: 0x84 }
  - { offset: 0x18E9B9, size: 0x8, addend: 0x0, symName: __ZNSt3__111basic_regexIwNS_12regex_traitsIwEEE23__parse_QUOTED_CHAR_EREINS_11__wrap_iterIPKwEEEET_S9_S9_, symObjAddr: 0x11100, symBinAddr: 0x2E938, symSize: 0xC0 }
  - { offset: 0x18F037, size: 0x8, addend: 0x0, symName: __ZNSt3__112basic_stringIwNS_11char_traitsIwEENS_9allocatorIwEEEC1B8ne180100IN12_GLOBAL__N_112UTF8IteratorELi0EEET_S9_, symObjAddr: 0x116E4, symBinAddr: 0x2EF1C, symSize: 0x128 }
  - { offset: 0x18F2D4, size: 0x8, addend: 0x0, symName: __ZNKSt3__111basic_regexIwNS_12regex_traitsIwEEE8__searchINS_9allocatorINS_9sub_matchIPKwEEEEEEbS8_S8_RNS_13match_resultsIS8_T_EENS_15regex_constants15match_flag_typeE, symObjAddr: 0x1180C, symBinAddr: 0x2F044, symSize: 0x1D8 }
  - { offset: 0x18F2F5, size: 0x8, addend: 0x0, symName: __ZNKSt3__111basic_regexIwNS_12regex_traitsIwEEE8__searchINS_9allocatorINS_9sub_matchIPKwEEEEEEbS8_S8_RNS_13match_resultsIS8_T_EENS_15regex_constants15match_flag_typeE, symObjAddr: 0x1180C, symBinAddr: 0x2F044, symSize: 0x1D8 }
  - { offset: 0x18F7CD, size: 0x8, addend: 0x0, symName: __ZNKSt3__111basic_regexIwNS_12regex_traitsIwEEE16__match_at_startINS_9allocatorINS_9sub_matchIPKwEEEEEEbS8_S8_RNS_13match_resultsIS8_T_EENS_15regex_constants15match_flag_typeEb, symObjAddr: 0x11A58, symBinAddr: 0x2F290, symSize: 0x20 }
  - { offset: 0x18F8A7, size: 0x8, addend: 0x0, symName: __ZNKSt3__111basic_regexIwNS_12regex_traitsIwEEE27__match_at_start_posix_subsINS_9allocatorINS_9sub_matchIPKwEEEEEEbS8_S8_RNS_13match_resultsIS8_T_EENS_15regex_constants15match_flag_typeEb, symObjAddr: 0x11FC4, symBinAddr: 0x2F7FC, symSize: 0x568 }
  - { offset: 0x190DCD, size: 0x8, addend: 0x0, symName: __ZNKSt3__111basic_regexIwNS_12regex_traitsIwEEE29__match_at_start_posix_nosubsINS_9allocatorINS_9sub_matchIPKwEEEEEEbS8_S8_RNS_13match_resultsIS8_T_EENS_15regex_constants15match_flag_typeEb, symObjAddr: 0x11A78, symBinAddr: 0x2F2B0, symSize: 0x54C }
  - { offset: 0x191EFE, size: 0x8, addend: 0x0, symName: __ZNSt3__15dequeINS_7__stateIwEENS_9allocatorIS2_EEE9push_backEOS2_, symObjAddr: 0x1252C, symBinAddr: 0x2FD64, symSize: 0x100 }
  - { offset: 0x19211E, size: 0x8, addend: 0x0, symName: __ZNSt3__15dequeINS_7__stateIwEENS_9allocatorIS2_EEE10push_frontEOS2_, symObjAddr: 0x126AC, symBinAddr: 0x2FEE4, symSize: 0xF0 }
  - { offset: 0x192333, size: 0x8, addend: 0x0, symName: __ZNSt3__15dequeINS_7__stateIwEENS_9allocatorIS2_EEE8pop_backEv, symObjAddr: 0x1262C, symBinAddr: 0x2FE64, symSize: 0x80 }
  - { offset: 0x19241B, size: 0x8, addend: 0x0, symName: __ZNSt3__15dequeINS_7__stateIwEENS_9allocatorIS2_EEED2B8ne180100Ev, symObjAddr: 0x133E8, symBinAddr: 0x30C20, symSize: 0x144 }
  - { offset: 0x1928C2, size: 0x8, addend: 0x0, symName: __ZNSt3__16vectorINS_9sub_matchIPKwEENS_9allocatorIS4_EEE18__assign_with_sizeB8ne180100IPS4_S9_EEvT_T0_l, symObjAddr: 0x13578, symBinAddr: 0x30DB0, symSize: 0x1B4 }
  - { offset: 0x1930ED, size: 0x8, addend: 0x0, symName: __ZNSt3__16vectorINS_4pairImPKwEENS_9allocatorIS4_EEE18__assign_with_sizeB8ne180100IPS4_S9_EEvT_T0_l, symObjAddr: 0x1372C, symBinAddr: 0x30F64, symSize: 0x14C }
  - { offset: 0x193111, size: 0x8, addend: 0x0, symName: __ZNSt3__16vectorINS_4pairImPKwEENS_9allocatorIS4_EEE18__assign_with_sizeB8ne180100IPS4_S9_EEvT_T0_l, symObjAddr: 0x1372C, symBinAddr: 0x30F64, symSize: 0x14C }
  - { offset: 0x1938E7, size: 0x8, addend: 0x0, symName: __ZNKSt3__16vectorINS_9sub_matchIN12_GLOBAL__N_112UTF8IteratorEEENS_9allocatorIS4_EEE20__throw_length_errorB8ne180100Ev, symObjAddr: 0x13878, symBinAddr: 0x310B0, symSize: 0x14 }
  - { offset: 0x193933, size: 0x8, addend: 0x0, symName: __ZNSt3__15dequeINS_7__stateIwEENS_9allocatorIS2_EEE19__add_back_capacityEv, symObjAddr: 0x1279C, symBinAddr: 0x2FFD4, symSize: 0x314 }
  - { offset: 0x194697, size: 0x8, addend: 0x0, symName: __ZNSt3__15dequeINS_7__stateIwEENS_9allocatorIS2_EEE25__maybe_remove_back_spareB8ne180100Eb, symObjAddr: 0x12F40, symBinAddr: 0x30778, symSize: 0x74 }
  - { offset: 0x194896, size: 0x8, addend: 0x0, symName: __ZNSt3__15dequeINS_7__stateIwEENS_9allocatorIS2_EEE20__add_front_capacityEv, symObjAddr: 0x12FB4, symBinAddr: 0x307EC, symSize: 0x318 }
  - { offset: 0x195C0C, size: 0x8, addend: 0x0, symName: __ZNSt3__114__split_bufferIPNS_7__stateIwEENS_9allocatorIS3_EEE9push_backEOS3_, symObjAddr: 0x12AB0, symBinAddr: 0x302E8, symSize: 0x114 }
  - { offset: 0x19607B, size: 0x8, addend: 0x0, symName: __ZNSt3__114__split_bufferIPNS_7__stateIwEERNS_9allocatorIS3_EEE9push_backEOS3_, symObjAddr: 0x12CE0, symBinAddr: 0x30518, symSize: 0x114 }
  - { offset: 0x196531, size: 0x8, addend: 0x0, symName: __ZNSt3__114__split_bufferIPNS_7__stateIwEERNS_9allocatorIS3_EEE10push_frontERKS3_, symObjAddr: 0x12DF4, symBinAddr: 0x3062C, symSize: 0x118 }
  - { offset: 0x1969DC, size: 0x8, addend: 0x0, symName: __ZNSt3__114__split_bufferIPNS_7__stateIwEENS_9allocatorIS3_EEE10push_frontEOS3_, symObjAddr: 0x12BC4, symBinAddr: 0x303FC, symSize: 0x11C }
  - { offset: 0x196FC5, size: 0x8, addend: 0x0, symName: __ZNSt3__114__split_bufferIPNS_7__stateIwEENS_9allocatorIS3_EEE10push_frontERKS3_, symObjAddr: 0x132CC, symBinAddr: 0x30B04, symSize: 0x11C }
  - { offset: 0x197458, size: 0x8, addend: 0x0, symName: __ZNSt3__114__split_bufferIPNS_7__stateIwEENS_9allocatorIS3_EEED2Ev, symObjAddr: 0x1352C, symBinAddr: 0x30D64, symSize: 0x4C }
  - { offset: 0x1977C4, size: 0x8, addend: 0x0, symName: __ZNSt3__111basic_regexIcNS_12regex_traitsIcEEEC2B8ne180100IPKcEET_S7_NS_15regex_constants18syntax_option_typeE, symObjAddr: 0x13A70, symBinAddr: 0x312A8, symSize: 0x84 }
  - { offset: 0x197924, size: 0x8, addend: 0x0, symName: __ZNSt3__110shared_ptrINS_13__empty_stateIcEEEaSB8ne180100EOS3_, symObjAddr: 0x139C4, symBinAddr: 0x311FC, symSize: 0x5C }
  - { offset: 0x197B3A, size: 0x8, addend: 0x0, symName: __ZNSt3__111basic_regexIcNS_12regex_traitsIcEEE7__parseIPKcEET_S7_S7_, symObjAddr: 0x13AF4, symBinAddr: 0x3132C, symSize: 0x150 }
  - { offset: 0x197F9E, size: 0x8, addend: 0x0, symName: __ZNSt3__110shared_ptrINS_13__empty_stateIcEEE5resetB8ne180100IS2_vEEvPT_, symObjAddr: 0x13C44, symBinAddr: 0x3147C, symSize: 0x68 }
  - { offset: 0x198108, size: 0x8, addend: 0x0, symName: __ZNSt3__111basic_regexIcNS_12regex_traitsIcEEE13__parse_egrepIPKcEET_S7_S7_, symObjAddr: 0x140D0, symBinAddr: 0x31908, symSize: 0x130 }
  - { offset: 0x1984C9, size: 0x8, addend: 0x0, symName: __ZNSt3__111basic_regexIcNS_12regex_traitsIcEEE24__parse_extended_reg_expIPKcEET_S7_S7_, symObjAddr: 0x13F00, symBinAddr: 0x31738, symSize: 0xA0 }
  - { offset: 0x1985B9, size: 0x8, addend: 0x0, symName: __ZNSt3__111basic_regexIcNS_12regex_traitsIcEEE12__parse_grepIPKcEET_S7_S7_, symObjAddr: 0x13FA0, symBinAddr: 0x317D8, symSize: 0x130 }
  - { offset: 0x1985CD, size: 0x8, addend: 0x0, symName: __ZNSt3__111basic_regexIcNS_12regex_traitsIcEEE16__parse_ecma_expIPKcEET_S7_S7_, symObjAddr: 0x13CAC, symBinAddr: 0x314E4, symSize: 0x128 }
  - { offset: 0x19889E, size: 0x8, addend: 0x0, symName: __ZNSt3__111basic_regexIcNS_12regex_traitsIcEEE21__parse_basic_reg_expIPKcEET_S7_S7_, symObjAddr: 0x13DD4, symBinAddr: 0x3160C, symSize: 0x12C }
  - { offset: 0x198B7F, size: 0x8, addend: 0x0, symName: __ZNSt3__111basic_regexIcNS_12regex_traitsIcEEE24__parse_extended_reg_expIPKcEET_S7_S7_, symObjAddr: 0x13F00, symBinAddr: 0x31738, symSize: 0xA0 }
  - { offset: 0x198B93, size: 0x8, addend: 0x0, symName: __ZNSt3__111basic_regexIcNS_12regex_traitsIcEEE12__parse_grepIPKcEET_S7_S7_, symObjAddr: 0x13FA0, symBinAddr: 0x317D8, symSize: 0x130 }
  - { offset: 0x198F83, size: 0x8, addend: 0x0, symName: __ZNSt3__110shared_ptrINS_13__empty_stateIcEEEC2B8ne180100IS2_vEEPT_, symObjAddr: 0x1421C, symBinAddr: 0x31A54, symSize: 0x68 }
  - { offset: 0x19912C, size: 0x8, addend: 0x0, symName: __ZNSt3__111basic_regexIcNS_12regex_traitsIcEEE12__parse_termIPKcEET_S7_S7_, symObjAddr: 0x144C8, symBinAddr: 0x31D00, symSize: 0x94 }
  - { offset: 0x199211, size: 0x8, addend: 0x0, symName: __ZNSt3__111basic_regexIcNS_12regex_traitsIcEEE18__push_alternationEPNS_16__owns_one_stateIcEES6_, symObjAddr: 0x14418, symBinAddr: 0x31C50, symSize: 0xB0 }
  - { offset: 0x199564, size: 0x8, addend: 0x0, symName: __ZNSt3__111basic_regexIcNS_12regex_traitsIcEEE17__parse_simple_REIPKcEET_S7_S7_, symObjAddr: 0x1B0AC, symBinAddr: 0x386E8, symSize: 0x88 }
  - { offset: 0x19961A, size: 0x8, addend: 0x0, symName: __ZNSt3__111basic_regexIcNS_12regex_traitsIcEEE18__parse_ERE_branchIPKcEET_S7_S7_, symObjAddr: 0x1B684, symBinAddr: 0x38CC0, symSize: 0x5C }
  - { offset: 0x1996BA, size: 0x8, addend: 0x0, symName: __ZNSt3__111basic_regexIcNS_12regex_traitsIcEEE22__parse_ERE_expressionIPKcEET_S7_S7_, symObjAddr: 0x1B6E0, symBinAddr: 0x38D1C, symSize: 0x190 }
  - { offset: 0x1996CE, size: 0x8, addend: 0x0, symName: __ZNSt3__111__end_stateIcED1Ev, symObjAddr: 0x14200, symBinAddr: 0x31A38, symSize: 0x4 }
  - { offset: 0x1996F9, size: 0x8, addend: 0x0, symName: __ZNSt3__111__end_stateIcED0Ev, symObjAddr: 0x14204, symBinAddr: 0x31A3C, symSize: 0x4 }
  - { offset: 0x199724, size: 0x8, addend: 0x0, symName: __ZNKSt3__111__end_stateIcE6__execERNS_7__stateIcEE, symObjAddr: 0x14208, symBinAddr: 0x31A40, symSize: 0xC }
  - { offset: 0x199759, size: 0x8, addend: 0x0, symName: __ZNKSt3__16__nodeIcE12__exec_splitEbRNS_7__stateIcEE, symObjAddr: 0x14214, symBinAddr: 0x31A4C, symSize: 0x4 }
  - { offset: 0x199798, size: 0x8, addend: 0x0, symName: __ZNKSt3__16__nodeIcE6__execERNS_7__stateIcEE, symObjAddr: 0x14218, symBinAddr: 0x31A50, symSize: 0x4 }
  - { offset: 0x199A26, size: 0x8, addend: 0x0, symName: __ZNSt3__120__shared_ptr_pointerIPNS_13__empty_stateIcEENS_10shared_ptrIS2_E27__shared_ptr_default_deleteIS2_S2_EENS_9allocatorIS2_EEED1Ev, symObjAddr: 0x14284, symBinAddr: 0x31ABC, symSize: 0x4 }
  - { offset: 0x199A48, size: 0x8, addend: 0x0, symName: __ZNSt3__120__shared_ptr_pointerIPNS_13__empty_stateIcEENS_10shared_ptrIS2_E27__shared_ptr_default_deleteIS2_S2_EENS_9allocatorIS2_EEED1Ev, symObjAddr: 0x14284, symBinAddr: 0x31ABC, symSize: 0x4 }
  - { offset: 0x199A7D, size: 0x8, addend: 0x0, symName: __ZNSt3__120__shared_ptr_pointerIPNS_13__empty_stateIcEENS_10shared_ptrIS2_E27__shared_ptr_default_deleteIS2_S2_EENS_9allocatorIS2_EEED0Ev, symObjAddr: 0x14288, symBinAddr: 0x31AC0, symSize: 0x14 }
  - { offset: 0x199ADF, size: 0x8, addend: 0x0, symName: __ZNSt3__120__shared_ptr_pointerIPNS_13__empty_stateIcEENS_10shared_ptrIS2_E27__shared_ptr_default_deleteIS2_S2_EENS_9allocatorIS2_EEE16__on_zero_sharedEv, symObjAddr: 0x1429C, symBinAddr: 0x31AD4, symSize: 0x18 }
  - { offset: 0x199B2E, size: 0x8, addend: 0x0, symName: __ZNKSt3__120__shared_ptr_pointerIPNS_13__empty_stateIcEENS_10shared_ptrIS2_E27__shared_ptr_default_deleteIS2_S2_EENS_9allocatorIS2_EEE13__get_deleterERKSt9type_info, symObjAddr: 0x142B4, symBinAddr: 0x31AEC, symSize: 0x3C }
  - { offset: 0x199BCB, size: 0x8, addend: 0x0, symName: __ZNSt3__120__shared_ptr_pointerIPNS_13__empty_stateIcEENS_10shared_ptrIS2_E27__shared_ptr_default_deleteIS2_S2_EENS_9allocatorIS2_EEE21__on_zero_shared_weakEv, symObjAddr: 0x142F0, symBinAddr: 0x31B28, symSize: 0x4 }
  - { offset: 0x199BFD, size: 0x8, addend: 0x0, symName: __ZNSt3__120__shared_ptr_pointerIPNS_13__empty_stateIcEENS_10shared_ptrIS2_E27__shared_ptr_default_deleteIS2_S2_EENS_9allocatorIS2_EEE21__on_zero_shared_weakEv, symObjAddr: 0x142F0, symBinAddr: 0x31B28, symSize: 0x4 }
  - { offset: 0x199C1E, size: 0x8, addend: 0x0, symName: __ZNSt3__120__shared_ptr_pointerIPNS_13__empty_stateIcEENS_10shared_ptrIS2_E27__shared_ptr_default_deleteIS2_S2_EENS_9allocatorIS2_EEE21__on_zero_shared_weakEv, symObjAddr: 0x142F0, symBinAddr: 0x31B28, symSize: 0x4 }
  - { offset: 0x199C49, size: 0x8, addend: 0x0, symName: __ZNSt3__120__shared_ptr_pointerIPNS_13__empty_stateIcEENS_10shared_ptrIS2_E27__shared_ptr_default_deleteIS2_S2_EENS_9allocatorIS2_EEE21__on_zero_shared_weakEv, symObjAddr: 0x142F0, symBinAddr: 0x31B28, symSize: 0x4 }
  - { offset: 0x199C6F, size: 0x8, addend: 0x0, symName: __ZNSt3__120__shared_ptr_pointerIPNS_13__empty_stateIcEENS_10shared_ptrIS2_E27__shared_ptr_default_deleteIS2_S2_EENS_9allocatorIS2_EEE21__on_zero_shared_weakEv, symObjAddr: 0x142F0, symBinAddr: 0x31B28, symSize: 0x4 }
  - { offset: 0x199CCF, size: 0x8, addend: 0x0, symName: __ZNSt3__113__empty_stateIcED1Ev, symObjAddr: 0x142F4, symBinAddr: 0x31B2C, symSize: 0x44 }
  - { offset: 0x199D53, size: 0x8, addend: 0x0, symName: __ZNSt3__113__empty_stateIcED0Ev, symObjAddr: 0x14338, symBinAddr: 0x31B70, symSize: 0x44 }
  - { offset: 0x199DF1, size: 0x8, addend: 0x0, symName: __ZNKSt3__113__empty_stateIcE6__execERNS_7__stateIcEE, symObjAddr: 0x1437C, symBinAddr: 0x31BB4, symSize: 0x14 }
  - { offset: 0x199E43, size: 0x8, addend: 0x0, symName: __ZNSt3__116__owns_one_stateIcED1Ev, symObjAddr: 0x14390, symBinAddr: 0x31BC8, symSize: 0x44 }
  - { offset: 0x199EA9, size: 0x8, addend: 0x0, symName: __ZNSt3__116__owns_one_stateIcED0Ev, symObjAddr: 0x143D4, symBinAddr: 0x31C0C, symSize: 0x44 }
  - { offset: 0x19A048, size: 0x8, addend: 0x0, symName: __ZNSt3__111basic_regexIcNS_12regex_traitsIcEEE17__parse_assertionIPKcEET_S7_S7_, symObjAddr: 0x1455C, symBinAddr: 0x31D94, symSize: 0x288 }
  - { offset: 0x19A4FD, size: 0x8, addend: 0x0, symName: __ZNSt3__111basic_regexIcNS_12regex_traitsIcEEE12__parse_atomIPKcEET_S7_S7_, symObjAddr: 0x147E4, symBinAddr: 0x3201C, symSize: 0x1F8 }
  - { offset: 0x19A736, size: 0x8, addend: 0x0, symName: __ZNSt3__111basic_regexIcNS_12regex_traitsIcEEE23__parse_ERE_dupl_symbolIPKcEET_S7_S7_PNS_16__owns_one_stateIcEEjj, symObjAddr: 0x149DC, symBinAddr: 0x32214, symSize: 0x300 }
  - { offset: 0x19A74A, size: 0x8, addend: 0x0, symName: __ZNSt3__111basic_regexIcNS_12regex_traitsIcEEE23__parse_ERE_dupl_symbolIPKcEET_S7_S7_PNS_16__owns_one_stateIcEEjj, symObjAddr: 0x149DC, symBinAddr: 0x32214, symSize: 0x300 }
  - { offset: 0x19AA24, size: 0x8, addend: 0x0, symName: __ZNSt3__111basic_regexIcNS_12regex_traitsIcEEE20__push_word_boundaryEb, symObjAddr: 0x14CDC, symBinAddr: 0x32514, symSize: 0x74 }
  - { offset: 0x19AA38, size: 0x8, addend: 0x0, symName: __ZNSt3__111basic_regexIcNS_12regex_traitsIcEEE16__push_lookaheadERKS3_bj, symObjAddr: 0x14D50, symBinAddr: 0x32588, symSize: 0x84 }
  - { offset: 0x19AAE5, size: 0x8, addend: 0x0, symName: __ZNSt3__111basic_regexIcNS_12regex_traitsIcEEE20__push_word_boundaryEb, symObjAddr: 0x14CDC, symBinAddr: 0x32514, symSize: 0x74 }
  - { offset: 0x19AC82, size: 0x8, addend: 0x0, symName: __ZNSt3__111basic_regexIcNS_12regex_traitsIcEEE26__parse_bracket_expressionIPKcEET_S7_S7_, symObjAddr: 0x164B8, symBinAddr: 0x33CF0, symSize: 0x110 }
  - { offset: 0x19ADA9, size: 0x8, addend: 0x0, symName: __ZNSt3__111basic_regexIcNS_12regex_traitsIcEEE33__push_begin_marked_subexpressionEv, symObjAddr: 0x165C8, symBinAddr: 0x33E00, symSize: 0x64 }
  - { offset: 0x19ADBD, size: 0x8, addend: 0x0, symName: __ZNSt3__111basic_regexIcNS_12regex_traitsIcEEE19__parse_atom_escapeIPKcEET_S7_S7_, symObjAddr: 0x16418, symBinAddr: 0x33C50, symSize: 0xA0 }
  - { offset: 0x19AEF5, size: 0x8, addend: 0x0, symName: __ZNSt3__111basic_regexIcNS_12regex_traitsIcEEE26__parse_bracket_expressionIPKcEET_S7_S7_, symObjAddr: 0x164B8, symBinAddr: 0x33CF0, symSize: 0x110 }
  - { offset: 0x19AF09, size: 0x8, addend: 0x0, symName: __ZNSt3__111basic_regexIcNS_12regex_traitsIcEEE33__push_begin_marked_subexpressionEv, symObjAddr: 0x165C8, symBinAddr: 0x33E00, symSize: 0x64 }
  - { offset: 0x19AFCF, size: 0x8, addend: 0x0, symName: __ZNSt3__111basic_regexIcNS_12regex_traitsIcEEE31__push_end_marked_subexpressionEj, symObjAddr: 0x1662C, symBinAddr: 0x33E64, symSize: 0x5C }
  - { offset: 0x19B0A6, size: 0x8, addend: 0x0, symName: __ZNSt3__111basic_regexIcNS_12regex_traitsIcEEE25__parse_pattern_characterIPKcEET_S7_S7_, symObjAddr: 0x16688, symBinAddr: 0x33EC0, symSize: 0x70 }
  - { offset: 0x19B18E, size: 0x8, addend: 0x0, symName: __ZNSt3__111basic_regexIcNS_12regex_traitsIcEEE17__parse_DUP_COUNTIPKcEET_S7_S7_Ri, symObjAddr: 0x1AC00, symBinAddr: 0x3823C, symSize: 0x9C }
  - { offset: 0x19B2CD, size: 0x8, addend: 0x0, symName: __ZNSt3__16__loopIcED1Ev, symObjAddr: 0x1AC9C, symBinAddr: 0x382D8, symSize: 0x68 }
  - { offset: 0x19B2E1, size: 0x8, addend: 0x0, symName: __ZNSt3__111basic_regexIcNS_12regex_traitsIcEEE11__push_loopEmmPNS_16__owns_one_stateIcEEmmb, symObjAddr: 0x1AACC, symBinAddr: 0x38108, symSize: 0x134 }
  - { offset: 0x19B844, size: 0x8, addend: 0x0, symName: __ZNSt3__111__lookaheadIcNS_12regex_traitsIcEEEC2B8ne180100ERKNS_11basic_regexIcS2_EEbPNS_6__nodeIcEEj, symObjAddr: 0x15158, symBinAddr: 0x32990, symSize: 0x84 }
  - { offset: 0x19BA4F, size: 0x8, addend: 0x0, symName: __ZNSt3__120__l_anchor_multilineIcED1Ev, symObjAddr: 0x14DD4, symBinAddr: 0x3260C, symSize: 0x44 }
  - { offset: 0x19BAD3, size: 0x8, addend: 0x0, symName: __ZNSt3__120__l_anchor_multilineIcED0Ev, symObjAddr: 0x14E18, symBinAddr: 0x32650, symSize: 0x44 }
  - { offset: 0x19BB63, size: 0x8, addend: 0x0, symName: __ZNKSt3__120__l_anchor_multilineIcE6__execERNS_7__stateIcEE, symObjAddr: 0x14E5C, symBinAddr: 0x32694, symSize: 0x60 }
  - { offset: 0x19BBC8, size: 0x8, addend: 0x0, symName: __ZNSt3__120__r_anchor_multilineIcED1Ev, symObjAddr: 0x14EBC, symBinAddr: 0x326F4, symSize: 0x44 }
  - { offset: 0x19BC4C, size: 0x8, addend: 0x0, symName: __ZNSt3__120__r_anchor_multilineIcED0Ev, symObjAddr: 0x14F00, symBinAddr: 0x32738, symSize: 0x44 }
  - { offset: 0x19BCDC, size: 0x8, addend: 0x0, symName: __ZNKSt3__120__r_anchor_multilineIcE6__execERNS_7__stateIcEE, symObjAddr: 0x14F44, symBinAddr: 0x3277C, symSize: 0x50 }
  - { offset: 0x19BD41, size: 0x8, addend: 0x0, symName: __ZNSt3__115__word_boundaryIcNS_12regex_traitsIcEEED1Ev, symObjAddr: 0x14F94, symBinAddr: 0x327CC, symSize: 0x58 }
  - { offset: 0x19BDFF, size: 0x8, addend: 0x0, symName: __ZNSt3__115__word_boundaryIcNS_12regex_traitsIcEEED0Ev, symObjAddr: 0x14FEC, symBinAddr: 0x32824, symSize: 0x58 }
  - { offset: 0x19BF29, size: 0x8, addend: 0x0, symName: __ZNKSt3__115__word_boundaryIcNS_12regex_traitsIcEEE6__execERNS_7__stateIcEE, symObjAddr: 0x15044, symBinAddr: 0x3287C, symSize: 0x114 }
  - { offset: 0x19C155, size: 0x8, addend: 0x0, symName: __ZNSt3__111__lookaheadIcNS_12regex_traitsIcEEED1Ev, symObjAddr: 0x151DC, symBinAddr: 0x32A14, symSize: 0x68 }
  - { offset: 0x19C277, size: 0x8, addend: 0x0, symName: __ZNSt3__111__lookaheadIcNS_12regex_traitsIcEEED0Ev, symObjAddr: 0x15244, symBinAddr: 0x32A7C, symSize: 0x68 }
  - { offset: 0x19C662, size: 0x8, addend: 0x0, symName: __ZNKSt3__111__lookaheadIcNS_12regex_traitsIcEEE6__execERNS_7__stateIcEE, symObjAddr: 0x152AC, symBinAddr: 0x32AE4, symSize: 0x188 }
  - { offset: 0x19CBF3, size: 0x8, addend: 0x0, symName: __ZNSt3__16vectorINS_9sub_matchIPKcEENS_9allocatorIS4_EEE6assignEmRKS4_, symObjAddr: 0x158A4, symBinAddr: 0x330DC, symSize: 0x174 }
  - { offset: 0x19D15D, size: 0x8, addend: 0x0, symName: __ZNSt3__16vectorINS_9sub_matchIPKcEENS_9allocatorIS4_EEE11__vallocateB8ne180100Em, symObjAddr: 0x15A18, symBinAddr: 0x33250, symSize: 0x50 }
  - { offset: 0x19D174, size: 0x8, addend: 0x0, symName: __ZNKSt3__111basic_regexIcNS_12regex_traitsIcEEE21__match_at_start_ecmaINS_9allocatorINS_9sub_matchIPKcEEEEEEbS8_S8_RNS_13match_resultsIS8_T_EENS_15regex_constants15match_flag_typeEb, symObjAddr: 0x154A4, symBinAddr: 0x32CDC, symSize: 0x400 }
  - { offset: 0x19E03C, size: 0x8, addend: 0x0, symName: __ZNSt3__113match_resultsIPKcNS_9allocatorINS_9sub_matchIS2_EEEEE6__initEjS2_S2_b, symObjAddr: 0x15434, symBinAddr: 0x32C6C, symSize: 0x70 }
  - { offset: 0x19E6CF, size: 0x8, addend: 0x0, symName: __ZNSt3__16vectorINS_7__stateIcEENS_9allocatorIS2_EEE21__push_back_slow_pathIS2_EEPS2_OT_, symObjAddr: 0x15B6C, symBinAddr: 0x333A4, symSize: 0x14C }
  - { offset: 0x19EA62, size: 0x8, addend: 0x0, symName: __ZNSt3__16vectorINS_9sub_matchIPKcEENS_9allocatorIS4_EEE6resizeEmRKS4_, symObjAddr: 0x15B00, symBinAddr: 0x33338, symSize: 0x3C }
  - { offset: 0x19EABB, size: 0x8, addend: 0x0, symName: __ZNSt3__16vectorINS_9sub_matchIPKcEENS_9allocatorIS4_EEE6resizeEmRKS4_, symObjAddr: 0x15B00, symBinAddr: 0x33338, symSize: 0x3C }
  - { offset: 0x19EB2C, size: 0x8, addend: 0x0, symName: __ZNSt3__16vectorINS_4pairImPKcEENS_9allocatorIS4_EEE6resizeEm, symObjAddr: 0x15B3C, symBinAddr: 0x33374, symSize: 0x30 }
  - { offset: 0x19EB76, size: 0x8, addend: 0x0, symName: __ZNSt3__16vectorINS_4pairImPKcEENS_9allocatorIS4_EEE6resizeEm, symObjAddr: 0x15B3C, symBinAddr: 0x33374, symSize: 0x30 }
  - { offset: 0x19EBE7, size: 0x8, addend: 0x0, symName: __ZNSt3__19allocatorINS_7__stateIcEEE7destroyB8ne180100EPS2_, symObjAddr: 0x15EE8, symBinAddr: 0x33720, symSize: 0x44 }
  - { offset: 0x19EE9F, size: 0x8, addend: 0x0, symName: __ZNSt3__16vectorINS_9sub_matchIPKcEENS_9allocatorIS4_EEE16__init_with_sizeB8ne180100IPS4_S9_EEvT_T0_m, symObjAddr: 0x16268, symBinAddr: 0x33AA0, symSize: 0x7C }
  - { offset: 0x19F1A6, size: 0x8, addend: 0x0, symName: __ZNSt3__16vectorINS_4pairImPKcEENS_9allocatorIS4_EEE16__init_with_sizeB8ne180100IPS4_S9_EEvT_T0_m, symObjAddr: 0x162E4, symBinAddr: 0x33B1C, symSize: 0x70 }
  - { offset: 0x19F4B5, size: 0x8, addend: 0x0, symName: __ZNSt3__16vectorINS_7__stateIcEENS_9allocatorIS2_EEE16__destroy_vectorclB8ne180100Ev, symObjAddr: 0x16394, symBinAddr: 0x33BCC, symSize: 0x84 }
  - { offset: 0x19F5F2, size: 0x8, addend: 0x0, symName: __ZNSt3__17__stateIcED1Ev, symObjAddr: 0x15AC0, symBinAddr: 0x332F8, symSize: 0x40 }
  - { offset: 0x19FAC0, size: 0x8, addend: 0x0, symName: __ZNSt3__16vectorINS_9sub_matchIPKcEENS_9allocatorIS4_EEE11__vallocateB8ne180100Em, symObjAddr: 0x15A18, symBinAddr: 0x33250, symSize: 0x50 }
  - { offset: 0x19FB3B, size: 0x8, addend: 0x0, symName: __ZNKSt3__16vectorINS_9sub_matchIPKcEENS_9allocatorIS4_EEE20__throw_length_errorB8ne180100Ev, symObjAddr: 0x15A68, symBinAddr: 0x332A0, symSize: 0x14 }
  - { offset: 0x19FB4D, size: 0x8, addend: 0x0, symName: __ZNKSt3__16vectorINS_9sub_matchIPKcEENS_9allocatorIS4_EEE20__throw_length_errorB8ne180100Ev, symObjAddr: 0x15A68, symBinAddr: 0x332A0, symSize: 0x14 }
  - { offset: 0x19FB75, size: 0x8, addend: 0x0, symName: __ZNSt3__119__allocate_at_leastB8ne180100INS_9allocatorINS_9sub_matchIPKcEEEEEENS_19__allocation_resultINS_16allocator_traitsIT_E7pointerEEERS9_m, symObjAddr: 0x15A7C, symBinAddr: 0x332B4, symSize: 0x44 }
  - { offset: 0x19FBB3, size: 0x8, addend: 0x0, symName: __ZNSt3__16vectorINS_9sub_matchIPKcEENS_9allocatorIS4_EEE8__appendEmRKS4_, symObjAddr: 0x15FA0, symBinAddr: 0x337D8, symSize: 0x174 }
  - { offset: 0x1A00A6, size: 0x8, addend: 0x0, symName: __ZNSt3__16vectorINS_4pairImPKcEENS_9allocatorIS4_EEE8__appendEm, symObjAddr: 0x16114, symBinAddr: 0x3394C, symSize: 0x10C }
  - { offset: 0x1A00E4, size: 0x8, addend: 0x0, symName: __ZNSt3__16vectorINS_4pairImPKcEENS_9allocatorIS4_EEE8__appendEm, symObjAddr: 0x16114, symBinAddr: 0x3394C, symSize: 0x10C }
  - { offset: 0x1A0581, size: 0x8, addend: 0x0, symName: __ZNKSt3__16vectorINS_4pairImPKcEENS_9allocatorIS4_EEE20__throw_length_errorB8ne180100Ev, symObjAddr: 0x16220, symBinAddr: 0x33A58, symSize: 0x14 }
  - { offset: 0x1A0751, size: 0x8, addend: 0x0, symName: __ZNSt3__114__split_bufferINS_7__stateIcEERNS_9allocatorIS2_EEED2Ev, symObjAddr: 0x15F2C, symBinAddr: 0x33764, symSize: 0x30 }
  - { offset: 0x1A0828, size: 0x8, addend: 0x0, symName: __ZNKSt3__16vectorINS_7__stateIcEENS_9allocatorIS2_EEE20__throw_length_errorB8ne180100Ev, symObjAddr: 0x15D2C, symBinAddr: 0x33564, symSize: 0x14 }
  - { offset: 0x1A0850, size: 0x8, addend: 0x0, symName: __ZNSt3__119__allocate_at_leastB8ne180100INS_9allocatorINS_7__stateIcEEEEEENS_19__allocation_resultINS_16allocator_traitsIT_E7pointerEEERS7_m, symObjAddr: 0x15D40, symBinAddr: 0x33578, symSize: 0x44 }
  - { offset: 0x1A08FD, size: 0x8, addend: 0x0, symName: __ZNSt3__128__exception_guard_exceptionsINS_29_AllocatorDestroyRangeReverseINS_9allocatorINS_7__stateIcEEEENS_16reverse_iteratorIPS4_EEEEED2B8ne180100Ev, symObjAddr: 0x15E64, symBinAddr: 0x3369C, symSize: 0x34 }
  - { offset: 0x1A093B, size: 0x8, addend: 0x0, symName: __ZNKSt3__129_AllocatorDestroyRangeReverseINS_9allocatorINS_7__stateIcEEEENS_16reverse_iteratorIPS3_EEEclB8ne180100Ev, symObjAddr: 0x15E98, symBinAddr: 0x336D0, symSize: 0x50 }
  - { offset: 0x1A0A64, size: 0x8, addend: 0x0, symName: __ZNSt3__114__split_bufferINS_7__stateIcEERNS_9allocatorIS2_EEE5clearB8ne180100Ev, symObjAddr: 0x15F5C, symBinAddr: 0x33794, symSize: 0x44 }
  - { offset: 0x1A11C4, size: 0x8, addend: 0x0, symName: __ZNKSt3__16vectorINS_4pairImPKcEENS_9allocatorIS4_EEE20__throw_length_errorB8ne180100Ev, symObjAddr: 0x16220, symBinAddr: 0x33A58, symSize: 0x14 }
  - { offset: 0x1A11EC, size: 0x8, addend: 0x0, symName: __ZNSt3__119__allocate_at_leastB8ne180100INS_9allocatorINS_4pairImPKcEEEEEENS_19__allocation_resultINS_16allocator_traitsIT_E7pointerEEERS9_m, symObjAddr: 0x16234, symBinAddr: 0x33A6C, symSize: 0x34 }
  - { offset: 0x1A14C8, size: 0x8, addend: 0x0, symName: __ZNSt3__16vectorINS_4pairImPKcEENS_9allocatorIS4_EEE11__vallocateB8ne180100Em, symObjAddr: 0x16354, symBinAddr: 0x33B8C, symSize: 0x40 }
  - { offset: 0x1A1543, size: 0x8, addend: 0x0, symName: __ZNSt3__16vectorINS_7__stateIcEENS_9allocatorIS2_EEE16__destroy_vectorclB8ne180100Ev, symObjAddr: 0x16394, symBinAddr: 0x33BCC, symSize: 0x84 }
  - { offset: 0x1A157D, size: 0x8, addend: 0x0, symName: __ZNSt3__111basic_regexIcNS_12regex_traitsIcEEE22__parse_decimal_escapeIPKcEET_S7_S7_, symObjAddr: 0x16780, symBinAddr: 0x33FB8, symSize: 0xBC }
  - { offset: 0x1A1617, size: 0x8, addend: 0x0, symName: __ZNSt3__111basic_regexIcNS_12regex_traitsIcEEE30__parse_character_class_escapeIPKcEET_S7_S7_, symObjAddr: 0x1683C, symBinAddr: 0x34074, symSize: 0xCC }
  - { offset: 0x1A162B, size: 0x8, addend: 0x0, symName: __ZNSt3__111basic_regexIcNS_12regex_traitsIcEEE30__parse_character_class_escapeIPKcEET_S7_S7_, symObjAddr: 0x1683C, symBinAddr: 0x34074, symSize: 0xCC }
  - { offset: 0x1A16E4, size: 0x8, addend: 0x0, symName: __ZNSt3__111basic_regexIcNS_12regex_traitsIcEEE24__parse_character_escapeIPKcEET_S7_S7_PNS_12basic_stringIcNS_11char_traitsIcEENS_9allocatorIcEEEE, symObjAddr: 0x16908, symBinAddr: 0x34140, symSize: 0x2CC }
  - { offset: 0x1A1A96, size: 0x8, addend: 0x0, symName: __ZNSt3__111basic_regexIcNS_12regex_traitsIcEEE11__push_charEc, symObjAddr: 0x16BD4, symBinAddr: 0x3440C, symSize: 0xE4 }
  - { offset: 0x1A1AFC, size: 0x8, addend: 0x0, symName: __ZNSt3__111basic_regexIcNS_12regex_traitsIcEEE21__start_matching_listEb, symObjAddr: 0x17530, symBinAddr: 0x34D68, symSize: 0x78 }
  - { offset: 0x1A1BBA, size: 0x8, addend: 0x0, symName: __ZNSt3__120__bracket_expressionIcNS_12regex_traitsIcEEE10__add_charB8ne180100Ec, symObjAddr: 0x175A8, symBinAddr: 0x34DE0, symSize: 0x22C }
  - { offset: 0x1A24C1, size: 0x8, addend: 0x0, symName: __ZNSt3__120__bracket_expressionIcNS_12regex_traitsIcEEEC2B8ne180100ERKS2_PNS_6__nodeIcEEbbb, symObjAddr: 0x177D4, symBinAddr: 0x3500C, symSize: 0x19C }
  - { offset: 0x1A24D3, size: 0x8, addend: 0x0, symName: __ZNSt3__111basic_regexIcNS_12regex_traitsIcEEE23__parse_expression_termIPKcEET_S7_S7_PNS_20__bracket_expressionIcS2_EE, symObjAddr: 0x18918, symBinAddr: 0x36128, symSize: 0x3AC }
  - { offset: 0x1A3487, size: 0x8, addend: 0x0, symName: __ZNSt3__111basic_regexIcNS_12regex_traitsIcEEE11__push_charEc, symObjAddr: 0x16BD4, symBinAddr: 0x3440C, symSize: 0xE4 }
  - { offset: 0x1A36D7, size: 0x8, addend: 0x0, symName: __ZNSt3__123__match_any_but_newlineIcED1Ev, symObjAddr: 0x166F8, symBinAddr: 0x33F30, symSize: 0x44 }
  - { offset: 0x1A375B, size: 0x8, addend: 0x0, symName: __ZNSt3__123__match_any_but_newlineIcED0Ev, symObjAddr: 0x1673C, symBinAddr: 0x33F74, symSize: 0x44 }
  - { offset: 0x1A37EB, size: 0x8, addend: 0x0, symName: __ZNSt3__111basic_regexIcNS_12regex_traitsIcEEE15__push_back_refEi, symObjAddr: 0x16CB8, symBinAddr: 0x344F0, symSize: 0xCC }
  - { offset: 0x1A3BD1, size: 0x8, addend: 0x0, symName: __ZNSt3__118__match_char_icaseIcNS_12regex_traitsIcEEEC2B8ne180100ERKS2_cPNS_6__nodeIcEE, symObjAddr: 0x16D84, symBinAddr: 0x345BC, symSize: 0xA4 }
  - { offset: 0x1A3F6E, size: 0x8, addend: 0x0, symName: __ZNSt3__118__match_char_icaseIcNS_12regex_traitsIcEEED1Ev, symObjAddr: 0x16E28, symBinAddr: 0x34660, symSize: 0x58 }
  - { offset: 0x1A402C, size: 0x8, addend: 0x0, symName: __ZNSt3__118__match_char_icaseIcNS_12regex_traitsIcEEED0Ev, symObjAddr: 0x16E80, symBinAddr: 0x346B8, symSize: 0x58 }
  - { offset: 0x1A40F6, size: 0x8, addend: 0x0, symName: __ZNKSt3__118__match_char_icaseIcNS_12regex_traitsIcEEE6__execERNS_7__stateIcEE, symObjAddr: 0x16ED8, symBinAddr: 0x34710, symSize: 0x78 }
  - { offset: 0x1A41B0, size: 0x8, addend: 0x0, symName: __ZNSt3__120__match_char_collateIcNS_12regex_traitsIcEEED1Ev, symObjAddr: 0x16F50, symBinAddr: 0x34788, symSize: 0x58 }
  - { offset: 0x1A426E, size: 0x8, addend: 0x0, symName: __ZNSt3__120__match_char_collateIcNS_12regex_traitsIcEEED0Ev, symObjAddr: 0x16FA8, symBinAddr: 0x347E0, symSize: 0x58 }
  - { offset: 0x1A4338, size: 0x8, addend: 0x0, symName: __ZNKSt3__120__match_char_collateIcNS_12regex_traitsIcEEE6__execERNS_7__stateIcEE, symObjAddr: 0x17000, symBinAddr: 0x34838, symSize: 0x48 }
  - { offset: 0x1A43A6, size: 0x8, addend: 0x0, symName: __ZNSt3__112__match_charIcED1Ev, symObjAddr: 0x17048, symBinAddr: 0x34880, symSize: 0x44 }
  - { offset: 0x1A442A, size: 0x8, addend: 0x0, symName: __ZNSt3__112__match_charIcED0Ev, symObjAddr: 0x1708C, symBinAddr: 0x348C4, symSize: 0x44 }
  - { offset: 0x1A44BA, size: 0x8, addend: 0x0, symName: __ZNKSt3__112__match_charIcE6__execERNS_7__stateIcEE, symObjAddr: 0x170D0, symBinAddr: 0x34908, symSize: 0x48 }
  - { offset: 0x1A4528, size: 0x8, addend: 0x0, symName: __ZNSt3__116__back_ref_icaseIcNS_12regex_traitsIcEEED1Ev, symObjAddr: 0x17118, symBinAddr: 0x34950, symSize: 0x58 }
  - { offset: 0x1A45E6, size: 0x8, addend: 0x0, symName: __ZNSt3__116__back_ref_icaseIcNS_12regex_traitsIcEEED0Ev, symObjAddr: 0x17170, symBinAddr: 0x349A8, symSize: 0x58 }
  - { offset: 0x1A46B0, size: 0x8, addend: 0x0, symName: __ZNKSt3__116__back_ref_icaseIcNS_12regex_traitsIcEEE6__execERNS_7__stateIcEE, symObjAddr: 0x171C8, symBinAddr: 0x34A00, symSize: 0xE4 }
  - { offset: 0x1A481A, size: 0x8, addend: 0x0, symName: __ZNSt3__118__back_ref_collateIcNS_12regex_traitsIcEEED1Ev, symObjAddr: 0x172AC, symBinAddr: 0x34AE4, symSize: 0x58 }
  - { offset: 0x1A48D8, size: 0x8, addend: 0x0, symName: __ZNSt3__118__back_ref_collateIcNS_12regex_traitsIcEEED0Ev, symObjAddr: 0x17304, symBinAddr: 0x34B3C, symSize: 0x58 }
  - { offset: 0x1A49A2, size: 0x8, addend: 0x0, symName: __ZNKSt3__118__back_ref_collateIcNS_12regex_traitsIcEEE6__execERNS_7__stateIcEE, symObjAddr: 0x1735C, symBinAddr: 0x34B94, symSize: 0x90 }
  - { offset: 0x1A4A78, size: 0x8, addend: 0x0, symName: __ZNSt3__110__back_refIcED1Ev, symObjAddr: 0x173EC, symBinAddr: 0x34C24, symSize: 0x44 }
  - { offset: 0x1A4AFC, size: 0x8, addend: 0x0, symName: __ZNSt3__110__back_refIcED0Ev, symObjAddr: 0x17430, symBinAddr: 0x34C68, symSize: 0x44 }
  - { offset: 0x1A4B8C, size: 0x8, addend: 0x0, symName: __ZNKSt3__110__back_refIcE6__execERNS_7__stateIcEE, symObjAddr: 0x17474, symBinAddr: 0x34CAC, symSize: 0xBC }
  - { offset: 0x1A4D07, size: 0x8, addend: 0x0, symName: __ZNSt3__111basic_regexIcNS_12regex_traitsIcEEE21__start_matching_listEb, symObjAddr: 0x17530, symBinAddr: 0x34D68, symSize: 0x78 }
  - { offset: 0x1A4D67, size: 0x8, addend: 0x0, symName: __ZNSt3__120__bracket_expressionIcNS_12regex_traitsIcEEEC2B8ne180100ERKS2_PNS_6__nodeIcEEbbb, symObjAddr: 0x177D4, symBinAddr: 0x3500C, symSize: 0x19C }
  - { offset: 0x1A5953, size: 0x8, addend: 0x0, symName: __ZNSt3__111basic_regexIcNS_12regex_traitsIcEEE23__parse_expression_termIPKcEET_S7_S7_PNS_20__bracket_expressionIcS2_EE, symObjAddr: 0x18918, symBinAddr: 0x36128, symSize: 0x3AC }
  - { offset: 0x1A5B9B, size: 0x8, addend: 0x0, symName: __ZNSt3__16vectorINS_12basic_stringIcNS_11char_traitsIcEENS_9allocatorIcEEEENS4_IS6_EEE16__destroy_vectorclB8ne180100Ev, symObjAddr: 0x18394, symBinAddr: 0x35BCC, symSize: 0x40 }
  - { offset: 0x1A5C64, size: 0x8, addend: 0x0, symName: __ZNSt3__16vectorINS_4pairINS_12basic_stringIcNS_11char_traitsIcEENS_9allocatorIcEEEES7_EENS5_IS8_EEE16__destroy_vectorclB8ne180100Ev, symObjAddr: 0x18420, symBinAddr: 0x35C58, symSize: 0x84 }
  - { offset: 0x1A5DBD, size: 0x8, addend: 0x0, symName: __ZNSt3__120__bracket_expressionIcNS_12regex_traitsIcEEED1Ev, symObjAddr: 0x17970, symBinAddr: 0x351A8, symSize: 0xB4 }
  - { offset: 0x1A632E, size: 0x8, addend: 0x0, symName: __ZNSt3__120__bracket_expressionIcNS_12regex_traitsIcEEED0Ev, symObjAddr: 0x17A24, symBinAddr: 0x3525C, symSize: 0xB8 }
  - { offset: 0x1A6B6C, size: 0x8, addend: 0x0, symName: __ZNKSt3__120__bracket_expressionIcNS_12regex_traitsIcEEE6__execERNS_7__stateIcEE, symObjAddr: 0x17ADC, symBinAddr: 0x35314, symSize: 0x8B8 }
  - { offset: 0x1A829B, size: 0x8, addend: 0x0, symName: __ZNKSt3__112regex_traitsIcE20__lookup_collatenameIPcEENS_12basic_stringIcNS_11char_traitsIcEENS_9allocatorIcEEEET_SA_c, symObjAddr: 0x185C4, symBinAddr: 0x35DFC, symSize: 0x194 }
  - { offset: 0x1A8CB3, size: 0x8, addend: 0x0, symName: __ZNKSt3__112regex_traitsIcE9transformIPcEENS_12basic_stringIcNS_11char_traitsIcEENS_9allocatorIcEEEET_SA_, symObjAddr: 0x18528, symBinAddr: 0x35D60, symSize: 0x9C }
  - { offset: 0x1A90F3, size: 0x8, addend: 0x0, symName: __ZNKSt3__112regex_traitsIcE19__transform_primaryIPcEENS_12basic_stringIcNS_11char_traitsIcEENS_9allocatorIcEEEET_SA_c, symObjAddr: 0x18810, symBinAddr: 0x36034, symSize: 0xF4 }
  - { offset: 0x1A96FD, size: 0x8, addend: 0x0, symName: __ZNSt3__16vectorINS_12basic_stringIcNS_11char_traitsIcEENS_9allocatorIcEEEENS4_IS6_EEE7__clearB8ne180100Ev, symObjAddr: 0x183D4, symBinAddr: 0x35C0C, symSize: 0x4C }
  - { offset: 0x1A99CB, size: 0x8, addend: 0x0, symName: __ZNSt3__19allocatorINS_4pairINS_12basic_stringIcNS_11char_traitsIcEENS0_IcEEEES6_EEE7destroyB8ne180100EPS7_, symObjAddr: 0x184A4, symBinAddr: 0x35CDC, symSize: 0x44 }
  - { offset: 0x1A9C83, size: 0x8, addend: 0x0, symName: __ZNSt3__14pairINS_12basic_stringIcNS_11char_traitsIcEENS_9allocatorIcEEEES6_ED1Ev, symObjAddr: 0x184E8, symBinAddr: 0x35D20, symSize: 0x40 }
  - { offset: 0x1A9FEF, size: 0x8, addend: 0x0, symName: __ZNSt3__112basic_stringIcNS_11char_traitsIcEENS_9allocatorIcEEE16__init_with_sizeB8ne180100IPcS7_EEvT_T0_m, symObjAddr: 0x18758, symBinAddr: 0x35F90, symSize: 0xA4 }
  - { offset: 0x1AA2A5, size: 0x8, addend: 0x0, symName: __ZNKSt3__112regex_traitsIcE19__transform_primaryIPcEENS_12basic_stringIcNS_11char_traitsIcEENS_9allocatorIcEEEET_SA_c, symObjAddr: 0x18810, symBinAddr: 0x36034, symSize: 0xF4 }
  - { offset: 0x1AA31A, size: 0x8, addend: 0x0, symName: __ZNSt3__111basic_regexIcNS_12regex_traitsIcEEE25__parse_equivalence_classIPKcEET_S7_S7_PNS_20__bracket_expressionIcS2_EE, symObjAddr: 0x18CC4, symBinAddr: 0x364D4, symSize: 0x1DC }
  - { offset: 0x1AACA7, size: 0x8, addend: 0x0, symName: __ZNSt3__111basic_regexIcNS_12regex_traitsIcEEE18__parse_awk_escapeIPKcEET_S7_S7_PNS_12basic_stringIcNS_11char_traitsIcEENS_9allocatorIcEEEE, symObjAddr: 0x1916C, symBinAddr: 0x3697C, symSize: 0x1D8 }
  - { offset: 0x1AAD35, size: 0x8, addend: 0x0, symName: __ZNSt3__120__bracket_expressionIcNS_12regex_traitsIcEEE11__add_rangeB8ne180100ENS_12basic_stringIcNS_11char_traitsIcEENS_9allocatorIcEEEES9_, symObjAddr: 0x19344, symBinAddr: 0x36B54, symSize: 0x3C4 }
  - { offset: 0x1AAD49, size: 0x8, addend: 0x0, symName: __ZNSt3__111basic_regexIcNS_12regex_traitsIcEEE24__parse_collating_symbolIPKcEET_S7_S7_RNS_12basic_stringIcNS_11char_traitsIcEENS_9allocatorIcEEEE, symObjAddr: 0x18F58, symBinAddr: 0x36768, symSize: 0xEC }
  - { offset: 0x1AB0E8, size: 0x8, addend: 0x0, symName: __ZNSt3__111basic_regexIcNS_12regex_traitsIcEEE20__parse_class_escapeIPKcEET_S7_S7_RNS_12basic_stringIcNS_11char_traitsIcEENS_9allocatorIcEEEEPNS_20__bracket_expressionIcS2_EE, symObjAddr: 0x19044, symBinAddr: 0x36854, symSize: 0x128 }
  - { offset: 0x1AB0FC, size: 0x8, addend: 0x0, symName: __ZNSt3__111basic_regexIcNS_12regex_traitsIcEEE23__parse_character_classIPKcEET_S7_S7_PNS_20__bracket_expressionIcS2_EE, symObjAddr: 0x18EA0, symBinAddr: 0x366B0, symSize: 0xB8 }
  - { offset: 0x1AB389, size: 0x8, addend: 0x0, symName: __ZNSt3__111basic_regexIcNS_12regex_traitsIcEEE24__parse_collating_symbolIPKcEET_S7_S7_RNS_12basic_stringIcNS_11char_traitsIcEENS_9allocatorIcEEEE, symObjAddr: 0x18F58, symBinAddr: 0x36768, symSize: 0xEC }
  - { offset: 0x1AB3A9, size: 0x8, addend: 0x0, symName: __ZNSt3__120__bracket_expressionIcNS_12regex_traitsIcEEE13__add_digraphB8ne180100Ecc, symObjAddr: 0x19708, symBinAddr: 0x36F18, symSize: 0x228 }
  - { offset: 0x1ABC85, size: 0x8, addend: 0x0, symName: __ZNSt3__120__bracket_expressionIcNS_12regex_traitsIcEEE17__add_equivalenceB8ne180100ERKNS_12basic_stringIcNS_11char_traitsIcEENS_9allocatorIcEEEE, symObjAddr: 0x19930, symBinAddr: 0x37140, symSize: 0x40 }
  - { offset: 0x1ABC97, size: 0x8, addend: 0x0, symName: __ZNSt3__111basic_regexIcNS_12regex_traitsIcEEE20__parse_class_escapeIPKcEET_S7_S7_RNS_12basic_stringIcNS_11char_traitsIcEENS_9allocatorIcEEEEPNS_20__bracket_expressionIcS2_EE, symObjAddr: 0x19044, symBinAddr: 0x36854, symSize: 0x128 }
  - { offset: 0x1ABE3D, size: 0x8, addend: 0x0, symName: __ZNSt3__111basic_regexIcNS_12regex_traitsIcEEE18__parse_awk_escapeIPKcEET_S7_S7_PNS_12basic_stringIcNS_11char_traitsIcEENS_9allocatorIcEEEE, symObjAddr: 0x1916C, symBinAddr: 0x3697C, symSize: 0x1D8 }
  - { offset: 0x1ABE51, size: 0x8, addend: 0x0, symName: __ZNSt3__120__bracket_expressionIcNS_12regex_traitsIcEEE11__add_rangeB8ne180100ENS_12basic_stringIcNS_11char_traitsIcEENS_9allocatorIcEEEES9_, symObjAddr: 0x19344, symBinAddr: 0x36B54, symSize: 0x3C4 }
  - { offset: 0x1AD27F, size: 0x8, addend: 0x0, symName: __ZNKSt3__112regex_traitsIcE20__lookup_collatenameIPKcEENS_12basic_stringIcNS_11char_traitsIcEENS_9allocatorIcEEEET_SB_c, symObjAddr: 0x19970, symBinAddr: 0x37180, symSize: 0x194 }
  - { offset: 0x1ADC97, size: 0x8, addend: 0x0, symName: __ZNKSt3__112regex_traitsIcE19__transform_primaryINS_11__wrap_iterIPcEEEENS_12basic_stringIcNS_11char_traitsIcEENS_9allocatorIcEEEET_SC_c, symObjAddr: 0x19BA8, symBinAddr: 0x37314, symSize: 0xF4 }
  - { offset: 0x1AE25A, size: 0x8, addend: 0x0, symName: __ZNSt3__120__bracket_expressionIcNS_12regex_traitsIcEEE17__add_equivalenceB8ne180100ERKNS_12basic_stringIcNS_11char_traitsIcEENS_9allocatorIcEEEE, symObjAddr: 0x19930, symBinAddr: 0x37140, symSize: 0x40 }
  - { offset: 0x1AE315, size: 0x8, addend: 0x0, symName: __ZNKSt3__112regex_traitsIcE18__lookup_classnameIPKcEEjT_S5_bc, symObjAddr: 0x1A1B0, symBinAddr: 0x377EC, symSize: 0xB8 }
  - { offset: 0x1AE822, size: 0x8, addend: 0x0, symName: __ZNSt3__120__bracket_expressionIcNS_12regex_traitsIcEEE14__add_neg_charB8ne180100Ec, symObjAddr: 0x1A268, symBinAddr: 0x378A4, symSize: 0x22C }
  - { offset: 0x1AF129, size: 0x8, addend: 0x0, symName: __ZNSt3__16vectorINS_4pairINS_12basic_stringIcNS_11char_traitsIcEENS_9allocatorIcEEEES7_EENS5_IS8_EEE9push_backB8ne180100EOS8_, symObjAddr: 0x1A494, symBinAddr: 0x37AD0, symSize: 0x168 }
  - { offset: 0x1AF1CE, size: 0x8, addend: 0x0, symName: __ZNKSt3__112regex_traitsIcE9transformINS_11__wrap_iterIPcEEEENS_12basic_stringIcNS_11char_traitsIcEENS_9allocatorIcEEEET_SC_, symObjAddr: 0x1A5FC, symBinAddr: 0x37C38, symSize: 0x9C }
  - { offset: 0x1AF622, size: 0x8, addend: 0x0, symName: __ZNSt3__16vectorINS_4pairINS_12basic_stringIcNS_11char_traitsIcEENS_9allocatorIcEEEES7_EENS5_IS8_EEE9push_backB8ne180100EOS8_, symObjAddr: 0x1A494, symBinAddr: 0x37AD0, symSize: 0x168 }
  - { offset: 0x1AFDEA, size: 0x8, addend: 0x0, symName: __ZNKSt3__16vectorINS_4pairIccEENS_9allocatorIS2_EEE20__throw_length_errorB8ne180100Ev, symObjAddr: 0x1A910, symBinAddr: 0x37F4C, symSize: 0x14 }
  - { offset: 0x1AFE12, size: 0x8, addend: 0x0, symName: __ZNSt3__119__allocate_at_leastB8ne180100INS_9allocatorINS_4pairIccEEEEEENS_19__allocation_resultINS_16allocator_traitsIT_E7pointerEEERS7_m, symObjAddr: 0x1A924, symBinAddr: 0x37F60, symSize: 0x30 }
  - { offset: 0x1AFE4C, size: 0x8, addend: 0x0, symName: __ZNSt3__16vectorINS_12basic_stringIcNS_11char_traitsIcEENS_9allocatorIcEEEENS4_IS6_EEE22__construct_one_at_endB8ne180100IJRKS6_EEEvDpOT_, symObjAddr: 0x19D40, symBinAddr: 0x37408, symSize: 0x5C }
  - { offset: 0x1B0034, size: 0x8, addend: 0x0, symName: __ZNSt3__16vectorINS_12basic_stringIcNS_11char_traitsIcEENS_9allocatorIcEEEENS4_IS6_EEE21__push_back_slow_pathIRKS6_EEPS6_OT_, symObjAddr: 0x19D9C, symBinAddr: 0x37464, symSize: 0x120 }
  - { offset: 0x1B056C, size: 0x8, addend: 0x0, symName: __ZNKSt3__112regex_traitsIcE19__transform_primaryINS_11__wrap_iterIPcEEEENS_12basic_stringIcNS_11char_traitsIcEENS_9allocatorIcEEEET_SC_c, symObjAddr: 0x19BA8, symBinAddr: 0x37314, symSize: 0xF4 }
  - { offset: 0x1B0790, size: 0x8, addend: 0x0, symName: __ZNSt3__16vectorINS_12basic_stringIcNS_11char_traitsIcEENS_9allocatorIcEEEENS4_IS6_EEE22__construct_one_at_endB8ne180100IJRKS6_EEEvDpOT_, symObjAddr: 0x19D40, symBinAddr: 0x37408, symSize: 0x5C }
  - { offset: 0x1B0B41, size: 0x8, addend: 0x0, symName: __ZNSt3__16vectorINS_12basic_stringIcNS_11char_traitsIcEENS_9allocatorIcEEEENS4_IS6_EEE26__swap_out_circular_bufferERNS_14__split_bufferIS6_RS7_EE, symObjAddr: 0x19F48, symBinAddr: 0x37584, symSize: 0x74 }
  - { offset: 0x1B0D10, size: 0x8, addend: 0x0, symName: __ZNSt3__114__split_bufferINS_12basic_stringIcNS_11char_traitsIcEENS_9allocatorIcEEEERNS4_IS6_EEED2Ev, symObjAddr: 0x1A128, symBinAddr: 0x37764, symSize: 0x34 }
  - { offset: 0x1B0E04, size: 0x8, addend: 0x0, symName: __ZNKSt3__16vectorINS_12basic_stringIcNS_11char_traitsIcEENS_9allocatorIcEEEENS4_IS6_EEE20__throw_length_errorB8ne180100Ev, symObjAddr: 0x19FBC, symBinAddr: 0x375F8, symSize: 0x14 }
  - { offset: 0x1B0E2C, size: 0x8, addend: 0x0, symName: __ZNSt3__119__allocate_at_leastB8ne180100INS_9allocatorINS_12basic_stringIcNS_11char_traitsIcEENS1_IcEEEEEEEENS_19__allocation_resultINS_16allocator_traitsIT_E7pointerEEERSA_m, symObjAddr: 0x19FD0, symBinAddr: 0x3760C, symSize: 0x44 }
  - { offset: 0x1B0FE1, size: 0x8, addend: 0x0, symName: __ZNSt3__128__exception_guard_exceptionsINS_29_AllocatorDestroyRangeReverseINS_9allocatorINS_12basic_stringIcNS_11char_traitsIcEENS2_IcEEEEEENS_16reverse_iteratorIPS7_EEEEED2B8ne180100Ev, symObjAddr: 0x1A0B0, symBinAddr: 0x376EC, symSize: 0x34 }
  - { offset: 0x1B101F, size: 0x8, addend: 0x0, symName: __ZNKSt3__129_AllocatorDestroyRangeReverseINS_9allocatorINS_12basic_stringIcNS_11char_traitsIcEENS1_IcEEEEEENS_16reverse_iteratorIPS6_EEEclB8ne180100Ev, symObjAddr: 0x1A0E4, symBinAddr: 0x37720, symSize: 0x44 }
  - { offset: 0x1B121C, size: 0x8, addend: 0x0, symName: __ZNSt3__114__split_bufferINS_12basic_stringIcNS_11char_traitsIcEENS_9allocatorIcEEEERNS4_IS6_EEE17__destruct_at_endB8ne180100EPS6_, symObjAddr: 0x1A15C, symBinAddr: 0x37798, symSize: 0x54 }
  - { offset: 0x1B1735, size: 0x8, addend: 0x0, symName: __ZNSt3__114__split_bufferINS_4pairINS_12basic_stringIcNS_11char_traitsIcEENS_9allocatorIcEEEES7_EERNS5_IS8_EEED2Ev, symObjAddr: 0x1A89C, symBinAddr: 0x37ED8, symSize: 0x30 }
  - { offset: 0x1B180C, size: 0x8, addend: 0x0, symName: __ZNKSt3__16vectorINS_4pairINS_12basic_stringIcNS_11char_traitsIcEENS_9allocatorIcEEEES7_EENS5_IS8_EEE20__throw_length_errorB8ne180100Ev, symObjAddr: 0x1A70C, symBinAddr: 0x37D48, symSize: 0x14 }
  - { offset: 0x1B1834, size: 0x8, addend: 0x0, symName: __ZNSt3__119__allocate_at_leastB8ne180100INS_9allocatorINS_4pairINS_12basic_stringIcNS_11char_traitsIcEENS1_IcEEEES7_EEEEEENS_19__allocation_resultINS_16allocator_traitsIT_E7pointerEEERSC_m, symObjAddr: 0x1A720, symBinAddr: 0x37D5C, symSize: 0x44 }
  - { offset: 0x1B18F4, size: 0x8, addend: 0x0, symName: __ZNSt3__128__exception_guard_exceptionsINS_29_AllocatorDestroyRangeReverseINS_9allocatorINS_4pairINS_12basic_stringIcNS_11char_traitsIcEENS2_IcEEEES8_EEEENS_16reverse_iteratorIPS9_EEEEED2B8ne180100Ev, symObjAddr: 0x1A818, symBinAddr: 0x37E54, symSize: 0x34 }
  - { offset: 0x1B1932, size: 0x8, addend: 0x0, symName: __ZNKSt3__129_AllocatorDestroyRangeReverseINS_9allocatorINS_4pairINS_12basic_stringIcNS_11char_traitsIcEENS1_IcEEEES7_EEEENS_16reverse_iteratorIPS8_EEEclB8ne180100Ev, symObjAddr: 0x1A84C, symBinAddr: 0x37E88, symSize: 0x50 }
  - { offset: 0x1B1A0A, size: 0x8, addend: 0x0, symName: __ZNSt3__114__split_bufferINS_4pairINS_12basic_stringIcNS_11char_traitsIcEENS_9allocatorIcEEEES7_EERNS5_IS8_EEE5clearB8ne180100Ev, symObjAddr: 0x1A8CC, symBinAddr: 0x37F08, symSize: 0x44 }
  - { offset: 0x1B1BC3, size: 0x8, addend: 0x0, symName: __ZNSt3__128__begin_marked_subexpressionIcED1Ev, symObjAddr: 0x1A954, symBinAddr: 0x37F90, symSize: 0x44 }
  - { offset: 0x1B1C47, size: 0x8, addend: 0x0, symName: __ZNSt3__128__begin_marked_subexpressionIcED0Ev, symObjAddr: 0x1A998, symBinAddr: 0x37FD4, symSize: 0x44 }
  - { offset: 0x1B1CD7, size: 0x8, addend: 0x0, symName: __ZNKSt3__128__begin_marked_subexpressionIcE6__execERNS_7__stateIcEE, symObjAddr: 0x1A9DC, symBinAddr: 0x38018, symSize: 0x30 }
  - { offset: 0x1B1D64, size: 0x8, addend: 0x0, symName: __ZNSt3__126__end_marked_subexpressionIcED1Ev, symObjAddr: 0x1AA0C, symBinAddr: 0x38048, symSize: 0x44 }
  - { offset: 0x1B1DE8, size: 0x8, addend: 0x0, symName: __ZNSt3__126__end_marked_subexpressionIcED0Ev, symObjAddr: 0x1AA50, symBinAddr: 0x3808C, symSize: 0x44 }
  - { offset: 0x1B1E78, size: 0x8, addend: 0x0, symName: __ZNKSt3__126__end_marked_subexpressionIcE6__execERNS_7__stateIcEE, symObjAddr: 0x1AA94, symBinAddr: 0x380D0, symSize: 0x38 }
  - { offset: 0x1B2190, size: 0x8, addend: 0x0, symName: __ZNSt3__16__loopIcED0Ev, symObjAddr: 0x1AD04, symBinAddr: 0x38340, symSize: 0x68 }
  - { offset: 0x1B2280, size: 0x8, addend: 0x0, symName: __ZNSt3__16__loopIcED1Ev, symObjAddr: 0x1AC9C, symBinAddr: 0x382D8, symSize: 0x68 }
  - { offset: 0x1B2369, size: 0x8, addend: 0x0, symName: __ZNKSt3__16__loopIcE6__execERNS_7__stateIcEE, symObjAddr: 0x1AD6C, symBinAddr: 0x383A8, symSize: 0xB4 }
  - { offset: 0x1B2431, size: 0x8, addend: 0x0, symName: __ZNKSt3__16__loopIcE13__init_repeatB8ne180100ERNS_7__stateIcEE, symObjAddr: 0x1AF20, symBinAddr: 0x3855C, symSize: 0x54 }
  - { offset: 0x1B2499, size: 0x8, addend: 0x0, symName: __ZNKSt3__16__loopIcE12__exec_splitEbRNS_7__stateIcEE, symObjAddr: 0x1AE20, symBinAddr: 0x3845C, symSize: 0x30 }
  - { offset: 0x1B2527, size: 0x8, addend: 0x0, symName: __ZNSt3__117__owns_two_statesIcED1Ev, symObjAddr: 0x1AE50, symBinAddr: 0x3848C, symSize: 0x68 }
  - { offset: 0x1B25B6, size: 0x8, addend: 0x0, symName: __ZNSt3__117__owns_two_statesIcED0Ev, symObjAddr: 0x1AEB8, symBinAddr: 0x384F4, symSize: 0x68 }
  - { offset: 0x1B2651, size: 0x8, addend: 0x0, symName: __ZNSt3__117__repeat_one_loopIcED1Ev, symObjAddr: 0x1AF74, symBinAddr: 0x385B0, symSize: 0x4 }
  - { offset: 0x1B267C, size: 0x8, addend: 0x0, symName: __ZNSt3__117__repeat_one_loopIcED0Ev, symObjAddr: 0x1AF78, symBinAddr: 0x385B4, symSize: 0x4 }
  - { offset: 0x1B26A7, size: 0x8, addend: 0x0, symName: __ZNKSt3__117__repeat_one_loopIcE6__execERNS_7__stateIcEE, symObjAddr: 0x1AF7C, symBinAddr: 0x385B8, symSize: 0x14 }
  - { offset: 0x1B2715, size: 0x8, addend: 0x0, symName: __ZNSt3__111__alternateIcED1Ev, symObjAddr: 0x1AF90, symBinAddr: 0x385CC, symSize: 0x68 }
  - { offset: 0x1B27C2, size: 0x8, addend: 0x0, symName: __ZNSt3__111__alternateIcED0Ev, symObjAddr: 0x1AFF8, symBinAddr: 0x38634, symSize: 0x68 }
  - { offset: 0x1B287B, size: 0x8, addend: 0x0, symName: __ZNKSt3__111__alternateIcE6__execERNS_7__stateIcEE, symObjAddr: 0x1B060, symBinAddr: 0x3869C, symSize: 0xC }
  - { offset: 0x1B28B0, size: 0x8, addend: 0x0, symName: __ZNKSt3__111__alternateIcE12__exec_splitEbRNS_7__stateIcEE, symObjAddr: 0x1B06C, symBinAddr: 0x386A8, symSize: 0x24 }
  - { offset: 0x1B28F9, size: 0x8, addend: 0x0, symName: __ZNSt3__121__empty_non_own_stateIcED1Ev, symObjAddr: 0x1B090, symBinAddr: 0x386CC, symSize: 0x4 }
  - { offset: 0x1B2924, size: 0x8, addend: 0x0, symName: __ZNSt3__121__empty_non_own_stateIcED0Ev, symObjAddr: 0x1B094, symBinAddr: 0x386D0, symSize: 0x4 }
  - { offset: 0x1B294F, size: 0x8, addend: 0x0, symName: __ZNKSt3__121__empty_non_own_stateIcE6__execERNS_7__stateIcEE, symObjAddr: 0x1B098, symBinAddr: 0x386D4, symSize: 0x14 }
  - { offset: 0x1B29A1, size: 0x8, addend: 0x0, symName: __ZNSt3__111basic_regexIcNS_12regex_traitsIcEEE18__parse_nondupl_REIPKcEET_S7_S7_, symObjAddr: 0x1B134, symBinAddr: 0x38770, symSize: 0x10C }
  - { offset: 0x1B2C1D, size: 0x8, addend: 0x0, symName: __ZNSt3__111basic_regexIcNS_12regex_traitsIcEEE22__parse_RE_dupl_symbolIPKcEET_S7_S7_PNS_16__owns_one_stateIcEEjj, symObjAddr: 0x1B240, symBinAddr: 0x3887C, symSize: 0x1A0 }
  - { offset: 0x1B2C31, size: 0x8, addend: 0x0, symName: __ZNSt3__111basic_regexIcNS_12regex_traitsIcEEE22__parse_RE_dupl_symbolIPKcEET_S7_S7_PNS_16__owns_one_stateIcEEjj, symObjAddr: 0x1B240, symBinAddr: 0x3887C, symSize: 0x1A0 }
  - { offset: 0x1B2F42, size: 0x8, addend: 0x0, symName: __ZNSt3__111basic_regexIcNS_12regex_traitsIcEEE32__parse_one_char_or_coll_elem_REIPKcEET_S7_S7_, symObjAddr: 0x1B3E0, symBinAddr: 0x38A1C, symSize: 0x108 }
  - { offset: 0x1B3028, size: 0x8, addend: 0x0, symName: __ZNSt3__111basic_regexIcNS_12regex_traitsIcEEE32__parse_one_char_or_coll_elem_REIPKcEET_S7_S7_, symObjAddr: 0x1B3E0, symBinAddr: 0x38A1C, symSize: 0x108 }
  - { offset: 0x1B31D5, size: 0x8, addend: 0x0, symName: __ZNSt3__111basic_regexIcNS_12regex_traitsIcEEE15__test_back_refEc, symObjAddr: 0x1B628, symBinAddr: 0x38C64, symSize: 0x5C }
  - { offset: 0x1B32B8, size: 0x8, addend: 0x0, symName: __ZNSt3__111basic_regexIcNS_12regex_traitsIcEEE18__parse_ERE_branchIPKcEET_S7_S7_, symObjAddr: 0x1B684, symBinAddr: 0x38CC0, symSize: 0x5C }
  - { offset: 0x1B340F, size: 0x8, addend: 0x0, symName: __ZNSt3__111basic_regexIcNS_12regex_traitsIcEEE19__parse_QUOTED_CHARIPKcEET_S7_S7_, symObjAddr: 0x1B4E8, symBinAddr: 0x38B24, symSize: 0x78 }
  - { offset: 0x1B350F, size: 0x8, addend: 0x0, symName: __ZNSt3__111__match_anyIcED1Ev, symObjAddr: 0x1B560, symBinAddr: 0x38B9C, symSize: 0x44 }
  - { offset: 0x1B3593, size: 0x8, addend: 0x0, symName: __ZNSt3__111__match_anyIcED0Ev, symObjAddr: 0x1B5A4, symBinAddr: 0x38BE0, symSize: 0x44 }
  - { offset: 0x1B3623, size: 0x8, addend: 0x0, symName: __ZNKSt3__111__match_anyIcE6__execERNS_7__stateIcEE, symObjAddr: 0x1B5E8, symBinAddr: 0x38C24, symSize: 0x40 }
  - { offset: 0x1B3675, size: 0x8, addend: 0x0, symName: __ZNSt3__111basic_regexIcNS_12regex_traitsIcEEE22__parse_ERE_expressionIPKcEET_S7_S7_, symObjAddr: 0x1B6E0, symBinAddr: 0x38D1C, symSize: 0x190 }
  - { offset: 0x1B3898, size: 0x8, addend: 0x0, symName: __ZNSt3__111basic_regexIcNS_12regex_traitsIcEEE33__parse_one_char_or_coll_elem_EREIPKcEET_S7_S7_, symObjAddr: 0x1B870, symBinAddr: 0x38EAC, symSize: 0xB8 }
  - { offset: 0x1B38AC, size: 0x8, addend: 0x0, symName: __ZNSt3__111basic_regexIcNS_12regex_traitsIcEEE33__parse_one_char_or_coll_elem_EREIPKcEET_S7_S7_, symObjAddr: 0x1B870, symBinAddr: 0x38EAC, symSize: 0xB8 }
  - { offset: 0x1B3A0E, size: 0x8, addend: 0x0, symName: __ZNSt3__111basic_regexIcNS_12regex_traitsIcEEE20__parse_ORD_CHAR_EREIPKcEET_S7_S7_, symObjAddr: 0x1B928, symBinAddr: 0x38F64, symSize: 0x88 }
  - { offset: 0x1B3A6E, size: 0x8, addend: 0x0, symName: __ZNSt3__111basic_regexIcNS_12regex_traitsIcEEE23__parse_QUOTED_CHAR_EREIPKcEET_S7_S7_, symObjAddr: 0x1B9B0, symBinAddr: 0x38FEC, symSize: 0xC4 }
  - { offset: 0x1B40BB, size: 0x8, addend: 0x0, symName: __ZNSt3__112basic_stringIcNS_11char_traitsIcEENS_9allocatorIcEEEC1B8ne180100IN12_GLOBAL__N_112ByteIteratorELi0EEET_S9_, symObjAddr: 0x1BF18, symBinAddr: 0x39554, symSize: 0x120 }
  - { offset: 0x1B439D, size: 0x8, addend: 0x0, symName: __ZNKSt3__111basic_regexIcNS_12regex_traitsIcEEE8__searchINS_9allocatorINS_9sub_matchIPKcEEEEEEbS8_S8_RNS_13match_resultsIS8_T_EENS_15regex_constants15match_flag_typeE, symObjAddr: 0x1C038, symBinAddr: 0x39674, symSize: 0x1D8 }
  - { offset: 0x1B43BE, size: 0x8, addend: 0x0, symName: __ZNKSt3__111basic_regexIcNS_12regex_traitsIcEEE8__searchINS_9allocatorINS_9sub_matchIPKcEEEEEEbS8_S8_RNS_13match_resultsIS8_T_EENS_15regex_constants15match_flag_typeE, symObjAddr: 0x1C038, symBinAddr: 0x39674, symSize: 0x1D8 }
  - { offset: 0x1B4885, size: 0x8, addend: 0x0, symName: __ZNKSt3__111basic_regexIcNS_12regex_traitsIcEEE16__match_at_startINS_9allocatorINS_9sub_matchIPKcEEEEEEbS8_S8_RNS_13match_resultsIS8_T_EENS_15regex_constants15match_flag_typeEb, symObjAddr: 0x1C210, symBinAddr: 0x3984C, symSize: 0x20 }
  - { offset: 0x1B494B, size: 0x8, addend: 0x0, symName: __ZNKSt3__111basic_regexIcNS_12regex_traitsIcEEE27__match_at_start_posix_subsINS_9allocatorINS_9sub_matchIPKcEEEEEEbS8_S8_RNS_13match_resultsIS8_T_EENS_15regex_constants15match_flag_typeEb, symObjAddr: 0x1C768, symBinAddr: 0x39DA4, symSize: 0x568 }
  - { offset: 0x1B5E78, size: 0x8, addend: 0x0, symName: __ZNKSt3__111basic_regexIcNS_12regex_traitsIcEEE29__match_at_start_posix_nosubsINS_9allocatorINS_9sub_matchIPKcEEEEEEbS8_S8_RNS_13match_resultsIS8_T_EENS_15regex_constants15match_flag_typeEb, symObjAddr: 0x1C230, symBinAddr: 0x3986C, symSize: 0x538 }
  - { offset: 0x1B6F95, size: 0x8, addend: 0x0, symName: __ZNSt3__15dequeINS_7__stateIcEENS_9allocatorIS2_EEE9push_backEOS2_, symObjAddr: 0x1CCD0, symBinAddr: 0x3A30C, symSize: 0x100 }
  - { offset: 0x1B71B5, size: 0x8, addend: 0x0, symName: __ZNSt3__15dequeINS_7__stateIcEENS_9allocatorIS2_EEE10push_frontEOS2_, symObjAddr: 0x1CE50, symBinAddr: 0x3A48C, symSize: 0xF0 }
  - { offset: 0x1B73CA, size: 0x8, addend: 0x0, symName: __ZNSt3__15dequeINS_7__stateIcEENS_9allocatorIS2_EEE8pop_backEv, symObjAddr: 0x1CDD0, symBinAddr: 0x3A40C, symSize: 0x80 }
  - { offset: 0x1B74B2, size: 0x8, addend: 0x0, symName: __ZNSt3__15dequeINS_7__stateIcEENS_9allocatorIS2_EEED2B8ne180100Ev, symObjAddr: 0x1DB8C, symBinAddr: 0x3B1C8, symSize: 0x144 }
  - { offset: 0x1B7959, size: 0x8, addend: 0x0, symName: __ZNSt3__16vectorINS_9sub_matchIPKcEENS_9allocatorIS4_EEE18__assign_with_sizeB8ne180100IPS4_S9_EEvT_T0_l, symObjAddr: 0x1DD1C, symBinAddr: 0x3B358, symSize: 0x1B4 }
  - { offset: 0x1B8184, size: 0x8, addend: 0x0, symName: __ZNSt3__16vectorINS_4pairImPKcEENS_9allocatorIS4_EEE18__assign_with_sizeB8ne180100IPS4_S9_EEvT_T0_l, symObjAddr: 0x1DED0, symBinAddr: 0x3B50C, symSize: 0x14C }
  - { offset: 0x1B81A8, size: 0x8, addend: 0x0, symName: __ZNSt3__16vectorINS_4pairImPKcEENS_9allocatorIS4_EEE18__assign_with_sizeB8ne180100IPS4_S9_EEvT_T0_l, symObjAddr: 0x1DED0, symBinAddr: 0x3B50C, symSize: 0x14C }
  - { offset: 0x1B897E, size: 0x8, addend: 0x0, symName: __ZNKSt3__16vectorINS_9sub_matchIN12_GLOBAL__N_112ByteIteratorEEENS_9allocatorIS4_EEE20__throw_length_errorB8ne180100Ev, symObjAddr: 0x1E01C, symBinAddr: 0x3B658, symSize: 0x14 }
  - { offset: 0x1B89CA, size: 0x8, addend: 0x0, symName: __ZNSt3__15dequeINS_7__stateIcEENS_9allocatorIS2_EEE19__add_back_capacityEv, symObjAddr: 0x1CF40, symBinAddr: 0x3A57C, symSize: 0x314 }
  - { offset: 0x1B972E, size: 0x8, addend: 0x0, symName: __ZNSt3__15dequeINS_7__stateIcEENS_9allocatorIS2_EEE25__maybe_remove_back_spareB8ne180100Eb, symObjAddr: 0x1D6E4, symBinAddr: 0x3AD20, symSize: 0x74 }
  - { offset: 0x1B992D, size: 0x8, addend: 0x0, symName: __ZNSt3__15dequeINS_7__stateIcEENS_9allocatorIS2_EEE20__add_front_capacityEv, symObjAddr: 0x1D758, symBinAddr: 0x3AD94, symSize: 0x318 }
  - { offset: 0x1BACA3, size: 0x8, addend: 0x0, symName: __ZNSt3__114__split_bufferIPNS_7__stateIcEENS_9allocatorIS3_EEE9push_backEOS3_, symObjAddr: 0x1D254, symBinAddr: 0x3A890, symSize: 0x114 }
  - { offset: 0x1BB112, size: 0x8, addend: 0x0, symName: __ZNSt3__114__split_bufferIPNS_7__stateIcEERNS_9allocatorIS3_EEE9push_backEOS3_, symObjAddr: 0x1D484, symBinAddr: 0x3AAC0, symSize: 0x114 }
  - { offset: 0x1BB5C8, size: 0x8, addend: 0x0, symName: __ZNSt3__114__split_bufferIPNS_7__stateIcEERNS_9allocatorIS3_EEE10push_frontERKS3_, symObjAddr: 0x1D598, symBinAddr: 0x3ABD4, symSize: 0x118 }
  - { offset: 0x1BBA73, size: 0x8, addend: 0x0, symName: __ZNSt3__114__split_bufferIPNS_7__stateIcEENS_9allocatorIS3_EEE10push_frontEOS3_, symObjAddr: 0x1D368, symBinAddr: 0x3A9A4, symSize: 0x11C }
  - { offset: 0x1BC04D, size: 0x8, addend: 0x0, symName: __ZNSt3__114__split_bufferIPNS_7__stateIcEENS_9allocatorIS3_EEE10push_frontERKS3_, symObjAddr: 0x1DA70, symBinAddr: 0x3B0AC, symSize: 0x11C }
  - { offset: 0x1BC4E0, size: 0x8, addend: 0x0, symName: __ZNSt3__114__split_bufferIPNS_7__stateIcEENS_9allocatorIS3_EEED2Ev, symObjAddr: 0x1DCD0, symBinAddr: 0x3B30C, symSize: 0x4C }
  - { offset: 0x1BC79C, size: 0x8, addend: 0x0, symName: __ZN9Scintilla8Internal10RegexErrorD0Ev, symObjAddr: 0x1E074, symBinAddr: 0x3B6B0, symSize: 0x14 }
  - { offset: 0x1BC7FE, size: 0x8, addend: 0x0, symName: __ZNK12_GLOBAL__N_115DocumentIndexer6CharAtEl, symObjAddr: 0x1E088, symBinAddr: 0x3B6C4, symSize: 0x24 }
  - { offset: 0x1BC857, size: 0x8, addend: 0x0, symName: __ZNK12_GLOBAL__N_115DocumentIndexer23MovePositionOutsideCharEll, symObjAddr: 0x1E0AC, symBinAddr: 0x3B6E8, symSize: 0xC }
  - { offset: 0x1BCACD, size: 0x8, addend: 0x0, symName: __ZNKSt3__16vectorIN9Scintilla8Internal8Document19WatcherWithUserDataENS_9allocatorIS4_EEE20__throw_length_errorB8ne180100Ev, symObjAddr: 0x1E19C, symBinAddr: 0x3B728, symSize: 0x14 }
  - { offset: 0x1C91F0, size: 0x8, addend: 0x0, symName: __ZN9Scintilla8Internal5CaretC2Ev, symObjAddr: 0x0, symBinAddr: 0x3B770, symSize: 0x10 }
  - { offset: 0x1C922F, size: 0x8, addend: 0x0, symName: __ZN9Scintilla8Internal5CaretC1Ev, symObjAddr: 0x10, symBinAddr: 0x3B780, symSize: 0x10 }
  - { offset: 0x1C9251, size: 0x8, addend: 0x0, symName: __ZN9Scintilla8Internal5CaretC1Ev, symObjAddr: 0x10, symBinAddr: 0x3B780, symSize: 0x10 }
  - { offset: 0x1C9A4D, size: 0x8, addend: 0x0, symName: __ZN9Scintilla8Internal9EditModelC2Ev, symObjAddr: 0x20, symBinAddr: 0x3B790, symSize: 0x214 }
  - { offset: 0x1CA299, size: 0x8, addend: 0x0, symName: __ZNSt3__110unique_ptrIN9Scintilla8Internal22SpecialRepresentationsENS_14default_deleteIS3_EEE5resetB8ne180100EPS3_, symObjAddr: 0x4B4, symBinAddr: 0x3BC14, symSize: 0x40 }
  - { offset: 0x1CA3DC, size: 0x8, addend: 0x0, symName: __ZN9Scintilla8Internal9SelectionD1Ev, symObjAddr: 0x234, symBinAddr: 0x3B9A4, symSize: 0x40 }
  - { offset: 0x1CA7A0, size: 0x8, addend: 0x0, symName: __ZN9Scintilla8Internal9EditModelD2Ev, symObjAddr: 0x274, symBinAddr: 0x3B9E4, symSize: 0xB4 }
  - { offset: 0x1CAD32, size: 0x8, addend: 0x0, symName: __ZN9Scintilla8Internal9EditModelD1Ev, symObjAddr: 0x338, symBinAddr: 0x3BA98, symSize: 0x4 }
  - { offset: 0x1CAD5A, size: 0x8, addend: 0x0, symName: __ZN9Scintilla8Internal9EditModelD0Ev, symObjAddr: 0x33C, symBinAddr: 0x3BA9C, symSize: 0x4 }
  - { offset: 0x1CAD81, size: 0x8, addend: 0x0, symName: __ZNK9Scintilla8Internal9EditModel20BidirectionalEnabledEv, symObjAddr: 0x340, symBinAddr: 0x3BAA0, symSize: 0x28 }
  - { offset: 0x1CADA8, size: 0x8, addend: 0x0, symName: __ZNK9Scintilla8Internal9EditModel16BidirectionalR2LEv, symObjAddr: 0x368, symBinAddr: 0x3BAC8, symSize: 0x10 }
  - { offset: 0x1CADE4, size: 0x8, addend: 0x0, symName: __ZNK9Scintilla8Internal9EditModel18CurrentSurfaceModeEv, symObjAddr: 0x378, symBinAddr: 0x3BAD8, symSize: 0x1C }
  - { offset: 0x1CAEA2, size: 0x8, addend: 0x0, symName: __ZN9Scintilla8Internal9EditModel25SetDefaultFoldDisplayTextEPKc, symObjAddr: 0x394, symBinAddr: 0x3BAF4, symSize: 0x6C }
  - { offset: 0x1CB054, size: 0x8, addend: 0x0, symName: __ZNK9Scintilla8Internal9EditModel25GetDefaultFoldDisplayTextEv, symObjAddr: 0x400, symBinAddr: 0x3BB60, symSize: 0x8 }
  - { offset: 0x1CB07E, size: 0x8, addend: 0x0, symName: __ZNK9Scintilla8Internal9EditModel25GetDefaultFoldDisplayTextEv, symObjAddr: 0x400, symBinAddr: 0x3BB60, symSize: 0x8 }
  - { offset: 0x1CB0B3, size: 0x8, addend: 0x0, symName: __ZNK9Scintilla8Internal9EditModel18GetFoldDisplayTextEl, symObjAddr: 0x408, symBinAddr: 0x3BB68, symSize: 0x60 }
  - { offset: 0x1CB169, size: 0x8, addend: 0x0, symName: __ZNK9Scintilla8Internal9EditModel18LineEndInSelectionEl, symObjAddr: 0x468, symBinAddr: 0x3BBC8, symSize: 0x38 }
  - { offset: 0x1CB1BA, size: 0x8, addend: 0x0, symName: __ZNK9Scintilla8Internal9EditModel7GetMarkEl, symObjAddr: 0x4A0, symBinAddr: 0x3BC00, symSize: 0x14 }
  - { offset: 0x1D40CB, size: 0x8, addend: 0x0, symName: __ZNSt3__121__unwrap_and_dispatchB8ne180100INS_10__overloadINS_20__move_backward_loopINS_17_ClassicAlgPolicyEEENS_23__move_backward_trivialEEEPNS_10unique_ptrIA_KcNS_14default_deleteIS9_EEEESD_SD_Li0EEENS_4pairIT0_T2_EESF_T1_SG_, symObjAddr: 0x17E8, symBinAddr: 0x3D390, symSize: 0x60 }
  - { offset: 0x1D4240, size: 0x8, addend: 0x0, symName: __ZNSt3__121__unwrap_and_dispatchB8ne180100INS_10__overloadINS_11__move_loopINS_17_ClassicAlgPolicyEEENS_14__move_trivialEEEPNS_10unique_ptrIA_KcNS_14default_deleteIS9_EEEESD_SD_Li0EEENS_4pairIT0_T2_EESF_T1_SG_, symObjAddr: 0x1848, symBinAddr: 0x3D3F0, symSize: 0x68 }
  - { offset: 0x1D43C6, size: 0x8, addend: 0x0, symName: __ZNSt3__119__allocate_at_leastB8ne180100INS_9allocatorINS_10unique_ptrIA_KcNS_14default_deleteIS4_EEEEEEEENS_19__allocation_resultINS_16allocator_traitsIT_E7pointerEEERSB_m, symObjAddr: 0x14FC, symBinAddr: 0x3D0CC, symSize: 0x34 }
  - { offset: 0x1D44E8, size: 0x8, addend: 0x0, symName: __ZNSt3__142__uninitialized_allocator_move_if_noexceptB8ne180100INS_9allocatorINS_10unique_ptrIA_KcNS_14default_deleteIS4_EEEEEENS_16reverse_iteratorIPS7_EESB_SB_EET2_RT_T0_T1_SC_, symObjAddr: 0x1558, symBinAddr: 0x3D100, symSize: 0x94 }
  - { offset: 0x1D4FBB, size: 0x8, addend: 0x0, symName: __ZN9Scintilla8Internal11SplitVectorINSt3__110unique_ptrIA_KcNS2_14default_deleteIS5_EEEEE11DeleteRangeEll, symObjAddr: 0x1D74, symBinAddr: 0x3D8E8, symSize: 0x98 }
  - { offset: 0x1D576C, size: 0x8, addend: 0x0, symName: __ZNSt3__16vectorIiNS_9allocatorIiEEE8__appendEm, symObjAddr: 0x3A7C, symBinAddr: 0x3F500, symSize: 0x108 }
  - { offset: 0x1D873E, size: 0x8, addend: 0x0, symName: __ZN9Scintilla8Internal22ContractionStateCreateEb, symObjAddr: 0x0, symBinAddr: 0x3BC54, symSize: 0x78 }
  - { offset: 0x1D90F5, size: 0x8, addend: 0x0, symName: __ZNSt3__16vectorINS_10unique_ptrIA_KcNS_14default_deleteIS3_EEEENS_9allocatorIS6_EEE26__swap_out_circular_bufferERNS_14__split_bufferIS6_RS8_EE, symObjAddr: 0x1414, symBinAddr: 0x3D058, symSize: 0x74 }
  - { offset: 0x1D98ED, size: 0x8, addend: 0x0, symName: __ZN12_GLOBAL__N_116ContractionStateIlED1Ev, symObjAddr: 0x78, symBinAddr: 0x3BCCC, symSize: 0x80 }
  - { offset: 0x1D9B7E, size: 0x8, addend: 0x0, symName: __ZNKSt3__114default_deleteIN9Scintilla8Internal12PartitioningIlEEEclB8ne180100EPS4_, symObjAddr: 0xAE4, symBinAddr: 0x3C728, symSize: 0x38 }
  - { offset: 0x1D9D4F, size: 0x8, addend: 0x0, symName: __ZNKSt3__114default_deleteIN9Scintilla8Internal12SparseVectorINS_10unique_ptrIA_KcNS0_IS6_EEEEEEEclB8ne180100EPS9_, symObjAddr: 0xB1C, symBinAddr: 0x3C760, symSize: 0x70 }
  - { offset: 0x1DA14D, size: 0x8, addend: 0x0, symName: __ZNKSt3__114default_deleteIN9Scintilla8Internal9RunStylesIliEEEclB8ne180100EPS4_, symObjAddr: 0xC58, symBinAddr: 0x3C89C, symSize: 0x48 }
  - { offset: 0x1DA4BE, size: 0x8, addend: 0x0, symName: __ZNKSt3__114default_deleteIN9Scintilla8Internal9RunStylesIlcEEEclB8ne180100EPS4_, symObjAddr: 0xCA0, symBinAddr: 0x3C8E4, symSize: 0x48 }
  - { offset: 0x1DA84A, size: 0x8, addend: 0x0, symName: __ZN12_GLOBAL__N_116ContractionStateIlED0Ev, symObjAddr: 0xF8, symBinAddr: 0x3BD4C, symSize: 0x80 }
  - { offset: 0x1DAB01, size: 0x8, addend: 0x0, symName: __ZN12_GLOBAL__N_116ContractionStateIlE5ClearEv, symObjAddr: 0x178, symBinAddr: 0x3BDCC, symSize: 0x84 }
  - { offset: 0x1DACD0, size: 0x8, addend: 0x0, symName: __ZNK12_GLOBAL__N_116ContractionStateIlE10LinesInDocEv, symObjAddr: 0x1FC, symBinAddr: 0x3BE50, symSize: 0x20 }
  - { offset: 0x1DACF4, size: 0x8, addend: 0x0, symName: __ZNK12_GLOBAL__N_116ContractionStateIlE10LinesInDocEv, symObjAddr: 0x1FC, symBinAddr: 0x3BE50, symSize: 0x20 }
  - { offset: 0x1DAD0F, size: 0x8, addend: 0x0, symName: __ZNK12_GLOBAL__N_116ContractionStateIlE10LinesInDocEv, symObjAddr: 0x1FC, symBinAddr: 0x3BE50, symSize: 0x20 }
  - { offset: 0x1DAD32, size: 0x8, addend: 0x0, symName: __ZNK12_GLOBAL__N_116ContractionStateIlE10LinesInDocEv, symObjAddr: 0x1FC, symBinAddr: 0x3BE50, symSize: 0x20 }
  - { offset: 0x1DAE3B, size: 0x8, addend: 0x0, symName: __ZNK12_GLOBAL__N_116ContractionStateIlE14LinesDisplayedEv, symObjAddr: 0x21C, symBinAddr: 0x3BE70, symSize: 0x60 }
  - { offset: 0x1DAE64, size: 0x8, addend: 0x0, symName: __ZNK12_GLOBAL__N_116ContractionStateIlE14LinesDisplayedEv, symObjAddr: 0x21C, symBinAddr: 0x3BE70, symSize: 0x60 }
  - { offset: 0x1DAE7F, size: 0x8, addend: 0x0, symName: __ZNK12_GLOBAL__N_116ContractionStateIlE14LinesDisplayedEv, symObjAddr: 0x21C, symBinAddr: 0x3BE70, symSize: 0x60 }
  - { offset: 0x1DAEA2, size: 0x8, addend: 0x0, symName: __ZNK12_GLOBAL__N_116ContractionStateIlE14LinesDisplayedEv, symObjAddr: 0x21C, symBinAddr: 0x3BE70, symSize: 0x60 }
  - { offset: 0x1DAF96, size: 0x8, addend: 0x0, symName: __ZNK12_GLOBAL__N_116ContractionStateIlE14DisplayFromDocEl, symObjAddr: 0x27C, symBinAddr: 0x3BED0, symSize: 0x70 }
  - { offset: 0x1DAFCE, size: 0x8, addend: 0x0, symName: __ZNK12_GLOBAL__N_116ContractionStateIlE14DisplayFromDocEl, symObjAddr: 0x27C, symBinAddr: 0x3BED0, symSize: 0x70 }
  - { offset: 0x1DAFE9, size: 0x8, addend: 0x0, symName: __ZNK12_GLOBAL__N_116ContractionStateIlE14DisplayFromDocEl, symObjAddr: 0x27C, symBinAddr: 0x3BED0, symSize: 0x70 }
  - { offset: 0x1DB00C, size: 0x8, addend: 0x0, symName: __ZNK12_GLOBAL__N_116ContractionStateIlE14DisplayFromDocEl, symObjAddr: 0x27C, symBinAddr: 0x3BED0, symSize: 0x70 }
  - { offset: 0x1DB126, size: 0x8, addend: 0x0, symName: __ZNK12_GLOBAL__N_116ContractionStateIlE18DisplayLastFromDocEl, symObjAddr: 0x2EC, symBinAddr: 0x3BF40, symSize: 0x58 }
  - { offset: 0x1DB21A, size: 0x8, addend: 0x0, symName: __ZNK12_GLOBAL__N_116ContractionStateIlE14DocFromDisplayEl, symObjAddr: 0x344, symBinAddr: 0x3BF98, symSize: 0x54 }
  - { offset: 0x1DB2F7, size: 0x8, addend: 0x0, symName: __ZNK9Scintilla8Internal12PartitioningIlE21PartitionFromPositionEl, symObjAddr: 0xCE8, symBinAddr: 0x3C92C, symSize: 0xE4 }
  - { offset: 0x1DB4C0, size: 0x8, addend: 0x0, symName: __ZN12_GLOBAL__N_116ContractionStateIlE11InsertLinesEll, symObjAddr: 0x398, symBinAddr: 0x3BFEC, symSize: 0x124 }
  - { offset: 0x1DB780, size: 0x8, addend: 0x0, symName: __ZN9Scintilla8Internal12SparseVectorINSt3__110unique_ptrIA_KcNS2_14default_deleteIS5_EEEEE11InsertSpaceEll, symObjAddr: 0xDCC, symBinAddr: 0x3CA10, symSize: 0x118 }
  - { offset: 0x1DB987, size: 0x8, addend: 0x0, symName: __ZN9Scintilla8Internal12SparseVectorINSt3__110unique_ptrIA_KcNS2_14default_deleteIS5_EEEEE10SetValueAtIDnEEvlOT_, symObjAddr: 0xEE4, symBinAddr: 0x3CB28, symSize: 0x11C }
  - { offset: 0x1DBBDD, size: 0x8, addend: 0x0, symName: __ZN9Scintilla8Internal12PartitioningIlE15InsertPartitionEll, symObjAddr: 0x1000, symBinAddr: 0x3CC44, symSize: 0x60 }
  - { offset: 0x1DBC5B, size: 0x8, addend: 0x0, symName: __ZN9Scintilla8Internal12PartitioningIlE10InsertTextEll, symObjAddr: 0x1060, symBinAddr: 0x3CCA4, symSize: 0x9C }
  - { offset: 0x1DBD4F, size: 0x8, addend: 0x0, symName: __ZN12_GLOBAL__N_116ContractionStateIlE11DeleteLinesEll, symObjAddr: 0x4BC, symBinAddr: 0x3C110, symSize: 0xE8 }
  - { offset: 0x1DBFBA, size: 0x8, addend: 0x0, symName: __ZNK12_GLOBAL__N_116ContractionStateIlE10GetVisibleEl, symObjAddr: 0x5A4, symBinAddr: 0x3C1F8, symSize: 0x50 }
  - { offset: 0x1DC063, size: 0x8, addend: 0x0, symName: __ZN9Scintilla8Internal12PartitioningIlE15RemovePartitionEl, symObjAddr: 0x1944, symBinAddr: 0x3D4EC, symSize: 0x50 }
  - { offset: 0x1DC0ED, size: 0x8, addend: 0x0, symName: __ZN9Scintilla8Internal12SparseVectorINSt3__110unique_ptrIA_KcNS2_14default_deleteIS5_EEEEE14DeletePositionEl, symObjAddr: 0x2220, symBinAddr: 0x3DD80, symSize: 0x198 }
  - { offset: 0x1DC38F, size: 0x8, addend: 0x0, symName: __ZN12_GLOBAL__N_116ContractionStateIlE10SetVisibleEllb, symObjAddr: 0x5F4, symBinAddr: 0x3C248, symSize: 0x124 }
  - { offset: 0x1DC600, size: 0x8, addend: 0x0, symName: __ZN12_GLOBAL__N_116ContractionStateIlE10EnsureDataEv, symObjAddr: 0x23B8, symBinAddr: 0x3DF18, symSize: 0x128 }
  - { offset: 0x1DC913, size: 0x8, addend: 0x0, symName: __ZNK12_GLOBAL__N_116ContractionStateIlE11HiddenLinesEv, symObjAddr: 0x718, symBinAddr: 0x3C36C, symSize: 0x24 }
  - { offset: 0x1DC9AF, size: 0x8, addend: 0x0, symName: __ZNK12_GLOBAL__N_116ContractionStateIlE18GetFoldDisplayTextEl, symObjAddr: 0x73C, symBinAddr: 0x3C390, symSize: 0x1C }
  - { offset: 0x1DCA37, size: 0x8, addend: 0x0, symName: __ZNK9Scintilla8Internal12SparseVectorINSt3__110unique_ptrIA_KcNS2_14default_deleteIS5_EEEEE7ValueAtEl, symObjAddr: 0x26DC, symBinAddr: 0x3E23C, symSize: 0xBC }
  - { offset: 0x1DCCEB, size: 0x8, addend: 0x0, symName: __ZN12_GLOBAL__N_116ContractionStateIlE18SetFoldDisplayTextElPKc, symObjAddr: 0x758, symBinAddr: 0x3C3AC, symSize: 0xC0 }
  - { offset: 0x1DCFFB, size: 0x8, addend: 0x0, symName: __ZN9Scintilla8Internal12SparseVectorINSt3__110unique_ptrIA_KcNS2_14default_deleteIS5_EEEEE10SetValueAtIS8_EEvlOT_, symObjAddr: 0x2798, symBinAddr: 0x3E2F8, symSize: 0x1CC }
  - { offset: 0x1DD4E6, size: 0x8, addend: 0x0, symName: __ZNK12_GLOBAL__N_116ContractionStateIlE11GetExpandedEl, symObjAddr: 0x818, symBinAddr: 0x3C46C, symSize: 0x30 }
  - { offset: 0x1DD59C, size: 0x8, addend: 0x0, symName: __ZN12_GLOBAL__N_116ContractionStateIlE11SetExpandedElb, symObjAddr: 0x848, symBinAddr: 0x3C49C, symSize: 0x78 }
  - { offset: 0x1DD68B, size: 0x8, addend: 0x0, symName: __ZN12_GLOBAL__N_116ContractionStateIlE9ExpandAllEv, symObjAddr: 0x8C0, symBinAddr: 0x3C514, symSize: 0x60 }
  - { offset: 0x1DD781, size: 0x8, addend: 0x0, symName: __ZNK12_GLOBAL__N_116ContractionStateIlE14ContractedNextEl, symObjAddr: 0x920, symBinAddr: 0x3C574, symSize: 0x70 }
  - { offset: 0x1DD92F, size: 0x8, addend: 0x0, symName: __ZNK12_GLOBAL__N_116ContractionStateIlE9GetHeightEl, symObjAddr: 0x990, symBinAddr: 0x3C5E4, symSize: 0x18 }
  - { offset: 0x1DD95A, size: 0x8, addend: 0x0, symName: __ZNK12_GLOBAL__N_116ContractionStateIlE9GetHeightEl, symObjAddr: 0x990, symBinAddr: 0x3C5E4, symSize: 0x18 }
  - { offset: 0x1DD976, size: 0x8, addend: 0x0, symName: __ZNK12_GLOBAL__N_116ContractionStateIlE9GetHeightEl, symObjAddr: 0x990, symBinAddr: 0x3C5E4, symSize: 0x18 }
  - { offset: 0x1DD999, size: 0x8, addend: 0x0, symName: __ZNK12_GLOBAL__N_116ContractionStateIlE9GetHeightEl, symObjAddr: 0x990, symBinAddr: 0x3C5E4, symSize: 0x18 }
  - { offset: 0x1DD9D7, size: 0x8, addend: 0x0, symName: __ZN12_GLOBAL__N_116ContractionStateIlE9SetHeightEli, symObjAddr: 0x9A8, symBinAddr: 0x3C5FC, symSize: 0xE8 }
  - { offset: 0x1DDC9A, size: 0x8, addend: 0x0, symName: __ZN12_GLOBAL__N_116ContractionStateIlE7ShowAllEv, symObjAddr: 0xA90, symBinAddr: 0x3C6E4, symSize: 0x44 }
  - { offset: 0x1DE013, size: 0x8, addend: 0x0, symName: __ZNSt3__16vectorINS_10unique_ptrIA_KcNS_14default_deleteIS3_EEEENS_9allocatorIS6_EEE16__destroy_vectorclB8ne180100Ev, symObjAddr: 0xBD0, symBinAddr: 0x3C814, symSize: 0x40 }
  - { offset: 0x1DE0DC, size: 0x8, addend: 0x0, symName: __ZN9Scintilla8Internal11SplitVectorINSt3__110unique_ptrIA_KcNS2_14default_deleteIS5_EEEEED1Ev, symObjAddr: 0xB8C, symBinAddr: 0x3C7D0, symSize: 0x44 }
  - { offset: 0x1DE29D, size: 0x8, addend: 0x0, symName: __ZNSt3__16vectorINS_10unique_ptrIA_KcNS_14default_deleteIS3_EEEENS_9allocatorIS6_EEE7__clearB8ne180100Ev, symObjAddr: 0xC10, symBinAddr: 0x3C854, symSize: 0x48 }
  - { offset: 0x1DE74A, size: 0x8, addend: 0x0, symName: __ZN9Scintilla8Internal11SplitVectorINSt3__110unique_ptrIA_KcNS2_14default_deleteIS5_EEEEE11InsertEmptyEll, symObjAddr: 0x10FC, symBinAddr: 0x3CD40, symSize: 0xB4 }
  - { offset: 0x1DE8F3, size: 0x8, addend: 0x0, symName: __ZNK9Scintilla8Internal12SparseVectorINSt3__110unique_ptrIA_KcNS2_14default_deleteIS5_EEEEE19ElementFromPositionEl, symObjAddr: 0x18B0, symBinAddr: 0x3D458, symSize: 0x5C }
  - { offset: 0x1DE928, size: 0x8, addend: 0x0, symName: __ZNK9Scintilla8Internal12SparseVectorINSt3__110unique_ptrIA_KcNS2_14default_deleteIS5_EEEEE19ElementFromPositionEl, symObjAddr: 0x18B0, symBinAddr: 0x3D458, symSize: 0x5C }
  - { offset: 0x1DE943, size: 0x8, addend: 0x0, symName: __ZNK9Scintilla8Internal12SparseVectorINSt3__110unique_ptrIA_KcNS2_14default_deleteIS5_EEEEE19ElementFromPositionEl, symObjAddr: 0x18B0, symBinAddr: 0x3D458, symSize: 0x5C }
  - { offset: 0x1DE95E, size: 0x8, addend: 0x0, symName: __ZNK9Scintilla8Internal12SparseVectorINSt3__110unique_ptrIA_KcNS2_14default_deleteIS5_EEEEE19ElementFromPositionEl, symObjAddr: 0x18B0, symBinAddr: 0x3D458, symSize: 0x5C }
  - { offset: 0x1DE979, size: 0x8, addend: 0x0, symName: __ZNK9Scintilla8Internal12SparseVectorINSt3__110unique_ptrIA_KcNS2_14default_deleteIS5_EEEEE19ElementFromPositionEl, symObjAddr: 0x18B0, symBinAddr: 0x3D458, symSize: 0x5C }
  - { offset: 0x1DEA16, size: 0x8, addend: 0x0, symName: __ZN9Scintilla8Internal12SparseVectorINSt3__110unique_ptrIA_KcNS2_14default_deleteIS5_EEEEE10ClearValueEl, symObjAddr: 0x190C, symBinAddr: 0x3D4B4, symSize: 0x38 }
  - { offset: 0x1DEB90, size: 0x8, addend: 0x0, symName: __ZN9Scintilla8Internal11SplitVectorINSt3__110unique_ptrIA_KcNS2_14default_deleteIS5_EEEEE11DeleteRangeEll, symObjAddr: 0x1D74, symBinAddr: 0x3D8E8, symSize: 0x98 }
  - { offset: 0x1DEC4D, size: 0x8, addend: 0x0, symName: __ZN9Scintilla8Internal12PartitioningIlE9ApplyStepEl, symObjAddr: 0x1A88, symBinAddr: 0x3D630, symSize: 0x54 }
  - { offset: 0x1DECD6, size: 0x8, addend: 0x0, symName: __ZN9Scintilla8Internal11SplitVectorIlE6InsertEll, symObjAddr: 0x1EB8, symBinAddr: 0x3DA2C, symSize: 0x80 }
  - { offset: 0x1DED70, size: 0x8, addend: 0x0, symName: __ZN9Scintilla8Internal12PartitioningIlE8BackStepEl, symObjAddr: 0x21DC, symBinAddr: 0x3DD3C, symSize: 0x44 }
  - { offset: 0x1DEE51, size: 0x8, addend: 0x0, symName: __ZN9Scintilla8Internal11SplitVectorINSt3__110unique_ptrIA_KcNS2_14default_deleteIS5_EEEEE7RoomForEl, symObjAddr: 0x11B0, symBinAddr: 0x3CDF4, symSize: 0x54 }
  - { offset: 0x1DEE92, size: 0x8, addend: 0x0, symName: __ZN9Scintilla8Internal11SplitVectorINSt3__110unique_ptrIA_KcNS2_14default_deleteIS5_EEEEE5GapToEl, symObjAddr: 0x1204, symBinAddr: 0x3CE48, symSize: 0x80 }
  - { offset: 0x1DF003, size: 0x8, addend: 0x0, symName: __ZN9Scintilla8Internal11SplitVectorINSt3__110unique_ptrIA_KcNS2_14default_deleteIS5_EEEEE10ReAllocateEm, symObjAddr: 0x1284, symBinAddr: 0x3CEC8, symSize: 0x70 }
  - { offset: 0x1DF0D2, size: 0x8, addend: 0x0, symName: __ZNSt3__16vectorINS_10unique_ptrIA_KcNS_14default_deleteIS3_EEEENS_9allocatorIS6_EEE7reserveEm, symObjAddr: 0x12F4, symBinAddr: 0x3CF38, symSize: 0x90 }
  - { offset: 0x1DF289, size: 0x8, addend: 0x0, symName: __ZNSt3__16vectorINS_10unique_ptrIA_KcNS_14default_deleteIS3_EEEENS_9allocatorIS6_EEE6resizeEm, symObjAddr: 0x1384, symBinAddr: 0x3CFC8, symSize: 0x7C }
  - { offset: 0x1DF59A, size: 0x8, addend: 0x0, symName: __ZNSt3__114__split_bufferINS_10unique_ptrIA_KcNS_14default_deleteIS3_EEEERNS_9allocatorIS6_EEED2Ev, symObjAddr: 0x1664, symBinAddr: 0x3D20C, symSize: 0x34 }
  - { offset: 0x1DF68E, size: 0x8, addend: 0x0, symName: __ZNKSt3__16vectorINS_10unique_ptrIA_KcNS_14default_deleteIS3_EEEENS_9allocatorIS6_EEE20__throw_length_errorB8ne180100Ev, symObjAddr: 0x1400, symBinAddr: 0x3D044, symSize: 0x14 }
  - { offset: 0x1DF6B6, size: 0x8, addend: 0x0, symName: __ZNSt3__16vectorINS_10unique_ptrIA_KcNS_14default_deleteIS3_EEEENS_9allocatorIS6_EEE26__swap_out_circular_bufferERNS_14__split_bufferIS6_RS8_EE, symObjAddr: 0x1414, symBinAddr: 0x3D058, symSize: 0x74 }
  - { offset: 0x1DF6ED, size: 0x8, addend: 0x0, symName: __ZNSt3__16vectorINS_10unique_ptrIA_KcNS_14default_deleteIS3_EEEENS_9allocatorIS6_EEE8__appendEm, symObjAddr: 0x16E8, symBinAddr: 0x3D290, symSize: 0x100 }
  - { offset: 0x1DFDCE, size: 0x8, addend: 0x0, symName: __ZNSt3__128__exception_guard_exceptionsINS_29_AllocatorDestroyRangeReverseINS_9allocatorINS_10unique_ptrIA_KcNS_14default_deleteIS5_EEEEEENS_16reverse_iteratorIPS8_EEEEED2B8ne180100Ev, symObjAddr: 0x15EC, symBinAddr: 0x3D194, symSize: 0x34 }
  - { offset: 0x1DFE0C, size: 0x8, addend: 0x0, symName: __ZNKSt3__129_AllocatorDestroyRangeReverseINS_9allocatorINS_10unique_ptrIA_KcNS_14default_deleteIS4_EEEEEENS_16reverse_iteratorIPS7_EEEclB8ne180100Ev, symObjAddr: 0x1620, symBinAddr: 0x3D1C8, symSize: 0x44 }
  - { offset: 0x1DFF77, size: 0x8, addend: 0x0, symName: __ZNSt3__114__split_bufferINS_10unique_ptrIA_KcNS_14default_deleteIS3_EEEERNS_9allocatorIS6_EEE17__destruct_at_endB8ne180100EPS6_, symObjAddr: 0x1698, symBinAddr: 0x3D240, symSize: 0x50 }
  - { offset: 0x1E030C, size: 0x8, addend: 0x0, symName: __ZN9Scintilla8Internal11SplitVectorINSt3__110unique_ptrIA_KcNS2_14default_deleteIS5_EEEEE10SetValueAtIS8_EEvlOT_, symObjAddr: 0x1A28, symBinAddr: 0x3D5D0, symSize: 0x60 }
  - { offset: 0x1E04CF, size: 0x8, addend: 0x0, symName: __ZN9Scintilla8Internal11SplitVectorIlE11DeleteRangeEll, symObjAddr: 0x1B78, symBinAddr: 0x3D720, symSize: 0x98 }
  - { offset: 0x1E05D6, size: 0x8, addend: 0x0, symName: __ZN9Scintilla8Internal11SplitVectorINSt3__110unique_ptrIA_KcNS2_14default_deleteIS5_EEEEE6InsertElS8_, symObjAddr: 0x1994, symBinAddr: 0x3D53C, symSize: 0x94 }
  - { offset: 0x1E06F7, size: 0x8, addend: 0x0, symName: __ZN9Scintilla8Internal12PartitioningIlE13RangeAddDeltaElll, symObjAddr: 0x1ADC, symBinAddr: 0x3D684, symSize: 0x9C }
  - { offset: 0x1E08D0, size: 0x8, addend: 0x0, symName: __ZNSt3__16vectorIlNS_9allocatorIlEEE13shrink_to_fitEv, symObjAddr: 0x1C8C, symBinAddr: 0x3D834, symSize: 0xB4 }
  - { offset: 0x1E0B6A, size: 0x8, addend: 0x0, symName: __ZN9Scintilla8Internal11SplitVectorIlE5GapToEl, symObjAddr: 0x1C10, symBinAddr: 0x3D7B8, symSize: 0x7C }
  - { offset: 0x1E10A9, size: 0x8, addend: 0x0, symName: __ZNSt3__16vectorINS_10unique_ptrIA_KcNS_14default_deleteIS3_EEEENS_9allocatorIS6_EEE13shrink_to_fitEv, symObjAddr: 0x1E0C, symBinAddr: 0x3D980, symSize: 0xAC }
  - { offset: 0x1E129F, size: 0x8, addend: 0x0, symName: __ZN9Scintilla8Internal11SplitVectorIlE7RoomForEl, symObjAddr: 0x1F38, symBinAddr: 0x3DAAC, symSize: 0x54 }
  - { offset: 0x1E12E0, size: 0x8, addend: 0x0, symName: __ZN9Scintilla8Internal11SplitVectorIlE10ReAllocateEm, symObjAddr: 0x1F8C, symBinAddr: 0x3DB00, symSize: 0x70 }
  - { offset: 0x1E1382, size: 0x8, addend: 0x0, symName: __ZNSt3__16vectorIlNS_9allocatorIlEEE7reserveEm, symObjAddr: 0x1FFC, symBinAddr: 0x3DB70, symSize: 0x94 }
  - { offset: 0x1E1633, size: 0x8, addend: 0x0, symName: __ZNSt3__16vectorIlNS_9allocatorIlEEE6resizeEm, symObjAddr: 0x2090, symBinAddr: 0x3DC04, symSize: 0x30 }
  - { offset: 0x1E1645, size: 0x8, addend: 0x0, symName: __ZNSt3__16vectorIlNS_9allocatorIlEEE6resizeEm, symObjAddr: 0x2090, symBinAddr: 0x3DC04, symSize: 0x30 }
  - { offset: 0x1E168F, size: 0x8, addend: 0x0, symName: __ZNSt3__16vectorIlNS_9allocatorIlEEE6resizeEm, symObjAddr: 0x2090, symBinAddr: 0x3DC04, symSize: 0x30 }
  - { offset: 0x1E1716, size: 0x8, addend: 0x0, symName: __ZNSt3__16vectorIlNS_9allocatorIlEEE8__appendEm, symObjAddr: 0x20D4, symBinAddr: 0x3DC34, symSize: 0x108 }
  - { offset: 0x1E174D, size: 0x8, addend: 0x0, symName: __ZNSt3__16vectorIlNS_9allocatorIlEEE8__appendEm, symObjAddr: 0x20D4, symBinAddr: 0x3DC34, symSize: 0x108 }
  - { offset: 0x1E1B33, size: 0x8, addend: 0x0, symName: __ZN9Scintilla8Internal12PartitioningIlE8BackStepEl, symObjAddr: 0x21DC, symBinAddr: 0x3DD3C, symSize: 0x44 }
  - { offset: 0x1E1D6E, size: 0x8, addend: 0x0, symName: __ZN9Scintilla8Internal12SparseVectorINSt3__110unique_ptrIA_KcNS2_14default_deleteIS5_EEEEEC2Ev, symObjAddr: 0x24E0, symBinAddr: 0x3E040, symSize: 0x148 }
  - { offset: 0x1E26C4, size: 0x8, addend: 0x0, symName: __ZN9Scintilla8Internal12PartitioningIlEC2Em, symObjAddr: 0x2628, symBinAddr: 0x3E188, symSize: 0x7C }
  - { offset: 0x1E29EE, size: 0x8, addend: 0x0, symName: __ZNSt3__16vectorINS_10unique_ptrIA_KcNS_14default_deleteIS3_EEEENS_9allocatorIS6_EEE13__vdeallocateEv, symObjAddr: 0x26A4, symBinAddr: 0x3E204, symSize: 0x38 }
  - { offset: 0x1E2C27, size: 0x8, addend: 0x0, symName: __ZN12_GLOBAL__N_116ContractionStateIiED1Ev, symObjAddr: 0x2964, symBinAddr: 0x3E4C4, symSize: 0x80 }
  - { offset: 0x1E2EB8, size: 0x8, addend: 0x0, symName: __ZNKSt3__114default_deleteIN9Scintilla8Internal12PartitioningIiEEEclB8ne180100EPS4_, symObjAddr: 0x33F0, symBinAddr: 0x3EF50, symSize: 0x38 }
  - { offset: 0x1E3089, size: 0x8, addend: 0x0, symName: __ZNKSt3__114default_deleteIN9Scintilla8Internal9RunStylesIiiEEEclB8ne180100EPS4_, symObjAddr: 0x3428, symBinAddr: 0x3EF88, symSize: 0x48 }
  - { offset: 0x1E33FA, size: 0x8, addend: 0x0, symName: __ZNKSt3__114default_deleteIN9Scintilla8Internal9RunStylesIicEEEclB8ne180100EPS4_, symObjAddr: 0x3470, symBinAddr: 0x3EFD0, symSize: 0x48 }
  - { offset: 0x1E3786, size: 0x8, addend: 0x0, symName: __ZN12_GLOBAL__N_116ContractionStateIiED0Ev, symObjAddr: 0x29E4, symBinAddr: 0x3E544, symSize: 0x80 }
  - { offset: 0x1E3A3D, size: 0x8, addend: 0x0, symName: __ZN12_GLOBAL__N_116ContractionStateIiE5ClearEv, symObjAddr: 0x2A64, symBinAddr: 0x3E5C4, symSize: 0x84 }
  - { offset: 0x1E3C0C, size: 0x8, addend: 0x0, symName: __ZNK12_GLOBAL__N_116ContractionStateIiE10LinesInDocEv, symObjAddr: 0x2AE8, symBinAddr: 0x3E648, symSize: 0x24 }
  - { offset: 0x1E3C30, size: 0x8, addend: 0x0, symName: __ZNK12_GLOBAL__N_116ContractionStateIiE10LinesInDocEv, symObjAddr: 0x2AE8, symBinAddr: 0x3E648, symSize: 0x24 }
  - { offset: 0x1E3C4B, size: 0x8, addend: 0x0, symName: __ZNK12_GLOBAL__N_116ContractionStateIiE10LinesInDocEv, symObjAddr: 0x2AE8, symBinAddr: 0x3E648, symSize: 0x24 }
  - { offset: 0x1E3C6E, size: 0x8, addend: 0x0, symName: __ZNK12_GLOBAL__N_116ContractionStateIiE10LinesInDocEv, symObjAddr: 0x2AE8, symBinAddr: 0x3E648, symSize: 0x24 }
  - { offset: 0x1E3D77, size: 0x8, addend: 0x0, symName: __ZNK12_GLOBAL__N_116ContractionStateIiE14LinesDisplayedEv, symObjAddr: 0x2B0C, symBinAddr: 0x3E66C, symSize: 0x70 }
  - { offset: 0x1E3DA0, size: 0x8, addend: 0x0, symName: __ZNK12_GLOBAL__N_116ContractionStateIiE14LinesDisplayedEv, symObjAddr: 0x2B0C, symBinAddr: 0x3E66C, symSize: 0x70 }
  - { offset: 0x1E3DBB, size: 0x8, addend: 0x0, symName: __ZNK12_GLOBAL__N_116ContractionStateIiE14LinesDisplayedEv, symObjAddr: 0x2B0C, symBinAddr: 0x3E66C, symSize: 0x70 }
  - { offset: 0x1E3DDE, size: 0x8, addend: 0x0, symName: __ZNK12_GLOBAL__N_116ContractionStateIiE14LinesDisplayedEv, symObjAddr: 0x2B0C, symBinAddr: 0x3E66C, symSize: 0x70 }
  - { offset: 0x1E3ED0, size: 0x8, addend: 0x0, symName: __ZNK12_GLOBAL__N_116ContractionStateIiE14DisplayFromDocEl, symObjAddr: 0x2B7C, symBinAddr: 0x3E6DC, symSize: 0x80 }
  - { offset: 0x1E3F08, size: 0x8, addend: 0x0, symName: __ZNK12_GLOBAL__N_116ContractionStateIiE14DisplayFromDocEl, symObjAddr: 0x2B7C, symBinAddr: 0x3E6DC, symSize: 0x80 }
  - { offset: 0x1E3F23, size: 0x8, addend: 0x0, symName: __ZNK12_GLOBAL__N_116ContractionStateIiE14DisplayFromDocEl, symObjAddr: 0x2B7C, symBinAddr: 0x3E6DC, symSize: 0x80 }
  - { offset: 0x1E3F46, size: 0x8, addend: 0x0, symName: __ZNK12_GLOBAL__N_116ContractionStateIiE14DisplayFromDocEl, symObjAddr: 0x2B7C, symBinAddr: 0x3E6DC, symSize: 0x80 }
  - { offset: 0x1E406C, size: 0x8, addend: 0x0, symName: __ZNK12_GLOBAL__N_116ContractionStateIiE18DisplayLastFromDocEl, symObjAddr: 0x2BFC, symBinAddr: 0x3E75C, symSize: 0x58 }
  - { offset: 0x1E4160, size: 0x8, addend: 0x0, symName: __ZNK12_GLOBAL__N_116ContractionStateIiE14DocFromDisplayEl, symObjAddr: 0x2C54, symBinAddr: 0x3E7B4, symSize: 0x54 }
  - { offset: 0x1E423C, size: 0x8, addend: 0x0, symName: __ZNK9Scintilla8Internal12PartitioningIiE21PartitionFromPositionEi, symObjAddr: 0x34B8, symBinAddr: 0x3F018, symSize: 0x108 }
  - { offset: 0x1E428F, size: 0x8, addend: 0x0, symName: __ZNK9Scintilla8Internal12PartitioningIiE21PartitionFromPositionEi, symObjAddr: 0x34B8, symBinAddr: 0x3F018, symSize: 0x108 }
  - { offset: 0x1E43D5, size: 0x8, addend: 0x0, symName: __ZN12_GLOBAL__N_116ContractionStateIiE11InsertLinesEll, symObjAddr: 0x2CA8, symBinAddr: 0x3E808, symSize: 0x13C }
  - { offset: 0x1E4695, size: 0x8, addend: 0x0, symName: __ZN9Scintilla8Internal12PartitioningIiE15InsertPartitionEii, symObjAddr: 0x35C0, symBinAddr: 0x3F120, symSize: 0x60 }
  - { offset: 0x1E470D, size: 0x8, addend: 0x0, symName: __ZN9Scintilla8Internal12PartitioningIiE10InsertTextEii, symObjAddr: 0x3620, symBinAddr: 0x3F180, symSize: 0x9C }
  - { offset: 0x1E4801, size: 0x8, addend: 0x0, symName: __ZN12_GLOBAL__N_116ContractionStateIiE11DeleteLinesEll, symObjAddr: 0x2DE4, symBinAddr: 0x3E944, symSize: 0xF0 }
  - { offset: 0x1E4A6C, size: 0x8, addend: 0x0, symName: __ZNK12_GLOBAL__N_116ContractionStateIiE10GetVisibleEl, symObjAddr: 0x2ED4, symBinAddr: 0x3EA34, symSize: 0x54 }
  - { offset: 0x1E4B15, size: 0x8, addend: 0x0, symName: __ZN9Scintilla8Internal12PartitioningIiE15RemovePartitionEi, symObjAddr: 0x3BC8, symBinAddr: 0x3F64C, symSize: 0x50 }
  - { offset: 0x1E4B9D, size: 0x8, addend: 0x0, symName: __ZN12_GLOBAL__N_116ContractionStateIiE10SetVisibleEllb, symObjAddr: 0x2F28, symBinAddr: 0x3EA88, symSize: 0x11C }
  - { offset: 0x1E4E0E, size: 0x8, addend: 0x0, symName: __ZN12_GLOBAL__N_116ContractionStateIiE10EnsureDataEv, symObjAddr: 0x3D64, symBinAddr: 0x3F7E8, symSize: 0x128 }
  - { offset: 0x1E5121, size: 0x8, addend: 0x0, symName: __ZNK12_GLOBAL__N_116ContractionStateIiE11HiddenLinesEv, symObjAddr: 0x3044, symBinAddr: 0x3EBA4, symSize: 0x24 }
  - { offset: 0x1E51A9, size: 0x8, addend: 0x0, symName: __ZNK12_GLOBAL__N_116ContractionStateIiE18GetFoldDisplayTextEl, symObjAddr: 0x3068, symBinAddr: 0x3EBC8, symSize: 0x1C }
  - { offset: 0x1E5231, size: 0x8, addend: 0x0, symName: __ZN12_GLOBAL__N_116ContractionStateIiE18SetFoldDisplayTextElPKc, symObjAddr: 0x3084, symBinAddr: 0x3EBE4, symSize: 0xC0 }
  - { offset: 0x1E552A, size: 0x8, addend: 0x0, symName: __ZNK12_GLOBAL__N_116ContractionStateIiE11GetExpandedEl, symObjAddr: 0x3144, symBinAddr: 0x3ECA4, symSize: 0x30 }
  - { offset: 0x1E55E0, size: 0x8, addend: 0x0, symName: __ZN12_GLOBAL__N_116ContractionStateIiE11SetExpandedElb, symObjAddr: 0x3174, symBinAddr: 0x3ECD4, symSize: 0x78 }
  - { offset: 0x1E56CF, size: 0x8, addend: 0x0, symName: __ZN12_GLOBAL__N_116ContractionStateIiE9ExpandAllEv, symObjAddr: 0x31EC, symBinAddr: 0x3ED4C, symSize: 0x4C }
  - { offset: 0x1E57C0, size: 0x8, addend: 0x0, symName: __ZNK12_GLOBAL__N_116ContractionStateIiE14ContractedNextEl, symObjAddr: 0x3238, symBinAddr: 0x3ED98, symSize: 0x74 }
  - { offset: 0x1E596E, size: 0x8, addend: 0x0, symName: __ZNK12_GLOBAL__N_116ContractionStateIiE9GetHeightEl, symObjAddr: 0x32AC, symBinAddr: 0x3EE0C, symSize: 0x18 }
  - { offset: 0x1E5999, size: 0x8, addend: 0x0, symName: __ZNK12_GLOBAL__N_116ContractionStateIiE9GetHeightEl, symObjAddr: 0x32AC, symBinAddr: 0x3EE0C, symSize: 0x18 }
  - { offset: 0x1E59B5, size: 0x8, addend: 0x0, symName: __ZNK12_GLOBAL__N_116ContractionStateIiE9GetHeightEl, symObjAddr: 0x32AC, symBinAddr: 0x3EE0C, symSize: 0x18 }
  - { offset: 0x1E59D8, size: 0x8, addend: 0x0, symName: __ZNK12_GLOBAL__N_116ContractionStateIiE9GetHeightEl, symObjAddr: 0x32AC, symBinAddr: 0x3EE0C, symSize: 0x18 }
  - { offset: 0x1E5A16, size: 0x8, addend: 0x0, symName: __ZN12_GLOBAL__N_116ContractionStateIiE9SetHeightEli, symObjAddr: 0x32C4, symBinAddr: 0x3EE24, symSize: 0xE8 }
  - { offset: 0x1E5CD2, size: 0x8, addend: 0x0, symName: __ZN12_GLOBAL__N_116ContractionStateIiE7ShowAllEv, symObjAddr: 0x33AC, symBinAddr: 0x3EF0C, symSize: 0x44 }
  - { offset: 0x1E5E95, size: 0x8, addend: 0x0, symName: __ZN9Scintilla8Internal12PartitioningIiE9ApplyStepEi, symObjAddr: 0x36BC, symBinAddr: 0x3F21C, symSize: 0x54 }
  - { offset: 0x1E5F1E, size: 0x8, addend: 0x0, symName: __ZN9Scintilla8Internal11SplitVectorIiE6InsertEli, symObjAddr: 0x3710, symBinAddr: 0x3F270, symSize: 0x80 }
  - { offset: 0x1E5FA9, size: 0x8, addend: 0x0, symName: __ZN9Scintilla8Internal12PartitioningIiE8BackStepEi, symObjAddr: 0x3B84, symBinAddr: 0x3F608, symSize: 0x44 }
  - { offset: 0x1E5FF8, size: 0x8, addend: 0x0, symName: __ZN9Scintilla8Internal12PartitioningIiE13RangeAddDeltaEiii, symObjAddr: 0x3790, symBinAddr: 0x3F2F0, symSize: 0xA0 }
  - { offset: 0x1E615F, size: 0x8, addend: 0x0, symName: __ZN9Scintilla8Internal11SplitVectorIiE7RoomForEl, symObjAddr: 0x3830, symBinAddr: 0x3F390, symSize: 0x54 }
  - { offset: 0x1E61A0, size: 0x8, addend: 0x0, symName: __ZN9Scintilla8Internal11SplitVectorIiE5GapToEl, symObjAddr: 0x3884, symBinAddr: 0x3F3E4, symSize: 0x7C }
  - { offset: 0x1E6479, size: 0x8, addend: 0x0, symName: __ZN9Scintilla8Internal11SplitVectorIiE10ReAllocateEm, symObjAddr: 0x3900, symBinAddr: 0x3F460, symSize: 0x70 }
  - { offset: 0x1E6769, size: 0x8, addend: 0x0, symName: __ZNSt3__16vectorIiNS_9allocatorIiEEE6resizeEm, symObjAddr: 0x3A04, symBinAddr: 0x3F4D0, symSize: 0x30 }
  - { offset: 0x1E677A, size: 0x8, addend: 0x0, symName: __ZNSt3__16vectorIiNS_9allocatorIiEEE6resizeEm, symObjAddr: 0x3A04, symBinAddr: 0x3F4D0, symSize: 0x30 }
  - { offset: 0x1E67C4, size: 0x8, addend: 0x0, symName: __ZNSt3__16vectorIiNS_9allocatorIiEEE6resizeEm, symObjAddr: 0x3A04, symBinAddr: 0x3F4D0, symSize: 0x30 }
  - { offset: 0x1E69CA, size: 0x8, addend: 0x0, symName: __ZNSt3__16vectorIiNS_9allocatorIiEEE8__appendEm, symObjAddr: 0x3A7C, symBinAddr: 0x3F500, symSize: 0x108 }
  - { offset: 0x1E6DB0, size: 0x8, addend: 0x0, symName: __ZN9Scintilla8Internal12PartitioningIiE8BackStepEi, symObjAddr: 0x3B84, symBinAddr: 0x3F608, symSize: 0x44 }
  - { offset: 0x1E6F61, size: 0x8, addend: 0x0, symName: __ZN9Scintilla8Internal11SplitVectorIiE11DeleteRangeEll, symObjAddr: 0x3C18, symBinAddr: 0x3F69C, symSize: 0x98 }
  - { offset: 0x1E709C, size: 0x8, addend: 0x0, symName: __ZNSt3__16vectorIiNS_9allocatorIiEEE13shrink_to_fitEv, symObjAddr: 0x3CB0, symBinAddr: 0x3F734, symSize: 0xB4 }
  - { offset: 0x1E73B7, size: 0x8, addend: 0x0, symName: __ZN9Scintilla8Internal12PartitioningIiEC2Em, symObjAddr: 0x3E8C, symBinAddr: 0x3F910, symSize: 0x7C }
  - { offset: 0x1E94FD, size: 0x8, addend: 0x0, symName: __ZNK9Scintilla8Internal5Chunk6LengthEv, symObjAddr: 0x0, symBinAddr: 0x3F98C, symSize: 0xC }
  - { offset: 0x1EDADF, size: 0x8, addend: 0x0, symName: __ZNSt3__119__allocate_at_leastB8ne180100INS_9allocatorImEEEENS_19__allocation_resultINS_16allocator_traitsIT_E7pointerEEERS5_m, symObjAddr: 0xF84, symBinAddr: 0x408C0, symSize: 0x34 }
  - { offset: 0x1EDB8F, size: 0x8, addend: 0x0, symName: __ZNSt3__120__throw_out_of_rangeB8ne180100EPKc, symObjAddr: 0xDF8, symBinAddr: 0x40784, symSize: 0x50 }
  - { offset: 0x1EEF83, size: 0x8, addend: 0x0, symName: __ZNK9Scintilla8Internal5Chunk6LengthEv, symObjAddr: 0x0, symBinAddr: 0x3F98C, symSize: 0xC }
  - { offset: 0x1EF0CF, size: 0x8, addend: 0x0, symName: __ZN9Scintilla8Internal7CallTipC2Ev, symObjAddr: 0xC, symBinAddr: 0x3F998, symSize: 0x80 }
  - { offset: 0x1EF0FB, size: 0x8, addend: 0x0, symName: __ZN9Scintilla8Internal7CallTipC2Ev, symObjAddr: 0xC, symBinAddr: 0x3F998, symSize: 0x80 }
  - { offset: 0x1EF122, size: 0x8, addend: 0x0, symName: __ZN9Scintilla8Internal7CallTipC2Ev, symObjAddr: 0xC, symBinAddr: 0x3F998, symSize: 0x80 }
  - { offset: 0x1EF215, size: 0x8, addend: 0x0, symName: __ZN9Scintilla8Internal7CallTipC1Ev, symObjAddr: 0x8C, symBinAddr: 0x3FA18, symSize: 0x4 }
  - { offset: 0x1EF242, size: 0x8, addend: 0x0, symName: __ZN9Scintilla8Internal7CallTipC1Ev, symObjAddr: 0x8C, symBinAddr: 0x3FA18, symSize: 0x4 }
  - { offset: 0x1EF337, size: 0x8, addend: 0x0, symName: __ZN9Scintilla8Internal7CallTipD2Ev, symObjAddr: 0x90, symBinAddr: 0x3FA1C, symSize: 0x54 }
  - { offset: 0x1EF50A, size: 0x8, addend: 0x0, symName: __ZN9Scintilla8Internal7CallTipD1Ev, symObjAddr: 0xE4, symBinAddr: 0x3FA70, symSize: 0x4 }
  - { offset: 0x1EF537, size: 0x8, addend: 0x0, symName: __ZN9Scintilla8Internal7CallTipD1Ev, symObjAddr: 0xE4, symBinAddr: 0x3FA70, symSize: 0x4 }
  - { offset: 0x1EF549, size: 0x8, addend: 0x0, symName: __ZNK9Scintilla8Internal7CallTip14IsTabCharacterEc, symObjAddr: 0xE8, symBinAddr: 0x3FA74, symSize: 0x14 }
  - { offset: 0x1EF571, size: 0x8, addend: 0x0, symName: __ZNK9Scintilla8Internal7CallTip10NextTabPosEi, symObjAddr: 0xFC, symBinAddr: 0x3FA88, symSize: 0x38 }
  - { offset: 0x1EFE80, size: 0x8, addend: 0x0, symName: __ZN9Scintilla8Internal7CallTip9DrawChunkEPNS0_7SurfaceEiNSt3__117basic_string_viewIcNS4_11char_traitsIcEEEEiNS0_10PRectangleEbb, symObjAddr: 0x134, symBinAddr: 0x3FAC0, symSize: 0x6A0 }
  - { offset: 0x1F1736, size: 0x8, addend: 0x0, symName: __ZNSt3__16vectorImNS_9allocatorImEEEC2Em, symObjAddr: 0xEBC, symBinAddr: 0x407F8, symSize: 0x74 }
  - { offset: 0x1F19AD, size: 0x8, addend: 0x0, symName: __ZNKSt3__16vectorImNS_9allocatorImEEE20__throw_length_errorB8ne180100Ev, symObjAddr: 0xF70, symBinAddr: 0x408AC, symSize: 0x14 }
  - { offset: 0x1F19D5, size: 0x8, addend: 0x0, symName: __ZNSt3__119__allocate_at_leastB8ne180100INS_9allocatorImEEEENS_19__allocation_resultINS_16allocator_traitsIT_E7pointerEEERS5_m, symObjAddr: 0xF84, symBinAddr: 0x408C0, symSize: 0x34 }
  - { offset: 0x1F1B4F, size: 0x8, addend: 0x0, symName: __ZN9Scintilla8Internal7CallTip13PaintContentsEPNS0_7SurfaceEb, symObjAddr: 0x7D4, symBinAddr: 0x40160, symSize: 0x28C }
  - { offset: 0x1F1FFB, size: 0x8, addend: 0x0, symName: __ZN9Scintilla8Internal7CallTip7PaintCTEPNS0_7SurfaceE, symObjAddr: 0xA60, symBinAddr: 0x403EC, symSize: 0x90 }
  - { offset: 0x1F205D, size: 0x8, addend: 0x0, symName: __ZN9Scintilla8Internal7CallTip7PaintCTEPNS0_7SurfaceE, symObjAddr: 0xA60, symBinAddr: 0x403EC, symSize: 0x90 }
  - { offset: 0x1F218F, size: 0x8, addend: 0x0, symName: __ZN9Scintilla8Internal7CallTip10MouseClickENS0_5PointE, symObjAddr: 0xAF0, symBinAddr: 0x4047C, symSize: 0x78 }
  - { offset: 0x1F2308, size: 0x8, addend: 0x0, symName: __ZN9Scintilla8Internal7CallTip12CallTipStartElNS0_5PointEiPKciPNS0_7SurfaceERKNSt3__110shared_ptrINS0_4FontEEE, symObjAddr: 0xB68, symBinAddr: 0x404F4, symSize: 0x1B0 }
  - { offset: 0x1F25A8, size: 0x8, addend: 0x0, symName: __ZNSt3__110shared_ptrIN9Scintilla8Internal4FontEEaSB8ne180100ERKS4_, symObjAddr: 0xD18, symBinAddr: 0x406A4, symSize: 0x68 }
  - { offset: 0x1F285A, size: 0x8, addend: 0x0, symName: __ZN9Scintilla8Internal7CallTip13CallTipCancelEv, symObjAddr: 0xD80, symBinAddr: 0x4070C, symSize: 0x18 }
  - { offset: 0x1F28A3, size: 0x8, addend: 0x0, symName: __ZN9Scintilla8Internal7CallTip12SetHighlightEmm, symObjAddr: 0xD98, symBinAddr: 0x40724, symSize: 0x38 }
  - { offset: 0x1F290A, size: 0x8, addend: 0x0, symName: __ZN9Scintilla8Internal7CallTip10SetTabSizeEi, symObjAddr: 0xDD0, symBinAddr: 0x4075C, symSize: 0x10 }
  - { offset: 0x1F2940, size: 0x8, addend: 0x0, symName: __ZN9Scintilla8Internal7CallTip11SetPositionEb, symObjAddr: 0xDE0, symBinAddr: 0x4076C, symSize: 0x8 }
  - { offset: 0x1F2973, size: 0x8, addend: 0x0, symName: __ZNK9Scintilla8Internal7CallTip15UseStyleCallTipEv, symObjAddr: 0xDE8, symBinAddr: 0x40774, symSize: 0x8 }
  - { offset: 0x1F299C, size: 0x8, addend: 0x0, symName: __ZN9Scintilla8Internal7CallTip11SetForeBackENS0_10ColourRGBAES2_, symObjAddr: 0xDF0, symBinAddr: 0x4077C, symSize: 0x8 }
  - { offset: 0x1F29DB, size: 0x8, addend: 0x0, symName: __ZNSt12out_of_rangeC1B8ne180100EPKc, symObjAddr: 0xE48, symBinAddr: 0x407D4, symSize: 0x24 }
  - { offset: 0x1F2BD5, size: 0x8, addend: 0x0, symName: __ZNSt3__16vectorImNS_9allocatorImEEE11__vallocateB8ne180100Em, symObjAddr: 0xF30, symBinAddr: 0x4086C, symSize: 0x40 }
  - { offset: 0x1F2C50, size: 0x8, addend: 0x0, symName: __ZNKSt3__16vectorImNS_9allocatorImEEE20__throw_length_errorB8ne180100Ev, symObjAddr: 0xF70, symBinAddr: 0x408AC, symSize: 0x14 }
  - { offset: 0x1FD5DF, size: 0x8, addend: 0x0, symName: __ZNKSt3__16vectorIN9Scintilla8Internal10ChangeSpanENS_9allocatorIS3_EEE20__throw_length_errorB8ne180100Ev, symObjAddr: 0x3160, symBinAddr: 0x43510, symSize: 0x14 }
  - { offset: 0x1FD92C, size: 0x8, addend: 0x0, symName: __ZNSt3__119__allocate_at_leastB8ne180100INS_9allocatorIN9Scintilla8Internal10ChangeSpanEEEEENS_19__allocation_resultINS_16allocator_traitsIT_E7pointerEEERS8_m, symObjAddr: 0x3174, symBinAddr: 0x43524, symSize: 0x34 }
  - { offset: 0x1FDE4B, size: 0x8, addend: 0x0, symName: __ZNSt3__119__allocate_at_leastB8ne180100INS_9allocatorIN9Scintilla8Internal12EditionCountEEEEENS_19__allocation_resultINS_16allocator_traitsIT_E7pointerEEERS8_m, symObjAddr: 0x21D4, symBinAddr: 0x42A44, symSize: 0x34 }
  - { offset: 0x1FE28D, size: 0x8, addend: 0x0, symName: __ZNSt3__111make_uniqueB8ne180100IN9Scintilla8Internal9ChangeLogEJEEENS_11__unique_ifIT_E15__unique_singleEDpOT0_, symObjAddr: 0x1CBC, symBinAddr: 0x425A0, symSize: 0xCC }
  - { offset: 0x1FF4C4, size: 0x8, addend: 0x0, symName: __ZNSt3__119__allocate_at_leastB8ne180100INS_9allocatorINS_10unique_ptrINS_6vectorIN9Scintilla8Internal12EditionCountENS1_IS6_EEEENS_14default_deleteIS8_EEEEEEEENS_19__allocation_resultINS_16allocator_traitsIT_E7pointerEEERSF_m, symObjAddr: 0x2CC8, symBinAddr: 0x430C0, symSize: 0x34 }
  - { offset: 0x1FF561, size: 0x8, addend: 0x0, symName: __ZNSt3__142__uninitialized_allocator_move_if_noexceptB8ne180100INS_9allocatorINS_10unique_ptrINS_6vectorIN9Scintilla8Internal12EditionCountENS1_IS6_EEEENS_14default_deleteIS8_EEEEEENS_16reverse_iteratorIPSB_EESF_SF_EET2_RT_T0_T1_SG_, symObjAddr: 0x2CFC, symBinAddr: 0x430F4, symSize: 0x94 }
  - { offset: 0x1FF5BB, size: 0x8, addend: 0x0, symName: __ZNSt3__142__uninitialized_allocator_move_if_noexceptB8ne180100INS_9allocatorINS_10unique_ptrINS_6vectorIN9Scintilla8Internal12EditionCountENS1_IS6_EEEENS_14default_deleteIS8_EEEEEENS_16reverse_iteratorIPSB_EESF_SF_EET2_RT_T0_T1_SG_, symObjAddr: 0x2CFC, symBinAddr: 0x430F4, symSize: 0x94 }
  - { offset: 0x200F07, size: 0x8, addend: 0x0, symName: __ZNSt3__16vectorINS_10unique_ptrINS0_IN9Scintilla8Internal12EditionCountENS_9allocatorIS4_EEEENS_14default_deleteIS7_EEEENS5_ISA_EEE26__swap_out_circular_bufferERNS_14__split_bufferISA_RSB_EE, symObjAddr: 0x2C54, symBinAddr: 0x4304C, symSize: 0x74 }
  - { offset: 0x2012A4, size: 0x8, addend: 0x0, symName: __ZNSt3__16vectorIN9Scintilla8Internal12EditionCountENS_9allocatorIS3_EEE26__swap_out_circular_bufferERNS_14__split_bufferIS3_RS5_EEPS3_, symObjAddr: 0x39F0, symBinAddr: 0x438F0, symSize: 0xC4 }
  - { offset: 0x201792, size: 0x8, addend: 0x0, symName: __ZN9Scintilla8Internal11ChangeStack5ClearEv, symObjAddr: 0x0, symBinAddr: 0x408F4, symSize: 0x14 }
  - { offset: 0x2017B4, size: 0x8, addend: 0x0, symName: __ZN9Scintilla8Internal11ChangeStack5ClearEv, symObjAddr: 0x0, symBinAddr: 0x408F4, symSize: 0x14 }
  - { offset: 0x2017CF, size: 0x8, addend: 0x0, symName: __ZN9Scintilla8Internal11ChangeStack5ClearEv, symObjAddr: 0x0, symBinAddr: 0x408F4, symSize: 0x14 }
  - { offset: 0x201BEB, size: 0x8, addend: 0x0, symName: __ZN9Scintilla8Internal11ChangeStack7AddStepEv, symObjAddr: 0x14, symBinAddr: 0x40908, symSize: 0xD0 }
  - { offset: 0x201F96, size: 0x8, addend: 0x0, symName: __ZN9Scintilla8Internal11ChangeStack12PushDeletionElRKNS0_12EditionCountE, symObjAddr: 0xE4, symBinAddr: 0x409D8, symSize: 0x170 }
  - { offset: 0x20237E, size: 0x8, addend: 0x0, symName: __ZN9Scintilla8Internal11ChangeStack12PushDeletionElRKNS0_12EditionCountE, symObjAddr: 0xE4, symBinAddr: 0x409D8, symSize: 0x170 }
  - { offset: 0x2027B2, size: 0x8, addend: 0x0, symName: __ZN9Scintilla8Internal11ChangeStack13PushInsertionElli, symObjAddr: 0x254, symBinAddr: 0x40B48, symSize: 0x130 }
  - { offset: 0x2027C4, size: 0x8, addend: 0x0, symName: __ZNKSt3__16vectorIN9Scintilla8Internal10ChangeSpanENS_9allocatorIS3_EEE20__throw_length_errorB8ne180100Ev, symObjAddr: 0x3160, symBinAddr: 0x43510, symSize: 0x14 }
  - { offset: 0x2027EC, size: 0x8, addend: 0x0, symName: __ZNSt3__119__allocate_at_leastB8ne180100INS_9allocatorIN9Scintilla8Internal10ChangeSpanEEEEENS_19__allocation_resultINS_16allocator_traitsIT_E7pointerEEERS8_m, symObjAddr: 0x3174, symBinAddr: 0x43524, symSize: 0x34 }
  - { offset: 0x2027F6, size: 0x8, addend: 0x0, symName: __ZN9Scintilla8Internal11ChangeStack13PushInsertionElli, symObjAddr: 0x254, symBinAddr: 0x40B48, symSize: 0x130 }
  - { offset: 0x202C0B, size: 0x8, addend: 0x0, symName: __ZN9Scintilla8Internal11ChangeStack7PopStepEv, symObjAddr: 0x384, symBinAddr: 0x40C78, symSize: 0x14 }
  - { offset: 0x202C5F, size: 0x8, addend: 0x0, symName: __ZN9Scintilla8Internal11ChangeStack7PopStepEv, symObjAddr: 0x384, symBinAddr: 0x40C78, symSize: 0x14 }
  - { offset: 0x202C8D, size: 0x8, addend: 0x0, symName: __ZN9Scintilla8Internal11ChangeStack7PopStepEv, symObjAddr: 0x384, symBinAddr: 0x40C78, symSize: 0x14 }
  - { offset: 0x202DA7, size: 0x8, addend: 0x0, symName: __ZN9Scintilla8Internal11ChangeStack7PopSpanEi, symObjAddr: 0x3A8, symBinAddr: 0x40C8C, symSize: 0x38 }
  - { offset: 0x202DE4, size: 0x8, addend: 0x0, symName: __ZN9Scintilla8Internal11ChangeStack7PopSpanEi, symObjAddr: 0x3A8, symBinAddr: 0x40C8C, symSize: 0x38 }
  - { offset: 0x202EF3, size: 0x8, addend: 0x0, symName: __ZN9Scintilla8Internal11ChangeStack12SetSavePointEv, symObjAddr: 0x3E0, symBinAddr: 0x40CC4, symSize: 0x30 }
  - { offset: 0x202F11, size: 0x8, addend: 0x0, symName: __ZN9Scintilla8Internal11ChangeStack12SetSavePointEv, symObjAddr: 0x3E0, symBinAddr: 0x40CC4, symSize: 0x30 }
  - { offset: 0x202F40, size: 0x8, addend: 0x0, symName: __ZN9Scintilla8Internal11ChangeStack12SetSavePointEv, symObjAddr: 0x3E0, symBinAddr: 0x40CC4, symSize: 0x30 }
  - { offset: 0x202F86, size: 0x8, addend: 0x0, symName: __ZNK9Scintilla8Internal11ChangeStack5CheckEv, symObjAddr: 0x410, symBinAddr: 0x40CF4, symSize: 0x4 }
  - { offset: 0x202FF2, size: 0x8, addend: 0x0, symName: __ZN9Scintilla8Internal9ChangeLog5ClearEl, symObjAddr: 0x414, symBinAddr: 0x40CF8, symSize: 0x6C }
  - { offset: 0x20318E, size: 0x8, addend: 0x0, symName: __ZN9Scintilla8Internal12SparseVectorINSt3__110unique_ptrINS2_6vectorINS0_12EditionCountENS2_9allocatorIS5_EEEENS2_14default_deleteIS8_EEEEE9DeleteAllEv, symObjAddr: 0x480, symBinAddr: 0x40D64, symSize: 0x104 }
  - { offset: 0x203638, size: 0x8, addend: 0x0, symName: __ZN9Scintilla8Internal12SparseVectorINSt3__110unique_ptrINS2_6vectorINS0_12EditionCountENS2_9allocatorIS5_EEEENS2_14default_deleteIS8_EEEEE11InsertSpaceEll, symObjAddr: 0x5C4, symBinAddr: 0x40EA8, symSize: 0x118 }
  - { offset: 0x203DFA, size: 0x8, addend: 0x0, symName: __ZNSt3__16vectorINS_10unique_ptrINS0_IN9Scintilla8Internal12EditionCountENS_9allocatorIS4_EEEENS_14default_deleteIS7_EEEENS5_ISA_EEE13__vdeallocateEv, symObjAddr: 0x291C, symBinAddr: 0x42D14, symSize: 0x38 }
  - { offset: 0x203F11, size: 0x8, addend: 0x0, symName: __ZNKSt3__114default_deleteINS_6vectorIN9Scintilla8Internal12EditionCountENS_9allocatorIS4_EEEEEclB8ne180100EPS7_, symObjAddr: 0x29B4, symBinAddr: 0x42DAC, symSize: 0x38 }
  - { offset: 0x20407E, size: 0x8, addend: 0x0, symName: __ZNSt3__16vectorINS_10unique_ptrINS0_IN9Scintilla8Internal12EditionCountENS_9allocatorIS4_EEEENS_14default_deleteIS7_EEEENS5_ISA_EEE16__destroy_vectorclB8ne180100Ev, symObjAddr: 0x29EC, symBinAddr: 0x42DE4, symSize: 0x40 }
  - { offset: 0x204164, size: 0x8, addend: 0x0, symName: __ZN9Scintilla8Internal11SplitVectorINSt3__110unique_ptrINS2_6vectorINS0_12EditionCountENS2_9allocatorIS5_EEEENS2_14default_deleteIS8_EEEEE11InsertEmptyEll, symObjAddr: 0x23E8, symBinAddr: 0x42C30, symSize: 0xE4 }
  - { offset: 0x204350, size: 0x8, addend: 0x0, symName: __ZN9Scintilla8Internal9ChangeLog11InsertSpaceEll, symObjAddr: 0x584, symBinAddr: 0x40E68, symSize: 0x40 }
  - { offset: 0x20489D, size: 0x8, addend: 0x0, symName: __ZN9Scintilla8Internal9ChangeLog11DeleteRangeEll, symObjAddr: 0x6DC, symBinAddr: 0x40FC0, symSize: 0x148 }
  - { offset: 0x204EB4, size: 0x8, addend: 0x0, symName: __ZNK9Scintilla8Internal12SparseVectorINSt3__110unique_ptrINS2_6vectorINS0_12EditionCountENS2_9allocatorIS5_EEEENS2_14default_deleteIS8_EEEEE7ValueAtEl, symObjAddr: 0x824, symBinAddr: 0x41108, symSize: 0xBC }
  - { offset: 0x204FF7, size: 0x8, addend: 0x0, symName: __ZNSt3__16vectorIN9Scintilla8Internal12EditionCountENS_9allocatorIS3_EEE16__init_with_sizeB8ne180100IPS3_S8_EEvT_T0_m, symObjAddr: 0x3518, symBinAddr: 0x435B4, symSize: 0x78 }
  - { offset: 0x205401, size: 0x8, addend: 0x0, symName: __ZN9Scintilla8Internal12SparseVectorINSt3__110unique_ptrINS2_6vectorINS0_12EditionCountENS2_9allocatorIS5_EEEENS2_14default_deleteIS8_EEEEE11DeleteRangeEll, symObjAddr: 0x8E0, symBinAddr: 0x411C4, symSize: 0x284 }
  - { offset: 0x20593B, size: 0x8, addend: 0x0, symName: __ZN9Scintilla8Internal12SparseVectorINSt3__110unique_ptrINS2_6vectorINS0_12EditionCountENS2_9allocatorIS5_EEEENS2_14default_deleteIS8_EEEEE10SetValueAtISB_EEvlOT_, symObjAddr: 0xB64, symBinAddr: 0x41448, symSize: 0x1D4 }
  - { offset: 0x205DF9, size: 0x8, addend: 0x0, symName: __ZNK9Scintilla8Internal12SparseVectorINSt3__110unique_ptrINS2_6vectorINS0_12EditionCountENS2_9allocatorIS5_EEEENS2_14default_deleteIS8_EEEEE19ElementFromPositionEl, symObjAddr: 0x34BC, symBinAddr: 0x43558, symSize: 0x5C }
  - { offset: 0x205E2E, size: 0x8, addend: 0x0, symName: __ZNK9Scintilla8Internal12SparseVectorINSt3__110unique_ptrINS2_6vectorINS0_12EditionCountENS2_9allocatorIS5_EEEENS2_14default_deleteIS8_EEEEE19ElementFromPositionEl, symObjAddr: 0x34BC, symBinAddr: 0x43558, symSize: 0x5C }
  - { offset: 0x205E49, size: 0x8, addend: 0x0, symName: __ZNK9Scintilla8Internal12SparseVectorINSt3__110unique_ptrINS2_6vectorINS0_12EditionCountENS2_9allocatorIS5_EEEENS2_14default_deleteIS8_EEEEE19ElementFromPositionEl, symObjAddr: 0x34BC, symBinAddr: 0x43558, symSize: 0x5C }
  - { offset: 0x205E64, size: 0x8, addend: 0x0, symName: __ZNK9Scintilla8Internal12SparseVectorINSt3__110unique_ptrINS2_6vectorINS0_12EditionCountENS2_9allocatorIS5_EEEENS2_14default_deleteIS8_EEEEE19ElementFromPositionEl, symObjAddr: 0x34BC, symBinAddr: 0x43558, symSize: 0x5C }
  - { offset: 0x205E7F, size: 0x8, addend: 0x0, symName: __ZNK9Scintilla8Internal12SparseVectorINSt3__110unique_ptrINS2_6vectorINS0_12EditionCountENS2_9allocatorIS5_EEEENS2_14default_deleteIS8_EEEEE19ElementFromPositionEl, symObjAddr: 0x34BC, symBinAddr: 0x43558, symSize: 0x5C }
  - { offset: 0x206004, size: 0x8, addend: 0x0, symName: __ZN9Scintilla8Internal11SplitVectorINSt3__110unique_ptrINS2_6vectorINS0_12EditionCountENS2_9allocatorIS5_EEEENS2_14default_deleteIS8_EEEEE11DeleteRangeEll, symObjAddr: 0x37A8, symBinAddr: 0x436A8, symSize: 0x9C }
  - { offset: 0x2060FB, size: 0x8, addend: 0x0, symName: __ZN9Scintilla8Internal12SparseVectorINSt3__110unique_ptrINS2_6vectorINS0_12EditionCountENS2_9allocatorIS5_EEEENS2_14default_deleteIS8_EEEEE10ClearValueEl, symObjAddr: 0x3620, symBinAddr: 0x4366C, symSize: 0x3C }
  - { offset: 0x206361, size: 0x8, addend: 0x0, symName: __ZN9Scintilla8Internal11SplitVectorINSt3__110unique_ptrINS2_6vectorINS0_12EditionCountENS2_9allocatorIS5_EEEENS2_14default_deleteIS8_EEEEE10SetValueAtISB_EEvlOT_, symObjAddr: 0x38F0, symBinAddr: 0x437F0, symSize: 0x68 }
  - { offset: 0x2064FA, size: 0x8, addend: 0x0, symName: __ZN9Scintilla8Internal11SplitVectorINSt3__110unique_ptrINS2_6vectorINS0_12EditionCountENS2_9allocatorIS5_EEEENS2_14default_deleteIS8_EEEEE6InsertElSB_, symObjAddr: 0x3958, symBinAddr: 0x43858, symSize: 0x98 }
  - { offset: 0x206617, size: 0x8, addend: 0x0, symName: __ZN9Scintilla8Internal9ChangeLog6InsertElli, symObjAddr: 0xD38, symBinAddr: 0x4161C, symSize: 0x30 }
  - { offset: 0x20666A, size: 0x8, addend: 0x0, symName: __ZN9Scintilla8Internal9ChangeLog13CollapseRangeEll, symObjAddr: 0xD68, symBinAddr: 0x4164C, symSize: 0xE8 }
  - { offset: 0x20698C, size: 0x8, addend: 0x0, symName: __ZN9Scintilla8Internal9ChangeLog14PushDeletionAtElNS0_12EditionCountE, symObjAddr: 0xE50, symBinAddr: 0x41734, symSize: 0x180 }
  - { offset: 0x207057, size: 0x8, addend: 0x0, symName: __ZNK9Scintilla8Internal12SparseVectorINSt3__110unique_ptrINS2_6vectorINS0_12EditionCountENS2_9allocatorIS5_EEEENS2_14default_deleteIS8_EEEEE12PositionNextEl, symObjAddr: 0xFD0, symBinAddr: 0x418B4, symSize: 0xC4 }
  - { offset: 0x207578, size: 0x8, addend: 0x0, symName: __ZNKSt3__16vectorIN9Scintilla8Internal12EditionCountENS_9allocatorIS3_EEE20__throw_length_errorB8ne180100Ev, symObjAddr: 0x214C, symBinAddr: 0x42A30, symSize: 0x14 }
  - { offset: 0x2075DD, size: 0x8, addend: 0x0, symName: __ZN9Scintilla8Internal9ChangeLog21InsertFrontDeletionAtElNS0_12EditionCountE, symObjAddr: 0x1094, symBinAddr: 0x41978, symSize: 0xB0 }
  - { offset: 0x2078C8, size: 0x8, addend: 0x0, symName: __ZNSt3__16vectorIN9Scintilla8Internal12EditionCountENS_9allocatorIS3_EEE6insertENS_11__wrap_iterIPKS3_EERS8_, symObjAddr: 0x1144, symBinAddr: 0x41A28, symSize: 0x240 }
  - { offset: 0x208540, size: 0x8, addend: 0x0, symName: __ZN9Scintilla8Internal9ChangeLog9SaveRangeEll, symObjAddr: 0x1384, symBinAddr: 0x41C68, symSize: 0x128 }
  - { offset: 0x2087D3, size: 0x8, addend: 0x0, symName: __ZN9Scintilla8Internal9ChangeLog11PopDeletionEll, symObjAddr: 0x14AC, symBinAddr: 0x41D90, symSize: 0x1DC }
  - { offset: 0x208E9D, size: 0x8, addend: 0x0, symName: __ZN9Scintilla8Internal12SparseVectorINSt3__110unique_ptrINS2_6vectorINS0_12EditionCountENS2_9allocatorIS5_EEEENS2_14default_deleteIS8_EEEEE7ExtractEl, symObjAddr: 0x1688, symBinAddr: 0x41F6C, symSize: 0xB8 }
  - { offset: 0x209142, size: 0x8, addend: 0x0, symName: __ZN9Scintilla8Internal9ChangeLog20SaveHistoryForDeleteEll, symObjAddr: 0x1740, symBinAddr: 0x42024, symSize: 0x3C }
  - { offset: 0x2091D7, size: 0x8, addend: 0x0, symName: __ZN9Scintilla8Internal9ChangeLog24DeleteRangeSavingHistoryEll, symObjAddr: 0x177C, symBinAddr: 0x42060, symSize: 0x4C }
  - { offset: 0x2092E1, size: 0x8, addend: 0x0, symName: __ZN9Scintilla8Internal9ChangeLog12SetSavePointEv, symObjAddr: 0x17C8, symBinAddr: 0x420AC, symSize: 0x124 }
  - { offset: 0x209500, size: 0x8, addend: 0x0, symName: __ZNK9Scintilla8Internal9ChangeLog6LengthEv, symObjAddr: 0x18EC, symBinAddr: 0x421D0, symSize: 0x8 }
  - { offset: 0x20955C, size: 0x8, addend: 0x0, symName: __ZNK9Scintilla8Internal9ChangeLog13DeletionCountEll, symObjAddr: 0x18F4, symBinAddr: 0x421D8, symSize: 0x9C }
  - { offset: 0x2096D4, size: 0x8, addend: 0x0, symName: __ZNK9Scintilla8Internal9ChangeLog5CheckEv, symObjAddr: 0x1990, symBinAddr: 0x42274, symSize: 0x4 }
  - { offset: 0x209AFB, size: 0x8, addend: 0x0, symName: __ZN9Scintilla8Internal13ChangeHistoryC2El, symObjAddr: 0x1994, symBinAddr: 0x42278, symSize: 0xD0 }
  - { offset: 0x20A315, size: 0x8, addend: 0x0, symName: __ZN9Scintilla8Internal12SparseVectorINSt3__110unique_ptrINS2_6vectorINS0_12EditionCountENS2_9allocatorIS5_EEEENS2_14default_deleteIS8_EEEEEC2Ev, symObjAddr: 0x2230, symBinAddr: 0x42A78, symSize: 0x174 }
  - { offset: 0x20ABCB, size: 0x8, addend: 0x0, symName: __ZNSt3__110unique_ptrIN9Scintilla8Internal9ChangeLogENS_14default_deleteIS3_EEE5resetB8ne180100EPS3_, symObjAddr: 0x1D94, symBinAddr: 0x42678, symSize: 0x2C }
  - { offset: 0x20AC46, size: 0x8, addend: 0x0, symName: __ZN9Scintilla8Internal9ChangeLogD2Ev, symObjAddr: 0x3068, symBinAddr: 0x43460, symSize: 0xB0 }
  - { offset: 0x20B5D5, size: 0x8, addend: 0x0, symName: __ZN9Scintilla8Internal13ChangeHistoryC1El, symObjAddr: 0x1A64, symBinAddr: 0x42348, symSize: 0x4 }
  - { offset: 0x20B612, size: 0x8, addend: 0x0, symName: __ZN9Scintilla8Internal13ChangeHistoryC1El, symObjAddr: 0x1A64, symBinAddr: 0x42348, symSize: 0x4 }
  - { offset: 0x20B690, size: 0x8, addend: 0x0, symName: __ZN9Scintilla8Internal13ChangeHistory6InsertEllbb, symObjAddr: 0x1A68, symBinAddr: 0x4234C, symSize: 0xC4 }
  - { offset: 0x20B828, size: 0x8, addend: 0x0, symName: __ZN9Scintilla8Internal13ChangeHistory5CheckEv, symObjAddr: 0x1B2C, symBinAddr: 0x42410, symSize: 0x4 }
  - { offset: 0x20B84F, size: 0x8, addend: 0x0, symName: __ZN9Scintilla8Internal13ChangeHistory11DeleteRangeEllb, symObjAddr: 0x1B30, symBinAddr: 0x42414, symSize: 0x68 }
  - { offset: 0x20B92C, size: 0x8, addend: 0x0, symName: __ZN9Scintilla8Internal13ChangeHistory24DeleteRangeSavingHistoryEllbb, symObjAddr: 0x1B98, symBinAddr: 0x4247C, symSize: 0xB0 }
  - { offset: 0x20BB31, size: 0x8, addend: 0x0, symName: __ZN9Scintilla8Internal13ChangeHistory14StartReversionEv, symObjAddr: 0x1C48, symBinAddr: 0x4252C, symSize: 0x74 }
  - { offset: 0x20BDF4, size: 0x8, addend: 0x0, symName: __ZN9Scintilla8Internal13ChangeHistory12EndReversionEv, symObjAddr: 0x1D88, symBinAddr: 0x4266C, symSize: 0xC }
  - { offset: 0x20BE47, size: 0x8, addend: 0x0, symName: __ZN9Scintilla8Internal13ChangeHistory12SetSavePointEv, symObjAddr: 0x1DC0, symBinAddr: 0x426A4, symSize: 0x28 }
  - { offset: 0x20BEB8, size: 0x8, addend: 0x0, symName: __ZN9Scintilla8Internal13ChangeHistory14UndoDeleteStepEllb, symObjAddr: 0x1DE8, symBinAddr: 0x426CC, symSize: 0xB0 }
  - { offset: 0x20C036, size: 0x8, addend: 0x0, symName: __ZNK9Scintilla8Internal13ChangeHistory6LengthEv, symObjAddr: 0x1E98, symBinAddr: 0x4277C, symSize: 0x8 }
  - { offset: 0x20C061, size: 0x8, addend: 0x0, symName: __ZNK9Scintilla8Internal13ChangeHistory6LengthEv, symObjAddr: 0x1E98, symBinAddr: 0x4277C, symSize: 0x8 }
  - { offset: 0x20C07E, size: 0x8, addend: 0x0, symName: __ZN9Scintilla8Internal13ChangeHistory8SetEpochEi, symObjAddr: 0x1EA0, symBinAddr: 0x42784, symSize: 0x8 }
  - { offset: 0x20C0B4, size: 0x8, addend: 0x0, symName: __ZN9Scintilla8Internal13ChangeHistory20EditionCreateHistoryEll, symObjAddr: 0x1EA8, symBinAddr: 0x4278C, symSize: 0x84 }
  - { offset: 0x20C12A, size: 0x8, addend: 0x0, symName: __ZNK9Scintilla8Internal13ChangeHistory9EditionAtEl, symObjAddr: 0x1F2C, symBinAddr: 0x42810, symSize: 0x6C }
  - { offset: 0x20C1B4, size: 0x8, addend: 0x0, symName: __ZNK9Scintilla8Internal13ChangeHistory13EditionEndRunEl, symObjAddr: 0x1F98, symBinAddr: 0x4287C, symSize: 0x6C }
  - { offset: 0x20C23E, size: 0x8, addend: 0x0, symName: __ZNK9Scintilla8Internal13ChangeHistory16EditionDeletesAtEl, symObjAddr: 0x2004, symBinAddr: 0x428E8, symSize: 0x9C }
  - { offset: 0x20C3B0, size: 0x8, addend: 0x0, symName: __ZNK9Scintilla8Internal13ChangeHistory17EditionNextDeleteEl, symObjAddr: 0x20A0, symBinAddr: 0x42984, symSize: 0x58 }
  - { offset: 0x20C463, size: 0x8, addend: 0x0, symName: __ZNK9Scintilla8Internal13ChangeHistory13DeletionCountEll, symObjAddr: 0x20F8, symBinAddr: 0x429DC, symSize: 0x4 }
  - { offset: 0x20C4AB, size: 0x8, addend: 0x0, symName: __ZNK9Scintilla8Internal13ChangeHistory13DeletionCountEll, symObjAddr: 0x20F8, symBinAddr: 0x429DC, symSize: 0x4 }
  - { offset: 0x20C4CC, size: 0x8, addend: 0x0, symName: __ZNK9Scintilla8Internal13ChangeHistory11DeletionsAtEl, symObjAddr: 0x20FC, symBinAddr: 0x429E0, symSize: 0x50 }
  - { offset: 0x20C63E, size: 0x8, addend: 0x0, symName: __ZN9Scintilla8Internal11SplitVectorINSt3__110unique_ptrINS2_6vectorINS0_12EditionCountENS2_9allocatorIS5_EEEENS2_14default_deleteIS8_EEEEED1Ev, symObjAddr: 0x23A4, symBinAddr: 0x42BEC, symSize: 0x44 }
  - { offset: 0x20C7A0, size: 0x8, addend: 0x0, symName: __ZN9Scintilla8Internal11SplitVectorINSt3__110unique_ptrINS2_6vectorINS0_12EditionCountENS2_9allocatorIS5_EEEENS2_14default_deleteIS8_EEEEE7RoomForEl, symObjAddr: 0x2A2C, symBinAddr: 0x42E24, symSize: 0x54 }
  - { offset: 0x20C7E1, size: 0x8, addend: 0x0, symName: __ZN9Scintilla8Internal11SplitVectorINSt3__110unique_ptrINS2_6vectorINS0_12EditionCountENS2_9allocatorIS5_EEEENS2_14default_deleteIS8_EEEEE5GapToEl, symObjAddr: 0x2A80, symBinAddr: 0x42E78, symSize: 0x90 }
  - { offset: 0x20D363, size: 0x8, addend: 0x0, symName: __ZNSt3__16vectorINS_10unique_ptrINS0_IN9Scintilla8Internal12EditionCountENS_9allocatorIS4_EEEENS_14default_deleteIS7_EEEENS5_ISA_EEE13__vdeallocateEv, symObjAddr: 0x291C, symBinAddr: 0x42D14, symSize: 0x38 }
  - { offset: 0x20D583, size: 0x8, addend: 0x0, symName: __ZNSt3__16vectorINS_10unique_ptrINS0_IN9Scintilla8Internal12EditionCountENS_9allocatorIS4_EEEENS_14default_deleteIS7_EEEENS5_ISA_EEE22__base_destruct_at_endB8ne180100EPSA_, symObjAddr: 0x2954, symBinAddr: 0x42D4C, symSize: 0x60 }
  - { offset: 0x20D6E5, size: 0x8, addend: 0x0, symName: __ZN9Scintilla8Internal11SplitVectorINSt3__110unique_ptrINS2_6vectorINS0_12EditionCountENS2_9allocatorIS5_EEEENS2_14default_deleteIS8_EEEEE10ReAllocateEm, symObjAddr: 0x2B10, symBinAddr: 0x42F08, symSize: 0x70 }
  - { offset: 0x20D7AA, size: 0x8, addend: 0x0, symName: __ZNKSt3__120__move_backward_loopINS_17_ClassicAlgPolicyEEclB8ne180100IPNS_10unique_ptrINS_6vectorIN9Scintilla8Internal12EditionCountENS_9allocatorIS8_EEEENS_14default_deleteISB_EEEESF_SF_EENS_4pairIT_T1_EESH_T0_SI_, symObjAddr: 0x2F90, symBinAddr: 0x43388, symSize: 0x6C }
  - { offset: 0x20D8D8, size: 0x8, addend: 0x0, symName: __ZNKSt3__111__move_loopINS_17_ClassicAlgPolicyEEclB8ne180100IPNS_10unique_ptrINS_6vectorIN9Scintilla8Internal12EditionCountENS_9allocatorIS8_EEEENS_14default_deleteISB_EEEESF_SF_EENS_4pairIT_T1_EESH_T0_SI_, symObjAddr: 0x2FFC, symBinAddr: 0x433F4, symSize: 0x6C }
  - { offset: 0x20D9E4, size: 0x8, addend: 0x0, symName: __ZNSt3__16vectorINS_10unique_ptrINS0_IN9Scintilla8Internal12EditionCountENS_9allocatorIS4_EEEENS_14default_deleteIS7_EEEENS5_ISA_EEE7reserveEm, symObjAddr: 0x2B80, symBinAddr: 0x42F78, symSize: 0x90 }
  - { offset: 0x20DB9B, size: 0x8, addend: 0x0, symName: __ZNSt3__16vectorINS_10unique_ptrINS0_IN9Scintilla8Internal12EditionCountENS_9allocatorIS4_EEEENS_14default_deleteIS7_EEEENS5_ISA_EEE6resizeEm, symObjAddr: 0x2C10, symBinAddr: 0x43008, symSize: 0x30 }
  - { offset: 0x20DBE5, size: 0x8, addend: 0x0, symName: __ZNSt3__16vectorINS_10unique_ptrINS0_IN9Scintilla8Internal12EditionCountENS_9allocatorIS4_EEEENS_14default_deleteIS7_EEEENS5_ISA_EEE6resizeEm, symObjAddr: 0x2C10, symBinAddr: 0x43008, symSize: 0x30 }
  - { offset: 0x20DDAA, size: 0x8, addend: 0x0, symName: __ZNSt3__114__split_bufferINS_10unique_ptrINS_6vectorIN9Scintilla8Internal12EditionCountENS_9allocatorIS5_EEEENS_14default_deleteIS8_EEEERNS6_ISB_EEED2Ev, symObjAddr: 0x2E0C, symBinAddr: 0x43204, symSize: 0x34 }
  - { offset: 0x20DE9E, size: 0x8, addend: 0x0, symName: __ZNKSt3__16vectorINS_10unique_ptrINS0_IN9Scintilla8Internal12EditionCountENS_9allocatorIS4_EEEENS_14default_deleteIS7_EEEENS5_ISA_EEE20__throw_length_errorB8ne180100Ev, symObjAddr: 0x2C40, symBinAddr: 0x43038, symSize: 0x14 }
  - { offset: 0x20DEC6, size: 0x8, addend: 0x0, symName: __ZNSt3__16vectorINS_10unique_ptrINS0_IN9Scintilla8Internal12EditionCountENS_9allocatorIS4_EEEENS_14default_deleteIS7_EEEENS5_ISA_EEE26__swap_out_circular_bufferERNS_14__split_bufferISA_RSB_EE, symObjAddr: 0x2C54, symBinAddr: 0x4304C, symSize: 0x74 }
  - { offset: 0x20DEFD, size: 0x8, addend: 0x0, symName: __ZNSt3__16vectorINS_10unique_ptrINS0_IN9Scintilla8Internal12EditionCountENS_9allocatorIS4_EEEENS_14default_deleteIS7_EEEENS5_ISA_EEE8__appendEm, symObjAddr: 0x2E90, symBinAddr: 0x43288, symSize: 0x100 }
  - { offset: 0x20E454, size: 0x8, addend: 0x0, symName: __ZNSt3__128__exception_guard_exceptionsINS_29_AllocatorDestroyRangeReverseINS_9allocatorINS_10unique_ptrINS_6vectorIN9Scintilla8Internal12EditionCountENS2_IS7_EEEENS_14default_deleteIS9_EEEEEENS_16reverse_iteratorIPSC_EEEEED2B8ne180100Ev, symObjAddr: 0x2D90, symBinAddr: 0x43188, symSize: 0x34 }
  - { offset: 0x20E492, size: 0x8, addend: 0x0, symName: __ZNKSt3__129_AllocatorDestroyRangeReverseINS_9allocatorINS_10unique_ptrINS_6vectorIN9Scintilla8Internal12EditionCountENS1_IS6_EEEENS_14default_deleteIS8_EEEEEENS_16reverse_iteratorIPSB_EEEclB8ne180100Ev, symObjAddr: 0x2DC4, symBinAddr: 0x431BC, symSize: 0x48 }
  - { offset: 0x20E5EB, size: 0x8, addend: 0x0, symName: __ZNSt3__114__split_bufferINS_10unique_ptrINS_6vectorIN9Scintilla8Internal12EditionCountENS_9allocatorIS5_EEEENS_14default_deleteIS8_EEEERNS6_ISB_EEE17__destruct_at_endB8ne180100EPSB_, symObjAddr: 0x2E40, symBinAddr: 0x43238, symSize: 0x50 }
  - { offset: 0x20EC15, size: 0x8, addend: 0x0, symName: __ZNSt3__16vectorIN9Scintilla8Internal12EditionCountENS_9allocatorIS3_EEE11__vallocateB8ne180100Em, symObjAddr: 0x3590, symBinAddr: 0x4362C, symSize: 0x40 }
  - { offset: 0x20EF39, size: 0x8, addend: 0x0, symName: __ZNSt3__16vectorINS_10unique_ptrINS0_IN9Scintilla8Internal12EditionCountENS_9allocatorIS4_EEEENS_14default_deleteIS7_EEEENS5_ISA_EEE13shrink_to_fitEv, symObjAddr: 0x3844, symBinAddr: 0x43744, symSize: 0xAC }
  - { offset: 0x211082, size: 0x8, addend: 0x0, symName: __ZN9Scintilla8Internal12CharClassifyC2Ev, symObjAddr: 0x0, symBinAddr: 0x439B4, symSize: 0x4C }
  - { offset: 0x2110E8, size: 0x8, addend: 0x0, symName: __ZN9Scintilla8Internal12CharClassifyC2Ev, symObjAddr: 0x0, symBinAddr: 0x439B4, symSize: 0x4C }
  - { offset: 0x211123, size: 0x8, addend: 0x0, symName: __ZN9Scintilla8Internal12CharClassify21SetDefaultCharClassesEb, symObjAddr: 0x4C, symBinAddr: 0x43A00, symSize: 0x98 }
  - { offset: 0x2111B3, size: 0x8, addend: 0x0, symName: __ZN9Scintilla8Internal12CharClassifyC1Ev, symObjAddr: 0xE4, symBinAddr: 0x43A98, symSize: 0x4C }
  - { offset: 0x211214, size: 0x8, addend: 0x0, symName: __ZN9Scintilla8Internal12CharClassify14SetCharClassesEPKhNS0_14CharacterClassE, symObjAddr: 0x130, symBinAddr: 0x43AE4, symSize: 0x20 }
  - { offset: 0x211255, size: 0x8, addend: 0x0, symName: __ZNK9Scintilla8Internal12CharClassify15GetCharsOfClassENS0_14CharacterClassEPh, symObjAddr: 0x150, symBinAddr: 0x43B04, symSize: 0x34 }
  - { offset: 0x2118F7, size: 0x8, addend: 0x0, symName: __ZN9Scintilla8Internal10LineMarkerC2ERKS1_, symObjAddr: 0x0, symBinAddr: 0x43B38, symSize: 0x1B4 }
  - { offset: 0x214A49, size: 0x8, addend: 0x0, symName: __ZN9Scintilla8Internal10LineMarkerD2Ev, symObjAddr: 0x1ADC, symBinAddr: 0x454DC, symSize: 0x54 }
  - { offset: 0x215864, size: 0x8, addend: 0x0, symName: __ZN12_GLOBAL__N_110DrawSymbolEPN9Scintilla8Internal7SurfaceENS_5ShapeENS_9ExpansionENS1_10PRectangleEdNS1_10ColourRGBAES7_S7_S7_, symObjAddr: 0xB90, symBinAddr: 0x446C8, symSize: 0x208 }
  - { offset: 0x215ED8, size: 0x8, addend: 0x0, symName: __ZN9Scintilla8Internal10LineMarkerC2ERKS1_, symObjAddr: 0x0, symBinAddr: 0x43B38, symSize: 0x1B4 }
  - { offset: 0x2163D2, size: 0x8, addend: 0x0, symName: __ZNSt3__16vectorIhNS_9allocatorIhEEE16__init_with_sizeB8ne180100IPhS5_EEvT_T0_m, symObjAddr: 0x1834, symBinAddr: 0x4536C, symSize: 0x78 }
  - { offset: 0x2167D4, size: 0x8, addend: 0x0, symName: __ZNKSt3__114default_deleteIN9Scintilla8Internal3XPMEEclB8ne180100EPS3_, symObjAddr: 0x17C4, symBinAddr: 0x452FC, symSize: 0x38 }
  - { offset: 0x216969, size: 0x8, addend: 0x0, symName: __ZNKSt3__114default_deleteIN9Scintilla8Internal9RGBAImageEEclB8ne180100EPS3_, symObjAddr: 0x17FC, symBinAddr: 0x45334, symSize: 0x38 }
  - { offset: 0x216AFE, size: 0x8, addend: 0x0, symName: __ZN9Scintilla8Internal10LineMarkerC1ERKS1_, symObjAddr: 0x1B4, symBinAddr: 0x43CEC, symSize: 0x4 }
  - { offset: 0x216B38, size: 0x8, addend: 0x0, symName: __ZN9Scintilla8Internal10LineMarkerC1ERKS1_, symObjAddr: 0x1B4, symBinAddr: 0x43CEC, symSize: 0x4 }
  - { offset: 0x216B51, size: 0x8, addend: 0x0, symName: __ZN9Scintilla8Internal10LineMarkeraSERKS1_, symObjAddr: 0x1B8, symBinAddr: 0x43CF0, symSize: 0x14C }
  - { offset: 0x216EF9, size: 0x8, addend: 0x0, symName: __ZNK9Scintilla8Internal10LineMarker13BackWithAlphaEv, symObjAddr: 0x304, symBinAddr: 0x43E3C, symSize: 0x14 }
  - { offset: 0x216F48, size: 0x8, addend: 0x0, symName: __ZN9Scintilla8Internal10LineMarker6SetXPMEPKc, symObjAddr: 0x318, symBinAddr: 0x43E50, symSize: 0x6C }
  - { offset: 0x216FEA, size: 0x8, addend: 0x0, symName: __ZN9Scintilla8Internal10LineMarker6SetXPMEPKPKc, symObjAddr: 0x384, symBinAddr: 0x43EBC, symSize: 0x6C }
  - { offset: 0x217096, size: 0x8, addend: 0x0, symName: __ZN9Scintilla8Internal10LineMarker12SetRGBAImageENS0_5PointEfPKh, symObjAddr: 0x3F0, symBinAddr: 0x43F28, symSize: 0x94 }
  - { offset: 0x217251, size: 0x8, addend: 0x0, symName: __ZNK9Scintilla8Internal10LineMarker15DrawFoldingMarkEPNS0_7SurfaceERKNS0_10PRectangleENS1_8FoldPartE, symObjAddr: 0x484, symBinAddr: 0x43FBC, symSize: 0x70C }
  - { offset: 0x217ABA, size: 0x8, addend: 0x0, symName: __ZNK9Scintilla8Internal10LineMarker14AlignedPolygonEPNS0_7SurfaceEPKNS0_5PointEm, symObjAddr: 0xD98, symBinAddr: 0x448D0, symSize: 0xF8 }
  - { offset: 0x2182CB, size: 0x8, addend: 0x0, symName: __ZNSt3__120back_insert_iteratorINS_6vectorIN9Scintilla8Internal5PointENS_9allocatorIS4_EEEEEaSB8ne180100EOS4_, symObjAddr: 0x199C, symBinAddr: 0x453E4, symSize: 0xF8 }
  - { offset: 0x2187D7, size: 0x8, addend: 0x0, symName: __ZNK9Scintilla8Internal10LineMarker4DrawEPNS0_7SurfaceERKNS0_10PRectangleEPKNS0_4FontENS1_8FoldPartENS_10MarginTypeE, symObjAddr: 0xE90, symBinAddr: 0x449C8, symSize: 0x91C }
  - { offset: 0x21A5EC, size: 0x8, addend: 0x0, symName: __ZN9Scintilla8Internal10LineMarkerD1Ev, symObjAddr: 0x17AC, symBinAddr: 0x452E4, symSize: 0x4 }
  - { offset: 0x21A60F, size: 0x8, addend: 0x0, symName: __ZN9Scintilla8Internal10LineMarkerD1Ev, symObjAddr: 0x17AC, symBinAddr: 0x452E4, symSize: 0x4 }
  - { offset: 0x21A622, size: 0x8, addend: 0x0, symName: __ZN9Scintilla8Internal10LineMarkerD2Ev, symObjAddr: 0x1ADC, symBinAddr: 0x454DC, symSize: 0x54 }
  - { offset: 0x21A758, size: 0x8, addend: 0x0, symName: __ZN9Scintilla8Internal10LineMarkerD0Ev, symObjAddr: 0x17B0, symBinAddr: 0x452E8, symSize: 0x14 }
  - { offset: 0x21CE83, size: 0x8, addend: 0x0, symName: __ZN9Scintilla8Internal6KeyMapC2Ev, symObjAddr: 0x0, symBinAddr: 0x45530, symSize: 0xC0 }
  - { offset: 0x21CE9B, size: 0x8, addend: 0x0, symName: __ZN9Scintilla8Internal6KeyMap10MapDefaultE, symObjAddr: 0x548, symBinAddr: 0x909E0, symSize: 0x0 }
  - { offset: 0x21F14C, size: 0x8, addend: 0x0, symName: __ZNSt3__119piecewise_constructE, symObjAddr: 0x8F0, symBinAddr: 0x90D88, symSize: 0x0 }
  - { offset: 0x2208E8, size: 0x8, addend: 0x0, symName: __ZN9Scintilla8Internal6KeyMapC2Ev, symObjAddr: 0x0, symBinAddr: 0x45530, symSize: 0xC0 }
  - { offset: 0x220B95, size: 0x8, addend: 0x0, symName: __ZNSt3__16__treeINS_12__value_typeIN9Scintilla8Internal12KeyModifiersENS2_7MessageEEENS_19__map_value_compareIS4_S6_NS_4lessIS4_EELb1EEENS_9allocatorIS6_EEE25__emplace_unique_key_argsIS4_JRKNS_21piecewise_construct_tENS_5tupleIJOS4_EEENSI_IJEEEEEENS_4pairINS_15__tree_iteratorIS6_PNS_11__tree_nodeIS6_PvEElEEbEERKT_DpOT0_, symObjAddr: 0x1D0, symBinAddr: 0x45700, symSize: 0x88 }
  - { offset: 0x220E3C, size: 0x8, addend: 0x0, symName: __ZNSt3__16__treeINS_12__value_typeIN9Scintilla8Internal12KeyModifiersENS2_7MessageEEENS_19__map_value_compareIS4_S6_NS_4lessIS4_EELb1EEENS_9allocatorIS6_EEE7destroyEPNS_11__tree_nodeIS6_PvEE, symObjAddr: 0x190, symBinAddr: 0x456C0, symSize: 0x40 }
  - { offset: 0x220F72, size: 0x8, addend: 0x0, symName: __ZN9Scintilla8Internal6KeyMap12AssignCmdKeyENS_4KeysENS_6KeyModENS_7MessageE, symObjAddr: 0xC0, symBinAddr: 0x455F0, symSize: 0x4C }
  - { offset: 0x221053, size: 0x8, addend: 0x0, symName: __ZN9Scintilla8Internal6KeyMapC1Ev, symObjAddr: 0x10C, symBinAddr: 0x4563C, symSize: 0x4 }
  - { offset: 0x221080, size: 0x8, addend: 0x0, symName: __ZN9Scintilla8Internal6KeyMapC1Ev, symObjAddr: 0x10C, symBinAddr: 0x4563C, symSize: 0x4 }
  - { offset: 0x2210BD, size: 0x8, addend: 0x0, symName: __ZN9Scintilla8Internal6KeyMap5ClearEv, symObjAddr: 0x110, symBinAddr: 0x45640, symSize: 0x34 }
  - { offset: 0x2211B0, size: 0x8, addend: 0x0, symName: __ZNK9Scintilla8Internal6KeyMap4FindENS_4KeysENS_6KeyModE, symObjAddr: 0x144, symBinAddr: 0x45674, symSize: 0x48 }
  - { offset: 0x2212F3, size: 0x8, addend: 0x0, symName: __ZNKSt3__16__treeINS_12__value_typeIN9Scintilla8Internal12KeyModifiersENS2_7MessageEEENS_19__map_value_compareIS4_S6_NS_4lessIS4_EELb1EEENS_9allocatorIS6_EEE4findIS4_EENS_21__tree_const_iteratorIS6_PNS_11__tree_nodeIS6_PvEElEERKT_, symObjAddr: 0x4C4, symBinAddr: 0x4585C, symSize: 0x74 }
  - { offset: 0x22133D, size: 0x8, addend: 0x0, symName: __ZNKSt3__16__treeINS_12__value_typeIN9Scintilla8Internal12KeyModifiersENS2_7MessageEEENS_19__map_value_compareIS4_S6_NS_4lessIS4_EELb1EEENS_9allocatorIS6_EEE4findIS4_EENS_21__tree_const_iteratorIS6_PNS_11__tree_nodeIS6_PvEElEERKT_, symObjAddr: 0x4C4, symBinAddr: 0x4585C, symSize: 0x74 }
  - { offset: 0x221440, size: 0x8, addend: 0x0, symName: __ZNK9Scintilla8Internal6KeyMap9GetKeyMapEv, symObjAddr: 0x18C, symBinAddr: 0x456BC, symSize: 0x4 }
  - { offset: 0x221755, size: 0x8, addend: 0x0, symName: __ZNSt3__16__treeINS_12__value_typeIN9Scintilla8Internal12KeyModifiersENS2_7MessageEEENS_19__map_value_compareIS4_S6_NS_4lessIS4_EELb1EEENS_9allocatorIS6_EEE12__find_equalIS4_EERPNS_16__tree_node_baseIPvEERPNS_15__tree_end_nodeISI_EERKT_, symObjAddr: 0x258, symBinAddr: 0x45788, symSize: 0x80 }
  - { offset: 0x2217BF, size: 0x8, addend: 0x0, symName: __ZNSt3__16__treeINS_12__value_typeIN9Scintilla8Internal12KeyModifiersENS2_7MessageEEENS_19__map_value_compareIS4_S6_NS_4lessIS4_EELb1EEENS_9allocatorIS6_EEE12__find_equalIS4_EERPNS_16__tree_node_baseIPvEERPNS_15__tree_end_nodeISI_EERKT_, symObjAddr: 0x258, symBinAddr: 0x45788, symSize: 0x80 }
  - { offset: 0x2218A6, size: 0x8, addend: 0x0, symName: __ZNSt3__16__treeINS_12__value_typeIN9Scintilla8Internal12KeyModifiersENS2_7MessageEEENS_19__map_value_compareIS4_S6_NS_4lessIS4_EELb1EEENS_9allocatorIS6_EEE16__insert_node_atEPNS_15__tree_end_nodeIPNS_16__tree_node_baseIPvEEEERSI_SI_, symObjAddr: 0x2D8, symBinAddr: 0x45808, symSize: 0x54 }
  - { offset: 0x229CAD, size: 0x8, addend: 0x0, symName: __ZNK9Scintilla8Internal9RunStylesIiiE15RunFromPositionEi, symObjAddr: 0x0, symBinAddr: 0x458D0, symSize: 0x94 }
  - { offset: 0x229E70, size: 0x8, addend: 0x0, symName: __ZN9Scintilla8Internal9RunStylesIiiE8SplitRunEi, symObjAddr: 0x19C, symBinAddr: 0x45964, symSize: 0xC0 }
  - { offset: 0x229FE7, size: 0x8, addend: 0x0, symName: __ZNK9Scintilla8Internal9RunStylesIiiE7ValueAtEi, symObjAddr: 0x25C, symBinAddr: 0x45A24, symSize: 0x60 }
  - { offset: 0x22A0D0, size: 0x8, addend: 0x0, symName: __ZN9Scintilla8Internal11SplitVectorIiE11InsertValueElli, symObjAddr: 0x31C, symBinAddr: 0x45A84, symSize: 0xA0 }
  - { offset: 0x22A4AE, size: 0x8, addend: 0x0, symName: __ZN9Scintilla8Internal9RunStylesIiiE9RemoveRunEi, symObjAddr: 0x3BC, symBinAddr: 0x45B24, symSize: 0x30 }
  - { offset: 0x22A876, size: 0x8, addend: 0x0, symName: __ZN9Scintilla8Internal9RunStylesIiiE16RemoveRunIfEmptyEi, symObjAddr: 0x4D4, symBinAddr: 0x45B54, symSize: 0x108 }
  - { offset: 0x22AA19, size: 0x8, addend: 0x0, symName: __ZN9Scintilla8Internal9RunStylesIiiE25RemoveRunIfSameAsPreviousEi, symObjAddr: 0x5DC, symBinAddr: 0x45C5C, symSize: 0xD4 }
  - { offset: 0x22AE10, size: 0x8, addend: 0x0, symName: __ZN9Scintilla8Internal9RunStylesIiiEC2Ev, symObjAddr: 0x6B0, symBinAddr: 0x45D30, symSize: 0x15C }
  - { offset: 0x22B6B1, size: 0x8, addend: 0x0, symName: __ZN9Scintilla8Internal9RunStylesIiiEC1Ev, symObjAddr: 0x80C, symBinAddr: 0x45E8C, symSize: 0x4 }
  - { offset: 0x22B6DE, size: 0x8, addend: 0x0, symName: __ZN9Scintilla8Internal9RunStylesIiiEC1Ev, symObjAddr: 0x80C, symBinAddr: 0x45E8C, symSize: 0x4 }
  - { offset: 0x22B6F0, size: 0x8, addend: 0x0, symName: __ZNK9Scintilla8Internal9RunStylesIiiE6LengthEv, symObjAddr: 0x810, symBinAddr: 0x45E90, symSize: 0x5C }
  - { offset: 0x22B71A, size: 0x8, addend: 0x0, symName: __ZNK9Scintilla8Internal9RunStylesIiiE6LengthEv, symObjAddr: 0x810, symBinAddr: 0x45E90, symSize: 0x5C }
  - { offset: 0x22B735, size: 0x8, addend: 0x0, symName: __ZNK9Scintilla8Internal9RunStylesIiiE6LengthEv, symObjAddr: 0x810, symBinAddr: 0x45E90, symSize: 0x5C }
  - { offset: 0x22B7B7, size: 0x8, addend: 0x0, symName: __ZNK9Scintilla8Internal9RunStylesIiiE14FindNextChangeEii, symObjAddr: 0x86C, symBinAddr: 0x45EEC, symSize: 0xF8 }
  - { offset: 0x22B963, size: 0x8, addend: 0x0, symName: __ZNK9Scintilla8Internal9RunStylesIiiE8StartRunEi, symObjAddr: 0x964, symBinAddr: 0x45FE4, symSize: 0x70 }
  - { offset: 0x22BA45, size: 0x8, addend: 0x0, symName: __ZNK9Scintilla8Internal9RunStylesIiiE6EndRunEi, symObjAddr: 0x9D4, symBinAddr: 0x46054, symSize: 0x74 }
  - { offset: 0x22BB77, size: 0x8, addend: 0x0, symName: __ZN9Scintilla8Internal9RunStylesIiiE9FillRangeEiii, symObjAddr: 0xA48, symBinAddr: 0x460C8, symSize: 0x32C }
  - { offset: 0x22C055, size: 0x8, addend: 0x0, symName: __ZN9Scintilla8Internal9RunStylesIiiE10SetValueAtEii, symObjAddr: 0xD74, symBinAddr: 0x463F4, symSize: 0x8 }
  - { offset: 0x22C0F5, size: 0x8, addend: 0x0, symName: __ZN9Scintilla8Internal9RunStylesIiiE11InsertSpaceEii, symObjAddr: 0xD7C, symBinAddr: 0x463FC, symSize: 0x11C }
  - { offset: 0x22C36F, size: 0x8, addend: 0x0, symName: __ZN9Scintilla8Internal9RunStylesIiiE9DeleteAllEv, symObjAddr: 0xF34, symBinAddr: 0x46518, symSize: 0xF0 }
  - { offset: 0x22C74D, size: 0x8, addend: 0x0, symName: __ZN9Scintilla8Internal9RunStylesIiiE11DeleteRangeEii, symObjAddr: 0x1024, symBinAddr: 0x46608, symSize: 0xFC }
  - { offset: 0x22C90C, size: 0x8, addend: 0x0, symName: __ZNK9Scintilla8Internal9RunStylesIiiE4RunsEv, symObjAddr: 0x1120, symBinAddr: 0x46704, symSize: 0xC }
  - { offset: 0x22C936, size: 0x8, addend: 0x0, symName: __ZNK9Scintilla8Internal9RunStylesIiiE4RunsEv, symObjAddr: 0x1120, symBinAddr: 0x46704, symSize: 0xC }
  - { offset: 0x22C951, size: 0x8, addend: 0x0, symName: __ZNK9Scintilla8Internal9RunStylesIiiE4RunsEv, symObjAddr: 0x1120, symBinAddr: 0x46704, symSize: 0xC }
  - { offset: 0x22C96D, size: 0x8, addend: 0x0, symName: __ZNK9Scintilla8Internal9RunStylesIiiE7AllSameEv, symObjAddr: 0x112C, symBinAddr: 0x46710, symSize: 0xAC }
  - { offset: 0x22CA45, size: 0x8, addend: 0x0, symName: __ZNK9Scintilla8Internal9RunStylesIiiE9AllSameAsEi, symObjAddr: 0x11D8, symBinAddr: 0x467BC, symSize: 0x68 }
  - { offset: 0x22CB06, size: 0x8, addend: 0x0, symName: __ZNK9Scintilla8Internal9RunStylesIiiE4FindEii, symObjAddr: 0x1240, symBinAddr: 0x46824, symSize: 0x18C }
  - { offset: 0x22CCA1, size: 0x8, addend: 0x0, symName: __ZNK9Scintilla8Internal9RunStylesIiiE5CheckEv, symObjAddr: 0x13CC, symBinAddr: 0x469B0, symSize: 0x210 }
  - { offset: 0x22CE93, size: 0x8, addend: 0x0, symName: __ZNK9Scintilla8Internal9RunStylesIicE15RunFromPositionEi, symObjAddr: 0x15DC, symBinAddr: 0x46BC0, symSize: 0x94 }
  - { offset: 0x22CF7D, size: 0x8, addend: 0x0, symName: __ZN9Scintilla8Internal9RunStylesIicE8SplitRunEi, symObjAddr: 0x1670, symBinAddr: 0x46C54, symSize: 0xC0 }
  - { offset: 0x22D0F0, size: 0x8, addend: 0x0, symName: __ZNK9Scintilla8Internal9RunStylesIicE7ValueAtEi, symObjAddr: 0x1730, symBinAddr: 0x46D14, symSize: 0x68 }
  - { offset: 0x22D1A0, size: 0x8, addend: 0x0, symName: __ZN9Scintilla8Internal11SplitVectorIcE11InsertValueEllc, symObjAddr: 0x1798, symBinAddr: 0x46D7C, symSize: 0xE0 }
  - { offset: 0x22D691, size: 0x8, addend: 0x0, symName: __ZN9Scintilla8Internal11SplitVectorIcE7RoomForEl, symObjAddr: 0x5924, symBinAddr: 0x4A5F0, symSize: 0x50 }
  - { offset: 0x22D6D2, size: 0x8, addend: 0x0, symName: __ZN9Scintilla8Internal9RunStylesIicE9RemoveRunEi, symObjAddr: 0x1878, symBinAddr: 0x46E5C, symSize: 0x30 }
  - { offset: 0x22D72D, size: 0x8, addend: 0x0, symName: __ZN9Scintilla8Internal11SplitVectorIcE11DeleteRangeEll, symObjAddr: 0x18A8, symBinAddr: 0x46E8C, symSize: 0xF0 }
  - { offset: 0x22DB27, size: 0x8, addend: 0x0, symName: __ZNSt3__16vectorIcNS_9allocatorIcEEE13shrink_to_fitEv, symObjAddr: 0x5C3C, symBinAddr: 0x4A8F4, symSize: 0xA4 }
  - { offset: 0x22DE96, size: 0x8, addend: 0x0, symName: __ZN9Scintilla8Internal9RunStylesIicE16RemoveRunIfEmptyEi, symObjAddr: 0x1998, symBinAddr: 0x46F7C, symSize: 0x108 }
  - { offset: 0x22E039, size: 0x8, addend: 0x0, symName: __ZN9Scintilla8Internal9RunStylesIicE25RemoveRunIfSameAsPreviousEi, symObjAddr: 0x1AA0, symBinAddr: 0x47084, symSize: 0xD8 }
  - { offset: 0x22E38B, size: 0x8, addend: 0x0, symName: __ZN9Scintilla8Internal9RunStylesIicEC2Ev, symObjAddr: 0x1B78, symBinAddr: 0x4715C, symSize: 0x15C }
  - { offset: 0x22EAE5, size: 0x8, addend: 0x0, symName: __ZN9Scintilla8Internal9RunStylesIicEC1Ev, symObjAddr: 0x1CD4, symBinAddr: 0x472B8, symSize: 0x4 }
  - { offset: 0x22EB12, size: 0x8, addend: 0x0, symName: __ZN9Scintilla8Internal9RunStylesIicEC1Ev, symObjAddr: 0x1CD4, symBinAddr: 0x472B8, symSize: 0x4 }
  - { offset: 0x22EB24, size: 0x8, addend: 0x0, symName: __ZNK9Scintilla8Internal9RunStylesIicE6LengthEv, symObjAddr: 0x1CD8, symBinAddr: 0x472BC, symSize: 0x5C }
  - { offset: 0x22EB4E, size: 0x8, addend: 0x0, symName: __ZNK9Scintilla8Internal9RunStylesIicE6LengthEv, symObjAddr: 0x1CD8, symBinAddr: 0x472BC, symSize: 0x5C }
  - { offset: 0x22EB69, size: 0x8, addend: 0x0, symName: __ZNK9Scintilla8Internal9RunStylesIicE6LengthEv, symObjAddr: 0x1CD8, symBinAddr: 0x472BC, symSize: 0x5C }
  - { offset: 0x22EBEB, size: 0x8, addend: 0x0, symName: __ZNK9Scintilla8Internal9RunStylesIicE14FindNextChangeEii, symObjAddr: 0x1D34, symBinAddr: 0x47318, symSize: 0xF8 }
  - { offset: 0x22ED97, size: 0x8, addend: 0x0, symName: __ZNK9Scintilla8Internal9RunStylesIicE8StartRunEi, symObjAddr: 0x1E2C, symBinAddr: 0x47410, symSize: 0x70 }
  - { offset: 0x22EE79, size: 0x8, addend: 0x0, symName: __ZNK9Scintilla8Internal9RunStylesIicE6EndRunEi, symObjAddr: 0x1E9C, symBinAddr: 0x47480, symSize: 0x74 }
  - { offset: 0x22EFAB, size: 0x8, addend: 0x0, symName: __ZN9Scintilla8Internal9RunStylesIicE9FillRangeEici, symObjAddr: 0x1F10, symBinAddr: 0x474F4, symSize: 0x338 }
  - { offset: 0x22F45D, size: 0x8, addend: 0x0, symName: __ZN9Scintilla8Internal9RunStylesIicE10SetValueAtEic, symObjAddr: 0x2248, symBinAddr: 0x4782C, symSize: 0x8 }
  - { offset: 0x22F4FD, size: 0x8, addend: 0x0, symName: __ZN9Scintilla8Internal9RunStylesIicE11InsertSpaceEii, symObjAddr: 0x2250, symBinAddr: 0x47834, symSize: 0x11C }
  - { offset: 0x22F6AF, size: 0x8, addend: 0x0, symName: __ZN9Scintilla8Internal9RunStylesIicE9DeleteAllEv, symObjAddr: 0x236C, symBinAddr: 0x47950, symSize: 0xF0 }
  - { offset: 0x22FA8D, size: 0x8, addend: 0x0, symName: __ZN9Scintilla8Internal9RunStylesIicE11DeleteRangeEii, symObjAddr: 0x245C, symBinAddr: 0x47A40, symSize: 0xFC }
  - { offset: 0x22FC4C, size: 0x8, addend: 0x0, symName: __ZNK9Scintilla8Internal9RunStylesIicE4RunsEv, symObjAddr: 0x2558, symBinAddr: 0x47B3C, symSize: 0xC }
  - { offset: 0x22FC76, size: 0x8, addend: 0x0, symName: __ZNK9Scintilla8Internal9RunStylesIicE4RunsEv, symObjAddr: 0x2558, symBinAddr: 0x47B3C, symSize: 0xC }
  - { offset: 0x22FC91, size: 0x8, addend: 0x0, symName: __ZNK9Scintilla8Internal9RunStylesIicE4RunsEv, symObjAddr: 0x2558, symBinAddr: 0x47B3C, symSize: 0xC }
  - { offset: 0x22FCAD, size: 0x8, addend: 0x0, symName: __ZNK9Scintilla8Internal9RunStylesIicE7AllSameEv, symObjAddr: 0x2564, symBinAddr: 0x47B48, symSize: 0xAC }
  - { offset: 0x22FD85, size: 0x8, addend: 0x0, symName: __ZNK9Scintilla8Internal9RunStylesIicE9AllSameAsEc, symObjAddr: 0x2610, symBinAddr: 0x47BF4, symSize: 0x68 }
  - { offset: 0x22FE46, size: 0x8, addend: 0x0, symName: __ZNK9Scintilla8Internal9RunStylesIicE4FindEci, symObjAddr: 0x2678, symBinAddr: 0x47C5C, symSize: 0x190 }
  - { offset: 0x22FFEF, size: 0x8, addend: 0x0, symName: __ZNK9Scintilla8Internal9RunStylesIicE5CheckEv, symObjAddr: 0x2808, symBinAddr: 0x47DEC, symSize: 0x20C }
  - { offset: 0x2302C3, size: 0x8, addend: 0x0, symName: __ZNK9Scintilla8Internal9RunStylesIliE15RunFromPositionEl, symObjAddr: 0x2A14, symBinAddr: 0x47FF8, symSize: 0x8C }
  - { offset: 0x230491, size: 0x8, addend: 0x0, symName: __ZN9Scintilla8Internal9RunStylesIliE8SplitRunEl, symObjAddr: 0x2B84, symBinAddr: 0x48084, symSize: 0xBC }
  - { offset: 0x2305EE, size: 0x8, addend: 0x0, symName: __ZNK9Scintilla8Internal9RunStylesIliE7ValueAtEl, symObjAddr: 0x2C40, symBinAddr: 0x48140, symSize: 0x64 }
  - { offset: 0x2307D3, size: 0x8, addend: 0x0, symName: __ZN9Scintilla8Internal9RunStylesIliE9RemoveRunEl, symObjAddr: 0x2D04, symBinAddr: 0x481A4, symSize: 0x30 }
  - { offset: 0x230983, size: 0x8, addend: 0x0, symName: __ZN9Scintilla8Internal9RunStylesIliE16RemoveRunIfEmptyEl, symObjAddr: 0x2D84, symBinAddr: 0x481D4, symSize: 0xE0 }
  - { offset: 0x230B12, size: 0x8, addend: 0x0, symName: __ZN9Scintilla8Internal9RunStylesIliE25RemoveRunIfSameAsPreviousEl, symObjAddr: 0x2E64, symBinAddr: 0x482B4, symSize: 0xD8 }
  - { offset: 0x230F28, size: 0x8, addend: 0x0, symName: __ZN9Scintilla8Internal9RunStylesIliEC2Ev, symObjAddr: 0x2F3C, symBinAddr: 0x4838C, symSize: 0x164 }
  - { offset: 0x2317A7, size: 0x8, addend: 0x0, symName: __ZN9Scintilla8Internal9RunStylesIliEC1Ev, symObjAddr: 0x30A0, symBinAddr: 0x484F0, symSize: 0x4 }
  - { offset: 0x2317D4, size: 0x8, addend: 0x0, symName: __ZN9Scintilla8Internal9RunStylesIliEC1Ev, symObjAddr: 0x30A0, symBinAddr: 0x484F0, symSize: 0x4 }
  - { offset: 0x2317E6, size: 0x8, addend: 0x0, symName: __ZNK9Scintilla8Internal9RunStylesIliE6LengthEv, symObjAddr: 0x30A4, symBinAddr: 0x484F4, symSize: 0x50 }
  - { offset: 0x23180A, size: 0x8, addend: 0x0, symName: __ZNK9Scintilla8Internal9RunStylesIliE6LengthEv, symObjAddr: 0x30A4, symBinAddr: 0x484F4, symSize: 0x50 }
  - { offset: 0x231825, size: 0x8, addend: 0x0, symName: __ZNK9Scintilla8Internal9RunStylesIliE6LengthEv, symObjAddr: 0x30A4, symBinAddr: 0x484F4, symSize: 0x50 }
  - { offset: 0x2318B3, size: 0x8, addend: 0x0, symName: __ZNK9Scintilla8Internal9RunStylesIliE14FindNextChangeEll, symObjAddr: 0x30F4, symBinAddr: 0x48544, symSize: 0xE8 }
  - { offset: 0x231A49, size: 0x8, addend: 0x0, symName: __ZNK9Scintilla8Internal9RunStylesIliE8StartRunEl, symObjAddr: 0x31DC, symBinAddr: 0x4862C, symSize: 0x6C }
  - { offset: 0x231B0B, size: 0x8, addend: 0x0, symName: __ZNK9Scintilla8Internal9RunStylesIliE6EndRunEl, symObjAddr: 0x3248, symBinAddr: 0x48698, symSize: 0x70 }
  - { offset: 0x231BE4, size: 0x8, addend: 0x0, symName: __ZN9Scintilla8Internal9RunStylesIliE9FillRangeElil, symObjAddr: 0x32B8, symBinAddr: 0x48708, symSize: 0x370 }
  - { offset: 0x2320F7, size: 0x8, addend: 0x0, symName: __ZN9Scintilla8Internal9RunStylesIliE10SetValueAtEli, symObjAddr: 0x3628, symBinAddr: 0x48A78, symSize: 0x24 }
  - { offset: 0x23216A, size: 0x8, addend: 0x0, symName: __ZN9Scintilla8Internal9RunStylesIliE11InsertSpaceEll, symObjAddr: 0x364C, symBinAddr: 0x48A9C, symSize: 0x110 }
  - { offset: 0x2323CC, size: 0x8, addend: 0x0, symName: __ZN9Scintilla8Internal9RunStylesIliE9DeleteAllEv, symObjAddr: 0x37F8, symBinAddr: 0x48BAC, symSize: 0xF8 }
  - { offset: 0x2327B4, size: 0x8, addend: 0x0, symName: __ZN9Scintilla8Internal9RunStylesIliE11DeleteRangeEll, symObjAddr: 0x38F0, symBinAddr: 0x48CA4, symSize: 0xF8 }
  - { offset: 0x232973, size: 0x8, addend: 0x0, symName: __ZNK9Scintilla8Internal9RunStylesIliE4RunsEv, symObjAddr: 0x39E8, symBinAddr: 0x48D9C, symSize: 0xC }
  - { offset: 0x23299D, size: 0x8, addend: 0x0, symName: __ZNK9Scintilla8Internal9RunStylesIliE4RunsEv, symObjAddr: 0x39E8, symBinAddr: 0x48D9C, symSize: 0xC }
  - { offset: 0x2329B8, size: 0x8, addend: 0x0, symName: __ZNK9Scintilla8Internal9RunStylesIliE4RunsEv, symObjAddr: 0x39E8, symBinAddr: 0x48D9C, symSize: 0xC }
  - { offset: 0x2329D4, size: 0x8, addend: 0x0, symName: __ZNK9Scintilla8Internal9RunStylesIliE7AllSameEv, symObjAddr: 0x39F4, symBinAddr: 0x48DA8, symSize: 0xC0 }
  - { offset: 0x232AA4, size: 0x8, addend: 0x0, symName: __ZNK9Scintilla8Internal9RunStylesIliE9AllSameAsEi, symObjAddr: 0x3AB4, symBinAddr: 0x48E68, symSize: 0x68 }
  - { offset: 0x232B65, size: 0x8, addend: 0x0, symName: __ZNK9Scintilla8Internal9RunStylesIliE4FindEil, symObjAddr: 0x3B1C, symBinAddr: 0x48ED0, symSize: 0x1A8 }
  - { offset: 0x232DBA, size: 0x8, addend: 0x0, symName: __ZNK9Scintilla8Internal9RunStylesIliE5CheckEv, symObjAddr: 0x3CC4, symBinAddr: 0x49078, symSize: 0x27C }
  - { offset: 0x2330E1, size: 0x8, addend: 0x0, symName: __ZNK9Scintilla8Internal9RunStylesIlcE15RunFromPositionEl, symObjAddr: 0x3F40, symBinAddr: 0x492F4, symSize: 0x8C }
  - { offset: 0x2331D0, size: 0x8, addend: 0x0, symName: __ZN9Scintilla8Internal9RunStylesIlcE8SplitRunEl, symObjAddr: 0x3FCC, symBinAddr: 0x49380, symSize: 0xBC }
  - { offset: 0x233329, size: 0x8, addend: 0x0, symName: __ZNK9Scintilla8Internal9RunStylesIlcE7ValueAtEl, symObjAddr: 0x4088, symBinAddr: 0x4943C, symSize: 0x64 }
  - { offset: 0x2333D7, size: 0x8, addend: 0x0, symName: __ZN9Scintilla8Internal9RunStylesIlcE9RemoveRunEl, symObjAddr: 0x40EC, symBinAddr: 0x494A0, symSize: 0x30 }
  - { offset: 0x233457, size: 0x8, addend: 0x0, symName: __ZN9Scintilla8Internal9RunStylesIlcE16RemoveRunIfEmptyEl, symObjAddr: 0x411C, symBinAddr: 0x494D0, symSize: 0xE0 }
  - { offset: 0x2335E6, size: 0x8, addend: 0x0, symName: __ZN9Scintilla8Internal9RunStylesIlcE25RemoveRunIfSameAsPreviousEl, symObjAddr: 0x41FC, symBinAddr: 0x495B0, symSize: 0xDC }
  - { offset: 0x233791, size: 0x8, addend: 0x0, symName: __ZN9Scintilla8Internal9RunStylesIlcEC2Ev, symObjAddr: 0x42D8, symBinAddr: 0x4968C, symSize: 0x164 }
  - { offset: 0x233EF5, size: 0x8, addend: 0x0, symName: __ZN9Scintilla8Internal9RunStylesIlcEC1Ev, symObjAddr: 0x443C, symBinAddr: 0x497F0, symSize: 0x4 }
  - { offset: 0x233F22, size: 0x8, addend: 0x0, symName: __ZN9Scintilla8Internal9RunStylesIlcEC1Ev, symObjAddr: 0x443C, symBinAddr: 0x497F0, symSize: 0x4 }
  - { offset: 0x233F34, size: 0x8, addend: 0x0, symName: __ZNK9Scintilla8Internal9RunStylesIlcE6LengthEv, symObjAddr: 0x4440, symBinAddr: 0x497F4, symSize: 0x50 }
  - { offset: 0x233F58, size: 0x8, addend: 0x0, symName: __ZNK9Scintilla8Internal9RunStylesIlcE6LengthEv, symObjAddr: 0x4440, symBinAddr: 0x497F4, symSize: 0x50 }
  - { offset: 0x233F73, size: 0x8, addend: 0x0, symName: __ZNK9Scintilla8Internal9RunStylesIlcE6LengthEv, symObjAddr: 0x4440, symBinAddr: 0x497F4, symSize: 0x50 }
  - { offset: 0x234001, size: 0x8, addend: 0x0, symName: __ZNK9Scintilla8Internal9RunStylesIlcE14FindNextChangeEll, symObjAddr: 0x4490, symBinAddr: 0x49844, symSize: 0xE8 }
  - { offset: 0x234197, size: 0x8, addend: 0x0, symName: __ZNK9Scintilla8Internal9RunStylesIlcE8StartRunEl, symObjAddr: 0x4578, symBinAddr: 0x4992C, symSize: 0x6C }
  - { offset: 0x234259, size: 0x8, addend: 0x0, symName: __ZNK9Scintilla8Internal9RunStylesIlcE6EndRunEl, symObjAddr: 0x45E4, symBinAddr: 0x49998, symSize: 0x70 }
  - { offset: 0x234332, size: 0x8, addend: 0x0, symName: __ZN9Scintilla8Internal9RunStylesIlcE9FillRangeElcl, symObjAddr: 0x4654, symBinAddr: 0x49A08, symSize: 0x370 }
  - { offset: 0x234839, size: 0x8, addend: 0x0, symName: __ZN9Scintilla8Internal9RunStylesIlcE10SetValueAtElc, symObjAddr: 0x49C4, symBinAddr: 0x49D78, symSize: 0x24 }
  - { offset: 0x2348AC, size: 0x8, addend: 0x0, symName: __ZN9Scintilla8Internal9RunStylesIlcE11InsertSpaceEll, symObjAddr: 0x49E8, symBinAddr: 0x49D9C, symSize: 0x110 }
  - { offset: 0x234A46, size: 0x8, addend: 0x0, symName: __ZN9Scintilla8Internal9RunStylesIlcE9DeleteAllEv, symObjAddr: 0x4AF8, symBinAddr: 0x49EAC, symSize: 0xF8 }
  - { offset: 0x234E2E, size: 0x8, addend: 0x0, symName: __ZN9Scintilla8Internal9RunStylesIlcE11DeleteRangeEll, symObjAddr: 0x4BF0, symBinAddr: 0x49FA4, symSize: 0xF8 }
  - { offset: 0x234FED, size: 0x8, addend: 0x0, symName: __ZNK9Scintilla8Internal9RunStylesIlcE4RunsEv, symObjAddr: 0x4CE8, symBinAddr: 0x4A09C, symSize: 0xC }
  - { offset: 0x235017, size: 0x8, addend: 0x0, symName: __ZNK9Scintilla8Internal9RunStylesIlcE4RunsEv, symObjAddr: 0x4CE8, symBinAddr: 0x4A09C, symSize: 0xC }
  - { offset: 0x235032, size: 0x8, addend: 0x0, symName: __ZNK9Scintilla8Internal9RunStylesIlcE4RunsEv, symObjAddr: 0x4CE8, symBinAddr: 0x4A09C, symSize: 0xC }
  - { offset: 0x23504E, size: 0x8, addend: 0x0, symName: __ZNK9Scintilla8Internal9RunStylesIlcE7AllSameEv, symObjAddr: 0x4CF4, symBinAddr: 0x4A0A8, symSize: 0xC0 }
  - { offset: 0x23511E, size: 0x8, addend: 0x0, symName: __ZNK9Scintilla8Internal9RunStylesIlcE9AllSameAsEc, symObjAddr: 0x4DB4, symBinAddr: 0x4A168, symSize: 0x68 }
  - { offset: 0x2351DF, size: 0x8, addend: 0x0, symName: __ZNK9Scintilla8Internal9RunStylesIlcE4FindEcl, symObjAddr: 0x4E1C, symBinAddr: 0x4A1D0, symSize: 0x1A8 }
  - { offset: 0x23542E, size: 0x8, addend: 0x0, symName: __ZNK9Scintilla8Internal9RunStylesIlcE5CheckEv, symObjAddr: 0x4FC4, symBinAddr: 0x4A378, symSize: 0x278 }
  - { offset: 0x236192, size: 0x8, addend: 0x0, symName: __ZN9Scintilla8Internal11SplitVectorIcE10ReAllocateEm, symObjAddr: 0x5974, symBinAddr: 0x4A640, symSize: 0xE4 }
  - { offset: 0x23657C, size: 0x8, addend: 0x0, symName: __ZNSt3__16vectorIcNS_9allocatorIcEEE7reserveEm, symObjAddr: 0x5A58, symBinAddr: 0x4A724, symSize: 0xA8 }
  - { offset: 0x2368D2, size: 0x8, addend: 0x0, symName: __ZNSt3__16vectorIcNS_9allocatorIcEEE8__appendEm, symObjAddr: 0x5B14, symBinAddr: 0x4A7CC, symSize: 0x128 }
  - { offset: 0x236DF6, size: 0x8, addend: 0x0, symName: __ZNSt3__16vectorIcNS_9allocatorIcEEE13shrink_to_fitEv, symObjAddr: 0x5C3C, symBinAddr: 0x4A8F4, symSize: 0xA4 }
  - { offset: 0x236F8A, size: 0x8, addend: 0x0, symName: __ZNSt3__16vectorIcNS_9allocatorIcEEE8__appendEm, symObjAddr: 0x5B14, symBinAddr: 0x4A7CC, symSize: 0x128 }
  - { offset: 0x239E15, size: 0x8, addend: 0x0, symName: __ZN9Scintilla8Internal22CompareCaseInsensitiveEPKcS2_, symObjAddr: 0x0, symBinAddr: 0x4A998, symSize: 0x6C }
  - { offset: 0x239E52, size: 0x8, addend: 0x0, symName: __ZN9Scintilla8Internal22CompareCaseInsensitiveEPKcS2_, symObjAddr: 0x0, symBinAddr: 0x4A998, symSize: 0x6C }
  - { offset: 0x239EF5, size: 0x8, addend: 0x0, symName: __ZN9Scintilla8Internal23CompareNCaseInsensitiveEPKcS2_m, symObjAddr: 0x6C, symBinAddr: 0x4AA04, symSize: 0x90 }
  - { offset: 0x25B120, size: 0x8, addend: 0x0, symName: '__ZNSt3__111__introsortINS_17_ClassicAlgPolicyERZN9Scintilla8Internal6Editor15InsertCharacterENS_17basic_string_viewIcNS_11char_traitsIcEEEENS2_15CharacterSourceEE3$_0PPNS3_14SelectionRangeELb0EEEvT1_SF_T0_NS_15iterator_traitsISF_E15difference_typeEb', symObjAddr: 0x170AC, symBinAddr: 0x616B4, symSize: 0x708 }
  - { offset: 0x25C068, size: 0x8, addend: 0x0, symName: '__ZNSt3__127__insertion_sort_incompleteB8ne180100INS_17_ClassicAlgPolicyERZN9Scintilla8Internal6Editor15InsertCharacterENS_17basic_string_viewIcNS_11char_traitsIcEEEENS2_15CharacterSourceEE3$_0PPNS3_14SelectionRangeEEEbT1_SF_T0_', symObjAddr: 0x17878, symBinAddr: 0x61E80, symSize: 0x1F8 }
  - { offset: 0x25C5DB, size: 0x8, addend: 0x0, symName: __ZNSt3__111__introsortINS_17_ClassicAlgPolicyERNS_6__lessIvvEEPN9Scintilla8Internal14SelectionRangeELb0EEEvT1_S9_T0_NS_15iterator_traitsIS9_E15difference_typeEb, symObjAddr: 0x17BF8, symBinAddr: 0x62174, symSize: 0x34C }
  - { offset: 0x25CAF5, size: 0x8, addend: 0x0, symName: __ZNSt3__126__insertion_sort_unguardedB8ne180100INS_17_ClassicAlgPolicyERNS_6__lessIvvEEPN9Scintilla8Internal14SelectionRangeEEEvT1_S9_T0_, symObjAddr: 0x18004, symBinAddr: 0x62580, symSize: 0x9C }
  - { offset: 0x25CC53, size: 0x8, addend: 0x0, symName: __ZNSt3__111__sift_downB8ne180100INS_17_ClassicAlgPolicyERNS_6__lessIvvEEPN9Scintilla8Internal14SelectionRangeEEEvT1_OT0_NS_15iterator_traitsIS9_E15difference_typeES9_, symObjAddr: 0x18818, symBinAddr: 0x62D94, symSize: 0x114 }
  - { offset: 0x25CDFB, size: 0x8, addend: 0x0, symName: __ZNSt3__117__floyd_sift_downB8ne180100INS_17_ClassicAlgPolicyERNS_6__lessIvvEEPN9Scintilla8Internal14SelectionRangeEEET1_S9_OT0_NS_15iterator_traitsIS9_E15difference_typeE, symObjAddr: 0x1892C, symBinAddr: 0x62EA8, symSize: 0xA4 }
  - { offset: 0x25CED7, size: 0x8, addend: 0x0, symName: __ZNSt3__131__partition_with_equals_on_leftB8ne180100INS_17_ClassicAlgPolicyEPN9Scintilla8Internal14SelectionRangeERNS_6__lessIvvEEEET0_S9_S9_T1_, symObjAddr: 0x18180, symBinAddr: 0x626FC, symSize: 0x110 }
  - { offset: 0x25D16E, size: 0x8, addend: 0x0, symName: __ZNSt3__132__partition_with_equals_on_rightB8ne180100INS_17_ClassicAlgPolicyEPN9Scintilla8Internal14SelectionRangeERNS_6__lessIvvEEEENS_4pairIT0_bEESA_SA_T1_, symObjAddr: 0x18290, symBinAddr: 0x6280C, symSize: 0x118 }
  - { offset: 0x25D3D1, size: 0x8, addend: 0x0, symName: __ZNSt3__127__insertion_sort_incompleteB8ne180100INS_17_ClassicAlgPolicyERNS_6__lessIvvEEPN9Scintilla8Internal14SelectionRangeEEEbT1_S9_T0_, symObjAddr: 0x183A8, symBinAddr: 0x62924, symSize: 0x1A0 }
  - { offset: 0x25E0E9, size: 0x8, addend: 0x0, symName: __ZNSt3__119__allocate_at_leastB8ne180100INS_9allocatorIN9Scintilla8Internal5RangeEEEEENS_19__allocation_resultINS_16allocator_traitsIT_E7pointerEEERS8_m, symObjAddr: 0x16660, symBinAddr: 0x60E30, symSize: 0x34 }
  - { offset: 0x25F2E2, size: 0x8, addend: 0x0, symName: __ZNSt3__119__allocate_at_leastB8ne180100INS_9allocatorINS_6futureIvEEEEEENS_19__allocation_resultINS_16allocator_traitsIT_E7pointerEEERS7_m, symObjAddr: 0x16F3C, symBinAddr: 0x615EC, symSize: 0x34 }
  - { offset: 0x25F37F, size: 0x8, addend: 0x0, symName: __ZNSt3__114__split_bufferINS_6futureIvEERNS_9allocatorIS2_EEED2Ev, symObjAddr: 0x16F70, symBinAddr: 0x61620, symSize: 0x4C }
  - { offset: 0x25F393, size: 0x8, addend: 0x0, symName: __ZNSt3__115allocate_sharedB8ne180100IN9Scintilla8Internal10LineLayoutENS_9allocatorIS3_EEJiiEvEENS_10shared_ptrIT_EERKT0_DpOT1_, symObjAddr: 0x16850, symBinAddr: 0x60F48, symSize: 0x60 }
  - { offset: 0x25FDD9, size: 0x8, addend: 0x0, symName: __ZNSt3__119__allocate_at_leastB8ne180100INS_9allocatorIPN9Scintilla8Internal14SelectionRangeEEEEENS_19__allocation_resultINS_16allocator_traitsIT_E7pointerEEERS9_m, symObjAddr: 0x17078, symBinAddr: 0x61680, symSize: 0x34 }
  - { offset: 0x25FE76, size: 0x8, addend: 0x0, symName: '__ZNSt3__111__introsortINS_17_ClassicAlgPolicyERZN9Scintilla8Internal6Editor15InsertCharacterENS_17basic_string_viewIcNS_11char_traitsIcEEEENS2_15CharacterSourceEE3$_0PPNS3_14SelectionRangeELb0EEEvT1_SF_T0_NS_15iterator_traitsISF_E15difference_typeEb', symObjAddr: 0x170AC, symBinAddr: 0x616B4, symSize: 0x708 }
  - { offset: 0x260644, size: 0x8, addend: 0x0, symName: __ZNSt3__16vectorINS_6futureIvEENS_9allocatorIS2_EEE16__destroy_vectorclB8ne180100Ev, symObjAddr: 0x167E0, symBinAddr: 0x60ED8, symSize: 0x70 }
  - { offset: 0x2609C3, size: 0x8, addend: 0x0, symName: '__ZNSt3__114__thread_proxyB8ne180100INS_5tupleIJNS_10unique_ptrINS_15__thread_structENS_14default_deleteIS3_EEEEMNS_19__async_assoc_stateIvNS_12__async_funcIZN9Scintilla8Internal6Editor9WrapBlockEPNSA_7SurfaceEllE3$_0JEEEEEFvvEPSG_EEEEEPvSL_', symObjAddr: 0x16D2C, symBinAddr: 0x613DC, symSize: 0x7C }
  - { offset: 0x261582, size: 0x8, addend: 0x0, symName: '__ZNSt3__17__sort3B8ne180100INS_17_ClassicAlgPolicyERZN9Scintilla8Internal6Editor15InsertCharacterENS_17basic_string_viewIcNS_11char_traitsIcEEEENS2_15CharacterSourceEE3$_0PPNS3_14SelectionRangeEEEjT1_SF_SF_T0_', symObjAddr: 0x177B4, symBinAddr: 0x61DBC, symSize: 0xC4 }
  - { offset: 0x2618EC, size: 0x8, addend: 0x0, symName: '__ZNSt3__17__sort4B8ne180100INS_17_ClassicAlgPolicyERZN9Scintilla8Internal6Editor15InsertCharacterENS_17basic_string_viewIcNS_11char_traitsIcEEEENS2_15CharacterSourceEE3$_0PPNS3_14SelectionRangeEEEvT1_SF_SF_SF_T0_', symObjAddr: 0x17AD8, symBinAddr: 0x620E0, symSize: 0x94 }
  - { offset: 0x261D68, size: 0x8, addend: 0x0, symName: __ZNSt3__17__sort3B8ne180100INS_17_ClassicAlgPolicyERNS_6__lessIvvEEPN9Scintilla8Internal14SelectionRangeEEEjT1_S9_S9_T0_, symObjAddr: 0x180A0, symBinAddr: 0x6261C, symSize: 0xE0 }
  - { offset: 0x2620C9, size: 0x8, addend: 0x0, symName: __ZNSt3__116__insertion_sortB8ne180100INS_17_ClassicAlgPolicyERNS_6__lessIvvEEPN9Scintilla8Internal14SelectionRangeEEEvT1_S9_T0_, symObjAddr: 0x17F44, symBinAddr: 0x624C0, symSize: 0xC0 }
  - { offset: 0x2621F3, size: 0x8, addend: 0x0, symName: __ZNSt3__17__sort4B8ne180100INS_17_ClassicAlgPolicyERNS_6__lessIvvEEPN9Scintilla8Internal14SelectionRangeEEEvT1_S9_S9_S9_T0_, symObjAddr: 0x18548, symBinAddr: 0x62AC4, symSize: 0xA0 }
  - { offset: 0x262482, size: 0x8, addend: 0x0, symName: __ZNSt3__17__sort5B8ne180100INS_17_ClassicAlgPolicyERNS_6__lessIvvEEPN9Scintilla8Internal14SelectionRangeEEEvT1_S9_S9_S9_S9_T0_, symObjAddr: 0x185E8, symBinAddr: 0x62B64, symSize: 0xCC }
  - { offset: 0x2627C8, size: 0x8, addend: 0x0, symName: __ZNSt3__119__partial_sort_implB8ne180100INS_17_ClassicAlgPolicyERNS_6__lessIvvEEPN9Scintilla8Internal14SelectionRangeES8_EET1_S9_S9_T2_OT0_, symObjAddr: 0x186B4, symBinAddr: 0x62C30, symSize: 0x164 }
  - { offset: 0x262C14, size: 0x8, addend: 0x0, symName: __ZNSt3__19__sift_upB8ne180100INS_17_ClassicAlgPolicyERNS_6__lessIvvEEPN9Scintilla8Internal14SelectionRangeEEEvT1_S9_OT0_NS_15iterator_traitsIS9_E15difference_typeE, symObjAddr: 0x189D0, symBinAddr: 0x62F4C, symSize: 0x98 }
  - { offset: 0x263034, size: 0x8, addend: 0x0, symName: __ZNSt3__119__allocate_at_leastB8ne180100INS_9allocatorIN9Scintilla8Internal11MarginStyleEEEEENS_19__allocation_resultINS_16allocator_traitsIT_E7pointerEEERS8_m, symObjAddr: 0x18C1C, symBinAddr: 0x63198, symSize: 0x44 }
  - { offset: 0x2630D1, size: 0x8, addend: 0x0, symName: __ZNSt3__16__treeINS_12__value_typeIN9Scintilla7ElementENS_8optionalINS2_8Internal10ColourRGBAEEEEENS_19__map_value_compareIS3_S8_NS_4lessIS3_EELb1EEENS_9allocatorIS8_EEE25__emplace_unique_key_argsIS3_JRKNS_21piecewise_construct_tENS_5tupleIJOS3_EEENSK_IJEEEEEENS_4pairINS_15__tree_iteratorIS8_PNS_11__tree_nodeIS8_PvEElEEbEERKT_DpOT0_, symObjAddr: 0x18C60, symBinAddr: 0x631DC, symSize: 0xC4 }
  - { offset: 0x26594A, size: 0x8, addend: 0x0, symName: __ZN9Scintilla8Internal6Editor9WrapBlockEPNS0_7SurfaceEll, symObjAddr: 0x48E0, symBinAddr: 0x4F374, symSize: 0x878 }
  - { offset: 0x267969, size: 0x8, addend: 0x0, symName: __ZN9Scintilla8Internal5TimerC2Ev, symObjAddr: 0x0, symBinAddr: 0x4AA94, symSize: 0x10 }
  - { offset: 0x2679A8, size: 0x8, addend: 0x0, symName: __ZN9Scintilla8Internal5TimerC1Ev, symObjAddr: 0x10, symBinAddr: 0x4AAA4, symSize: 0x10 }
  - { offset: 0x2679CA, size: 0x8, addend: 0x0, symName: __ZN9Scintilla8Internal5TimerC1Ev, symObjAddr: 0x10, symBinAddr: 0x4AAA4, symSize: 0x10 }
  - { offset: 0x2679E3, size: 0x8, addend: 0x0, symName: __ZN9Scintilla8Internal5IdlerC2Ev, symObjAddr: 0x20, symBinAddr: 0x4AAB4, symSize: 0xC }
  - { offset: 0x267A22, size: 0x8, addend: 0x0, symName: __ZN9Scintilla8Internal5IdlerC1Ev, symObjAddr: 0x2C, symBinAddr: 0x4AAC0, symSize: 0xC }
  - { offset: 0x267A44, size: 0x8, addend: 0x0, symName: __ZN9Scintilla8Internal5IdlerC1Ev, symObjAddr: 0x2C, symBinAddr: 0x4AAC0, symSize: 0xC }
  - { offset: 0x267FAD, size: 0x8, addend: 0x0, symName: __ZN9Scintilla8Internal6EditorC2Ev, symObjAddr: 0x38, symBinAddr: 0x4AACC, symSize: 0x314 }
  - { offset: 0x2687D9, size: 0x8, addend: 0x0, symName: __ZN9Scintilla8Internal10MarginViewD1Ev, symObjAddr: 0x370, symBinAddr: 0x4AE04, symSize: 0x68 }
  - { offset: 0x2689DC, size: 0x8, addend: 0x0, symName: __ZN9Scintilla8Internal6Editor20ContainerNeedsUpdateENS_6UpdateE, symObjAddr: 0x34C, symBinAddr: 0x4ADE0, symSize: 0x10 }
  - { offset: 0x268A26, size: 0x8, addend: 0x0, symName: __ZN9Scintilla8Internal6Editor18SetRepresentationsEv, symObjAddr: 0x35C, symBinAddr: 0x4ADF0, symSize: 0x14 }
  - { offset: 0x268A4A, size: 0x8, addend: 0x0, symName: __ZN9Scintilla8Internal6Editor18SetRepresentationsEv, symObjAddr: 0x35C, symBinAddr: 0x4ADF0, symSize: 0x14 }
  - { offset: 0x268B28, size: 0x8, addend: 0x0, symName: __ZN9Scintilla8Internal6EditorD2Ev, symObjAddr: 0x3D8, symBinAddr: 0x4AE6C, symSize: 0xC8 }
  - { offset: 0x268FAD, size: 0x8, addend: 0x0, symName: __ZN9Scintilla8Internal6EditorD1Ev, symObjAddr: 0x4A0, symBinAddr: 0x4AF34, symSize: 0x4 }
  - { offset: 0x268FE7, size: 0x8, addend: 0x0, symName: __ZThn296_N9Scintilla8Internal6EditorD1Ev, symObjAddr: 0x4A4, symBinAddr: 0x4AF38, symSize: 0x4 }
  - { offset: 0x269001, size: 0x8, addend: 0x0, symName: __ZThn296_N9Scintilla8Internal6EditorD1Ev, symObjAddr: 0x4A4, symBinAddr: 0x4AF38, symSize: 0x4 }
  - { offset: 0x269011, size: 0x8, addend: 0x0, symName: __ZN9Scintilla8Internal6EditorD0Ev, symObjAddr: 0x4A8, symBinAddr: 0x4AF3C, symSize: 0x4 }
  - { offset: 0x26904B, size: 0x8, addend: 0x0, symName: __ZThn296_N9Scintilla8Internal6EditorD0Ev, symObjAddr: 0x4AC, symBinAddr: 0x4AF40, symSize: 0x4 }
  - { offset: 0x269065, size: 0x8, addend: 0x0, symName: __ZThn296_N9Scintilla8Internal6EditorD0Ev, symObjAddr: 0x4AC, symBinAddr: 0x4AF40, symSize: 0x4 }
  - { offset: 0x269075, size: 0x8, addend: 0x0, symName: __ZN9Scintilla8Internal6Editor8FinaliseEv, symObjAddr: 0x4B0, symBinAddr: 0x4AF44, symSize: 0x38 }
  - { offset: 0x2690C2, size: 0x8, addend: 0x0, symName: __ZN9Scintilla8Internal6Editor12DropGraphicsEv, symObjAddr: 0x4E8, symBinAddr: 0x4AF7C, symSize: 0x28 }
  - { offset: 0x269112, size: 0x8, addend: 0x0, symName: __ZN9Scintilla8Internal6Editor19InvalidateStyleDataEv, symObjAddr: 0x510, symBinAddr: 0x4AFA4, symSize: 0x50 }
  - { offset: 0x269181, size: 0x8, addend: 0x0, symName: __ZN9Scintilla8Internal6Editor21InvalidateStyleRedrawEv, symObjAddr: 0x560, symBinAddr: 0x4AFF4, symSize: 0x3C }
  - { offset: 0x2691DD, size: 0x8, addend: 0x0, symName: __ZN9Scintilla8Internal6Editor12NeedWrappingEll, symObjAddr: 0x59C, symBinAddr: 0x4B030, symSize: 0x90 }
  - { offset: 0x2693FE, size: 0x8, addend: 0x0, symName: __ZN9Scintilla8Internal6Editor16RefreshStyleDataEv, symObjAddr: 0x62C, symBinAddr: 0x4B0C0, symSize: 0xB0 }
  - { offset: 0x2696B9, size: 0x8, addend: 0x0, symName: __ZN9Scintilla8Internal6Editor19SetRectangularRangeEv, symObjAddr: 0x6DC, symBinAddr: 0x4B170, symSize: 0x200 }
  - { offset: 0x269B3E, size: 0x8, addend: 0x0, symName: __ZN9Scintilla8Internal6Editor20LocationFromPositionENS0_17SelectionPositionENS0_8PointEndE, symObjAddr: 0xB18, symBinAddr: 0x4B5AC, symSize: 0x11C }
  - { offset: 0x269E60, size: 0x8, addend: 0x0, symName: __ZNK9Scintilla8Internal6Editor15HasMarginWindowEv, symObjAddr: 0x8DC, symBinAddr: 0x4B370, symSize: 0x10 }
  - { offset: 0x269E84, size: 0x8, addend: 0x0, symName: __ZNK9Scintilla8Internal6Editor15HasMarginWindowEv, symObjAddr: 0x8DC, symBinAddr: 0x4B370, symSize: 0x10 }
  - { offset: 0x269EA1, size: 0x8, addend: 0x0, symName: __ZNK9Scintilla8Internal6Editor22GetVisibleOriginInMainEv, symObjAddr: 0x8EC, symBinAddr: 0x4B380, symSize: 0xC }
  - { offset: 0x269EDC, size: 0x8, addend: 0x0, symName: __ZNK9Scintilla8Internal6Editor21DocumentPointFromViewENS0_5PointE, symObjAddr: 0x8F8, symBinAddr: 0x4B38C, symSize: 0x58 }
  - { offset: 0x269F6D, size: 0x8, addend: 0x0, symName: __ZNK9Scintilla8Internal6Editor13TopLineOfMainEv, symObjAddr: 0x950, symBinAddr: 0x4B3E4, symSize: 0x18 }
  - { offset: 0x269F91, size: 0x8, addend: 0x0, symName: __ZNK9Scintilla8Internal6Editor13TopLineOfMainEv, symObjAddr: 0x950, symBinAddr: 0x4B3E4, symSize: 0x18 }
  - { offset: 0x269FAD, size: 0x8, addend: 0x0, symName: __ZNK9Scintilla8Internal6Editor13TopLineOfMainEv, symObjAddr: 0x950, symBinAddr: 0x4B3E4, symSize: 0x18 }
  - { offset: 0x269FF8, size: 0x8, addend: 0x0, symName: __ZNK9Scintilla8Internal6Editor10ClientSizeEv, symObjAddr: 0x968, symBinAddr: 0x4B3FC, symSize: 0x24 }
  - { offset: 0x26A072, size: 0x8, addend: 0x0, symName: __ZNK9Scintilla8Internal6Editor18GetClientRectangleEv, symObjAddr: 0x98C, symBinAddr: 0x4B420, symSize: 0x8 }
  - { offset: 0x26A09B, size: 0x8, addend: 0x0, symName: __ZN9Scintilla8Internal6Editor25GetClientDrawingRectangleEv, symObjAddr: 0x994, symBinAddr: 0x4B428, symSize: 0xC }
  - { offset: 0x26A0D6, size: 0x8, addend: 0x0, symName: __ZNK9Scintilla8Internal6Editor16GetTextRectangleEv, symObjAddr: 0x9A0, symBinAddr: 0x4B434, symSize: 0x40 }
  - { offset: 0x26A116, size: 0x8, addend: 0x0, symName: __ZNK9Scintilla8Internal6Editor13LinesOnScreenEv, symObjAddr: 0x9E0, symBinAddr: 0x4B474, symSize: 0x38 }
  - { offset: 0x26A175, size: 0x8, addend: 0x0, symName: __ZNK9Scintilla8Internal6Editor13LinesToScrollEv, symObjAddr: 0xA18, symBinAddr: 0x4B4AC, symSize: 0x24 }
  - { offset: 0x26A1CE, size: 0x8, addend: 0x0, symName: __ZNK9Scintilla8Internal6Editor12MaxScrollPosEv, symObjAddr: 0xA3C, symBinAddr: 0x4B4D0, symSize: 0x58 }
  - { offset: 0x26A239, size: 0x8, addend: 0x0, symName: __ZNK9Scintilla8Internal6Editor25ClampPositionIntoDocumentENS0_17SelectionPositionE, symObjAddr: 0xA94, symBinAddr: 0x4B528, symSize: 0x84 }
  - { offset: 0x26A2AE, size: 0x8, addend: 0x0, symName: __ZN9Scintilla8Internal6Editor20LocationFromPositionElNS0_8PointEndE, symObjAddr: 0xC34, symBinAddr: 0x4B6C8, symSize: 0xC }
  - { offset: 0x26A307, size: 0x8, addend: 0x0, symName: __ZN9Scintilla8Internal6Editor13XFromPositionENS0_17SelectionPositionE, symObjAddr: 0xC40, symBinAddr: 0x4B6D4, symSize: 0x38 }
  - { offset: 0x26A3E8, size: 0x8, addend: 0x0, symName: __ZN9Scintilla8Internal6Editor21SPositionFromLocationENS0_5PointEbbb, symObjAddr: 0xC78, symBinAddr: 0x4B70C, symSize: 0x1D4 }
  - { offset: 0x26A7F6, size: 0x8, addend: 0x0, symName: __ZN9Scintilla8Internal6Editor20PositionFromLocationENS0_5PointEbb, symObjAddr: 0xE4C, symBinAddr: 0x4B8E0, symSize: 0x8 }
  - { offset: 0x26A86F, size: 0x8, addend: 0x0, symName: __ZN9Scintilla8Internal6Editor18SPositionFromLineXEli, symObjAddr: 0xE54, symBinAddr: 0x4B8E8, symSize: 0xE0 }
  - { offset: 0x26AB45, size: 0x8, addend: 0x0, symName: __ZN9Scintilla8Internal6Editor17PositionFromLineXEli, symObjAddr: 0xF34, symBinAddr: 0x4B9C8, symSize: 0x4 }
  - { offset: 0x26AB76, size: 0x8, addend: 0x0, symName: __ZN9Scintilla8Internal6Editor17PositionFromLineXEli, symObjAddr: 0xF34, symBinAddr: 0x4B9C8, symSize: 0x4 }
  - { offset: 0x26AB96, size: 0x8, addend: 0x0, symName: __ZNK9Scintilla8Internal6Editor16LineFromLocationENS0_5PointE, symObjAddr: 0xF38, symBinAddr: 0x4B9CC, symSize: 0x28 }
  - { offset: 0x26ABC3, size: 0x8, addend: 0x0, symName: __ZNK9Scintilla8Internal6Editor16LineFromLocationENS0_5PointE, symObjAddr: 0xF38, symBinAddr: 0x4B9CC, symSize: 0x28 }
  - { offset: 0x26ABED, size: 0x8, addend: 0x0, symName: __ZN9Scintilla8Internal6Editor10SetTopLineEl, symObjAddr: 0xF60, symBinAddr: 0x4B9F4, symSize: 0x70 }
  - { offset: 0x26ACAE, size: 0x8, addend: 0x0, symName: __ZN9Scintilla8Internal6Editor12AbandonPaintEv, symObjAddr: 0xFD0, symBinAddr: 0x4BA64, symSize: 0x30 }
  - { offset: 0x26ACD7, size: 0x8, addend: 0x0, symName: __ZN9Scintilla8Internal6Editor10RedrawRectENS0_10PRectangleE, symObjAddr: 0x1000, symBinAddr: 0x4BA94, symSize: 0x8C }
  - { offset: 0x26AD36, size: 0x8, addend: 0x0, symName: __ZN9Scintilla8Internal6Editor15DiscardOverdrawEv, symObjAddr: 0x108C, symBinAddr: 0x4BB20, symSize: 0x4 }
  - { offset: 0x26AD5B, size: 0x8, addend: 0x0, symName: __ZN9Scintilla8Internal6Editor6RedrawEv, symObjAddr: 0x1090, symBinAddr: 0x4BB24, symSize: 0x64 }
  - { offset: 0x26AE10, size: 0x8, addend: 0x0, symName: __ZN9Scintilla8Internal6Editor15RedrawSelMarginElb, symObjAddr: 0x10F4, symBinAddr: 0x4BB88, symSize: 0x23C }
  - { offset: 0x26B059, size: 0x8, addend: 0x0, symName: __ZN9Scintilla8Internal6Editor18RectangleFromRangeENS0_5RangeEi, symObjAddr: 0x1330, symBinAddr: 0x4BDC4, symSize: 0x104 }
  - { offset: 0x26B232, size: 0x8, addend: 0x0, symName: __ZN9Scintilla8Internal6Editor15InvalidateRangeEll, symObjAddr: 0x1434, symBinAddr: 0x4BEC8, symSize: 0x78 }
  - { offset: 0x26B2A8, size: 0x8, addend: 0x0, symName: __ZNK9Scintilla8Internal6Editor15CurrentPositionEv, symObjAddr: 0x14AC, symBinAddr: 0x4BF40, symSize: 0x8 }
  - { offset: 0x26B2C9, size: 0x8, addend: 0x0, symName: __ZNK9Scintilla8Internal6Editor14SelectionEmptyEv, symObjAddr: 0x14B4, symBinAddr: 0x4BF48, symSize: 0x8 }
  - { offset: 0x26B2FF, size: 0x8, addend: 0x0, symName: __ZN9Scintilla8Internal6Editor14SelectionStartEv, symObjAddr: 0x14BC, symBinAddr: 0x4BF50, symSize: 0x4C }
  - { offset: 0x26B352, size: 0x8, addend: 0x0, symName: __ZN9Scintilla8Internal6Editor12SelectionEndEv, symObjAddr: 0x1508, symBinAddr: 0x4BF9C, symSize: 0x4C }
  - { offset: 0x26B391, size: 0x8, addend: 0x0, symName: __ZN9Scintilla8Internal6Editor20ThinRectangularRangeEv, symObjAddr: 0x1554, symBinAddr: 0x4BFE8, symSize: 0xD4 }
  - { offset: 0x26B3E7, size: 0x8, addend: 0x0, symName: __ZN9Scintilla8Internal6Editor19InvalidateSelectionENS0_14SelectionRangeEb, symObjAddr: 0x1628, symBinAddr: 0x4C0BC, symSize: 0x1BC }
  - { offset: 0x26B5F3, size: 0x8, addend: 0x0, symName: __ZN9Scintilla8Internal6Editor24InvalidateWholeSelectionEv, symObjAddr: 0x17E4, symBinAddr: 0x4C278, symSize: 0x44 }
  - { offset: 0x26B692, size: 0x8, addend: 0x0, symName: __ZNK9Scintilla8Internal6Editor18LineSelectionRangeENS0_17SelectionPositionES2_, symObjAddr: 0x1828, symBinAddr: 0x4C2BC, symSize: 0x98 }
  - { offset: 0x26B7CF, size: 0x8, addend: 0x0, symName: __ZN9Scintilla8Internal6Editor12SetSelectionENS0_17SelectionPositionES2_, symObjAddr: 0x18C0, symBinAddr: 0x4C354, symSize: 0x17C }
  - { offset: 0x26B99C, size: 0x8, addend: 0x0, symName: __ZN9Scintilla8Internal6Editor25SetHoverIndicatorPositionEl, symObjAddr: 0x1A3C, symBinAddr: 0x4C4D0, symSize: 0x130 }
  - { offset: 0x26BC29, size: 0x8, addend: 0x0, symName: __ZN9Scintilla8Internal6Editor12SetSelectionEll, symObjAddr: 0x1B6C, symBinAddr: 0x4C600, symSize: 0x10 }
  - { offset: 0x26BCCF, size: 0x8, addend: 0x0, symName: __ZN9Scintilla8Internal6Editor12SetSelectionENS0_17SelectionPositionE, symObjAddr: 0x1B7C, symBinAddr: 0x4C610, symSize: 0x194 }
  - { offset: 0x26BE7D, size: 0x8, addend: 0x0, symName: __ZN9Scintilla8Internal6Editor17SetEmptySelectionENS0_17SelectionPositionE, symObjAddr: 0x1D10, symBinAddr: 0x4C7A4, symSize: 0x13C }
  - { offset: 0x26BFE8, size: 0x8, addend: 0x0, symName: __ZN9Scintilla8Internal6Editor17SetEmptySelectionEl, symObjAddr: 0x1E4C, symBinAddr: 0x4C8E0, symSize: 0x8 }
  - { offset: 0x26C7A9, size: 0x8, addend: 0x0, symName: __ZN9Scintilla8Internal6Editor17MultipleSelectAddENS1_9AddNumberE, symObjAddr: 0x1E54, symBinAddr: 0x4C8E8, symSize: 0x548 }
  - { offset: 0x26DF1C, size: 0x8, addend: 0x0, symName: __ZNK9Scintilla8Internal6Editor9RangeTextEll, symObjAddr: 0x23FC, symBinAddr: 0x4CE90, symSize: 0x94 }
  - { offset: 0x26E1E7, size: 0x8, addend: 0x0, symName: __ZNK9Scintilla8Internal5Range8OverlapsES1_, symObjAddr: 0x2490, symBinAddr: 0x4CF24, symSize: 0x90 }
  - { offset: 0x26E21E, size: 0x8, addend: 0x0, symName: __ZNK9Scintilla8Internal5Range8OverlapsES1_, symObjAddr: 0x2490, symBinAddr: 0x4CF24, symSize: 0x90 }
  - { offset: 0x26E271, size: 0x8, addend: 0x0, symName: __ZN9Scintilla8Internal6Editor19TrimAndSetSelectionEll, symObjAddr: 0x239C, symBinAddr: 0x4CE30, symSize: 0x60 }
  - { offset: 0x26E3D2, size: 0x8, addend: 0x0, symName: __ZN9Scintilla8Internal6Editor21XYScrollToMakeVisibleERKNS0_14SelectionRangeENS0_15XYScrollOptionsENS0_13CaretPoliciesE, symObjAddr: 0x2EB0, symBinAddr: 0x4D944, symSize: 0x678 }
  - { offset: 0x26E85F, size: 0x8, addend: 0x0, symName: __ZN9Scintilla8Internal6Editor11SetXYScrollENS1_16XYScrollPositionE, symObjAddr: 0x3648, symBinAddr: 0x4E0DC, symSize: 0x11C }
  - { offset: 0x26E9B5, size: 0x8, addend: 0x0, symName: __ZNKSt3__16vectorIN9Scintilla8Internal5RangeENS_9allocatorIS3_EEE20__throw_length_errorB8ne180100Ev, symObjAddr: 0x1664C, symBinAddr: 0x60E1C, symSize: 0x14 }
  - { offset: 0x26E9DD, size: 0x8, addend: 0x0, symName: __ZNSt3__119__allocate_at_leastB8ne180100INS_9allocatorIN9Scintilla8Internal5RangeEEEEENS_19__allocation_resultINS_16allocator_traitsIT_E7pointerEEERS8_m, symObjAddr: 0x16660, symBinAddr: 0x60E30, symSize: 0x34 }
  - { offset: 0x26ECB3, size: 0x8, addend: 0x0, symName: __ZNKSt3__16vectorIPN9Scintilla8Internal14SelectionRangeENS_9allocatorIS4_EEE20__throw_length_errorB8ne180100Ev, symObjAddr: 0x17064, symBinAddr: 0x6166C, symSize: 0x14 }
  - { offset: 0x26ECE3, size: 0x8, addend: 0x0, symName: __ZN9Scintilla8Internal6Editor11ScrollRangeENS0_14SelectionRangeE, symObjAddr: 0x2520, symBinAddr: 0x4CFB4, symSize: 0x40 }
  - { offset: 0x26ED99, size: 0x8, addend: 0x0, symName: __ZNK9Scintilla8Internal6Editor22RangeContainsProtectedEll, symObjAddr: 0x2560, symBinAddr: 0x4CFF4, symSize: 0x98 }
  - { offset: 0x26EE6D, size: 0x8, addend: 0x0, symName: __ZNK9Scintilla8Internal6Editor26SelectionContainsProtectedEv, symObjAddr: 0x25F8, symBinAddr: 0x4D08C, symSize: 0xCC }
  - { offset: 0x26EF08, size: 0x8, addend: 0x0, symName: __ZNK9Scintilla8Internal6Editor23MovePositionOutsideCharEllb, symObjAddr: 0x26C4, symBinAddr: 0x4D158, symSize: 0x10 }
  - { offset: 0x26EF71, size: 0x8, addend: 0x0, symName: __ZNK9Scintilla8Internal6Editor23MovePositionOutsideCharENS0_17SelectionPositionElb, symObjAddr: 0x26D4, symBinAddr: 0x4D168, symSize: 0x1BC }
  - { offset: 0x26F1DA, size: 0x8, addend: 0x0, symName: __ZN9Scintilla8Internal6Editor10MovedCaretENS0_17SelectionPositionES2_bNS0_13CaretPoliciesE, symObjAddr: 0x2890, symBinAddr: 0x4D324, symSize: 0x1A4 }
  - { offset: 0x26F467, size: 0x8, addend: 0x0, symName: __ZN9Scintilla8Internal6Editor9WrapLinesENS1_9WrapScopeE, symObjAddr: 0x2A34, symBinAddr: 0x4D4C8, symSize: 0x47C }
  - { offset: 0x26FC85, size: 0x8, addend: 0x0, symName: __ZN9Scintilla8Internal6Editor8ScrollToElb, symObjAddr: 0x3528, symBinAddr: 0x4DFBC, symSize: 0x120 }
  - { offset: 0x26FE0C, size: 0x8, addend: 0x0, symName: __ZN9Scintilla8Internal6Editor26ShowCaretAtCurrentPositionEv, symObjAddr: 0x3764, symBinAddr: 0x4E1F8, symSize: 0x90 }
  - { offset: 0x26FF18, size: 0x8, addend: 0x0, symName: __ZN9Scintilla8Internal6Editor19DisplayFromPositionEl, symObjAddr: 0x4548, symBinAddr: 0x4EFDC, symSize: 0x94 }
  - { offset: 0x2701D8, size: 0x8, addend: 0x0, symName: __ZN9Scintilla8Internal6Editor16StyleAreaBoundedENS0_10PRectangleEb, symObjAddr: 0x3B9C, symBinAddr: 0x4E630, symSize: 0x74 }
  - { offset: 0x2702C1, size: 0x8, addend: 0x0, symName: __ZN9Scintilla8Internal6Editor15InvalidateCaretEv, symObjAddr: 0x467C, symBinAddr: 0x4F110, symSize: 0xA0 }
  - { offset: 0x27039C, size: 0x8, addend: 0x0, symName: __ZN9Scintilla8Internal6Editor14MovePositionToENS0_17SelectionPositionENS0_9Selection8SelTypesEb, symObjAddr: 0x37F4, symBinAddr: 0x4E288, symSize: 0x1D4 }
  - { offset: 0x27056F, size: 0x8, addend: 0x0, symName: __ZN9Scintilla8Internal6Editor14MovePositionToElNS0_9Selection8SelTypesEb, symObjAddr: 0x39C8, symBinAddr: 0x4E45C, symSize: 0x10 }
  - { offset: 0x2705D8, size: 0x8, addend: 0x0, symName: __ZN9Scintilla8Internal6Editor21MovePositionSoVisibleENS0_17SelectionPositionEi, symObjAddr: 0x39D8, symBinAddr: 0x4E46C, symSize: 0x144 }
  - { offset: 0x270799, size: 0x8, addend: 0x0, symName: __ZN9Scintilla8Internal6Editor21MovePositionSoVisibleEli, symObjAddr: 0x3B1C, symBinAddr: 0x4E5B0, symSize: 0xC }
  - { offset: 0x2707F2, size: 0x8, addend: 0x0, symName: __ZN9Scintilla8Internal6Editor14PointMainCaretEv, symObjAddr: 0x3B28, symBinAddr: 0x4E5BC, symSize: 0x30 }
  - { offset: 0x270840, size: 0x8, addend: 0x0, symName: __ZN9Scintilla8Internal6Editor14SetLastXChosenEv, symObjAddr: 0x3B58, symBinAddr: 0x4E5EC, symSize: 0x44 }
  - { offset: 0x2708B0, size: 0x8, addend: 0x0, symName: __ZNK9Scintilla8Internal6Editor17PositionAfterAreaENS0_10PRectangleE, symObjAddr: 0x10578, symBinAddr: 0x5AF88, symSize: 0xB0 }
  - { offset: 0x2709C1, size: 0x8, addend: 0x0, symName: __ZNK9Scintilla8Internal6Editor23PositionAfterMaxStylingElb, symObjAddr: 0x10700, symBinAddr: 0x5B110, symSize: 0xC4 }
  - { offset: 0x270A96, size: 0x8, addend: 0x0, symName: __ZN9Scintilla8Internal6Editor21StyleToPositionInViewEl, symObjAddr: 0x10628, symBinAddr: 0x5B038, symSize: 0xD8 }
  - { offset: 0x270B9E, size: 0x8, addend: 0x0, symName: __ZN9Scintilla8Internal6Editor16StartIdleStylingEb, symObjAddr: 0x107C4, symBinAddr: 0x5B1D4, symSize: 0x7C }
  - { offset: 0x270C13, size: 0x8, addend: 0x0, symName: __ZN9Scintilla8Internal6Editor10ScrollTextEl, symObjAddr: 0x3C10, symBinAddr: 0x4E6A4, symSize: 0xC }
  - { offset: 0x270C56, size: 0x8, addend: 0x0, symName: __ZN9Scintilla8Internal6Editor18HorizontalScrollToEi, symObjAddr: 0x3C1C, symBinAddr: 0x4E6B0, symSize: 0x7C }
  - { offset: 0x270D26, size: 0x8, addend: 0x0, symName: __ZNK9Scintilla8Internal6Editor8WrappingEv, symObjAddr: 0x3C98, symBinAddr: 0x4E72C, symSize: 0x10 }
  - { offset: 0x270D48, size: 0x8, addend: 0x0, symName: __ZN9Scintilla8Internal6Editor19VerticalCentreCaretEv, symObjAddr: 0x3CA8, symBinAddr: 0x4E73C, symSize: 0xE4 }
  - { offset: 0x271009, size: 0x8, addend: 0x0, symName: __ZN9Scintilla8Internal6Editor17MoveSelectedLinesEi, symObjAddr: 0x3D8C, symBinAddr: 0x4E820, symSize: 0x40C }
  - { offset: 0x2718F7, size: 0x8, addend: 0x0, symName: __ZN9Scintilla8Internal6Editor14ClearSelectionEb, symObjAddr: 0x4198, symBinAddr: 0x4EC2C, symSize: 0x20C }
  - { offset: 0x271B73, size: 0x8, addend: 0x0, symName: __ZN9Scintilla8Internal6Editor8GoToLineEl, symObjAddr: 0x43A4, symBinAddr: 0x4EE38, symSize: 0x78 }
  - { offset: 0x271C3C, size: 0x8, addend: 0x0, symName: __ZN9Scintilla8Internal6Editor16FilterSelectionsEv, symObjAddr: 0x6358, symBinAddr: 0x50DEC, symSize: 0x68 }
  - { offset: 0x271CC5, size: 0x8, addend: 0x0, symName: __ZN9Scintilla8Internal6Editor18EnsureCaretVisibleEbbb, symObjAddr: 0x45DC, symBinAddr: 0x4F070, symSize: 0xA0 }
  - { offset: 0x271DEA, size: 0x8, addend: 0x0, symName: __ZN9Scintilla8Internal6Editor19MoveSelectedLinesUpEv, symObjAddr: 0x441C, symBinAddr: 0x4EEB0, symSize: 0x8 }
  - { offset: 0x271E1F, size: 0x8, addend: 0x0, symName: __ZN9Scintilla8Internal6Editor21MoveSelectedLinesDownEv, symObjAddr: 0x4424, symBinAddr: 0x4EEB8, symSize: 0x8 }
  - { offset: 0x271E8C, size: 0x8, addend: 0x0, symName: __ZN9Scintilla8Internal6Editor19MoveCaretInsideViewEb, symObjAddr: 0x442C, symBinAddr: 0x4EEC0, symSize: 0x11C }
  - { offset: 0x271FFC, size: 0x8, addend: 0x0, symName: __ZN9Scintilla8Internal6Editor9DropCaretEv, symObjAddr: 0x471C, symBinAddr: 0x4F1B0, symSize: 0x34 }
  - { offset: 0x27204C, size: 0x8, addend: 0x0, symName: __ZN9Scintilla8Internal6Editor14CaretSetPeriodEi, symObjAddr: 0x4750, symBinAddr: 0x4F1E4, symSize: 0x8C }
  - { offset: 0x2720BE, size: 0x8, addend: 0x0, symName: __ZN9Scintilla8Internal6Editor15NotifyCaretMoveEv, symObjAddr: 0x47DC, symBinAddr: 0x4F270, symSize: 0x4 }
  - { offset: 0x2720E3, size: 0x8, addend: 0x0, symName: __ZN9Scintilla8Internal6Editor17UpdateSystemCaretEv, symObjAddr: 0x47E0, symBinAddr: 0x4F274, symSize: 0x4 }
  - { offset: 0x2721A8, size: 0x8, addend: 0x0, symName: __ZN9Scintilla8Internal6Editor11WrapOneLineEPNS0_7SurfaceEl, symObjAddr: 0x47E4, symBinAddr: 0x4F278, symSize: 0xFC }
  - { offset: 0x273615, size: 0x8, addend: 0x0, symName: __ZNSt3__16vectorIiNS_9allocatorIiEEEC2Em, symObjAddr: 0x166E4, symBinAddr: 0x60E64, symSize: 0x74 }
  - { offset: 0x2738F5, size: 0x8, addend: 0x0, symName: '__ZNSt3__110unique_ptrINS_5tupleIJNS0_INS_15__thread_structENS_14default_deleteIS2_EEEEMNS_19__async_assoc_stateIvNS_12__async_funcIZN9Scintilla8Internal6Editor9WrapBlockEPNS9_7SurfaceEllE3$_0JEEEEEFvvEPSF_EEENS3_ISJ_EEED1B8ne180100Ev', symObjAddr: 0x16DA8, symBinAddr: 0x61458, symSize: 0x40 }
  - { offset: 0x273A6D, size: 0x8, addend: 0x0, symName: __ZNSt3__114__split_bufferINS_6futureIvEERNS_9allocatorIS2_EEED2Ev, symObjAddr: 0x16F70, symBinAddr: 0x61620, symSize: 0x4C }
  - { offset: 0x273BCC, size: 0x8, addend: 0x0, symName: __ZNSt3__110shared_ptrIN9Scintilla8Internal10LineLayoutEEaSB8ne180100ERKS4_, symObjAddr: 0x5158, symBinAddr: 0x4FBEC, symSize: 0x68 }
  - { offset: 0x273D7E, size: 0x8, addend: 0x0, symName: __ZNSt3__16vectorINS_6futureIvEENS_9allocatorIS2_EEE16__destroy_vectorclB8ne180100Ev, symObjAddr: 0x167E0, symBinAddr: 0x60ED8, symSize: 0x70 }
  - { offset: 0x273EC9, size: 0x8, addend: 0x0, symName: __ZNKSt3__16vectorINS_6futureIvEENS_9allocatorIS2_EEE20__throw_length_errorB8ne180100Ev, symObjAddr: 0x16F28, symBinAddr: 0x615D8, symSize: 0x14 }
  - { offset: 0x273EF1, size: 0x8, addend: 0x0, symName: __ZNSt3__119__allocate_at_leastB8ne180100INS_9allocatorINS_6futureIvEEEEEENS_19__allocation_resultINS_16allocator_traitsIT_E7pointerEEERS7_m, symObjAddr: 0x16F3C, symBinAddr: 0x615EC, symSize: 0x34 }
  - { offset: 0x273F8E, size: 0x8, addend: 0x0, symName: __ZN9Scintilla8Internal6Editor9LinesJoinEv, symObjAddr: 0x51C0, symBinAddr: 0x4FC54, symSize: 0x144 }
  - { offset: 0x274254, size: 0x8, addend: 0x0, symName: __ZN9Scintilla8Internal6Editor10LinesSplitEi, symObjAddr: 0x5304, symBinAddr: 0x4FD98, symSize: 0x274 }
  - { offset: 0x27499D, size: 0x8, addend: 0x0, symName: __ZN9Scintilla8Internal6Editor14PaintSelMarginEPNS0_7SurfaceERKNS0_10PRectangleE, symObjAddr: 0x5578, symBinAddr: 0x5000C, symSize: 0x194 }
  - { offset: 0x274B42, size: 0x8, addend: 0x0, symName: __ZN9Scintilla8Internal6Editor14RefreshPixMapsEPNS0_7SurfaceE, symObjAddr: 0x570C, symBinAddr: 0x501A0, symSize: 0x13C }
  - { offset: 0x274F90, size: 0x8, addend: 0x0, symName: __ZN9Scintilla8Internal6Editor5PaintEPNS0_7SurfaceENS0_10PRectangleE, symObjAddr: 0x5848, symBinAddr: 0x502DC, symSize: 0x384 }
  - { offset: 0x275316, size: 0x8, addend: 0x0, symName: __ZN9Scintilla8Internal6Editor14NotifyUpdateUIEv, symObjAddr: 0x5BCC, symBinAddr: 0x50660, symSize: 0x84 }
  - { offset: 0x275363, size: 0x8, addend: 0x0, symName: __ZN9Scintilla8Internal6Editor13NotifyPaintedEv, symObjAddr: 0x5C50, symBinAddr: 0x506E4, symSize: 0x5C }
  - { offset: 0x275423, size: 0x8, addend: 0x0, symName: __ZN9Scintilla8Internal6Editor11FormatRangeENS_7MessageEml, symObjAddr: 0x5CAC, symBinAddr: 0x50740, symSize: 0x1C0 }
  - { offset: 0x27594C, size: 0x8, addend: 0x0, symName: __ZN9Scintilla8Internal6Editor9TextWidthEmPKc, symObjAddr: 0x5E6C, symBinAddr: 0x50900, symSize: 0xD4 }
  - { offset: 0x275D36, size: 0x8, addend: 0x0, symName: __ZN9Scintilla8Internal6Editor21ReconfigureScrollBarsEv, symObjAddr: 0x5F40, symBinAddr: 0x509D4, symSize: 0x4 }
  - { offset: 0x275D5B, size: 0x8, addend: 0x0, symName: __ZN9Scintilla8Internal6Editor16ChangeScrollBarsEv, symObjAddr: 0x5F44, symBinAddr: 0x509D8, symSize: 0x1A0 }
  - { offset: 0x275FBC, size: 0x8, addend: 0x0, symName: __ZN9Scintilla8Internal6Editor8DwellEndEb, symObjAddr: 0x60E4, symBinAddr: 0x50B78, symSize: 0x74 }
  - { offset: 0x276021, size: 0x8, addend: 0x0, symName: __ZN9Scintilla8Internal6Editor14NotifyDwellingENS0_5PointEb, symObjAddr: 0x92D8, symBinAddr: 0x53D6C, symSize: 0xB4 }
  - { offset: 0x2760F0, size: 0x8, addend: 0x0, symName: __ZN9Scintilla8Internal6Editor13SetScrollBarsEv, symObjAddr: 0x6158, symBinAddr: 0x50BEC, symSize: 0x4 }
  - { offset: 0x27611A, size: 0x8, addend: 0x0, symName: __ZN9Scintilla8Internal6Editor13SetScrollBarsEv, symObjAddr: 0x6158, symBinAddr: 0x50BEC, symSize: 0x4 }
  - { offset: 0x27612D, size: 0x8, addend: 0x0, symName: __ZN9Scintilla8Internal6Editor10ChangeSizeEv, symObjAddr: 0x615C, symBinAddr: 0x50BF0, symSize: 0xA4 }
  - { offset: 0x276210, size: 0x8, addend: 0x0, symName: __ZN9Scintilla8Internal6Editor19RealizeVirtualSpaceEll, symObjAddr: 0x6200, symBinAddr: 0x50C94, symSize: 0x104 }
  - { offset: 0x2765DC, size: 0x8, addend: 0x0, symName: __ZN9Scintilla8Internal6Editor19RealizeVirtualSpaceERKNS0_17SelectionPositionE, symObjAddr: 0x6304, symBinAddr: 0x50D98, symSize: 0x20 }
  - { offset: 0x276639, size: 0x8, addend: 0x0, symName: __ZN9Scintilla8Internal6Editor7AddCharEc, symObjAddr: 0x6324, symBinAddr: 0x50DB8, symSize: 0x34 }
  - { offset: 0x276A53, size: 0x8, addend: 0x0, symName: __ZN9Scintilla8Internal6Editor15InsertCharacterENSt3__117basic_string_viewIcNS2_11char_traitsIcEEEENS_15CharacterSourceE, symObjAddr: 0x63C0, symBinAddr: 0x50E54, symSize: 0x664 }
  - { offset: 0x2784A0, size: 0x8, addend: 0x0, symName: __ZNKSt3__16vectorIPN9Scintilla8Internal14SelectionRangeENS_9allocatorIS4_EEE20__throw_length_errorB8ne180100Ev, symObjAddr: 0x17064, symBinAddr: 0x6166C, symSize: 0x14 }
  - { offset: 0x2784C8, size: 0x8, addend: 0x0, symName: __ZNSt3__119__allocate_at_leastB8ne180100INS_9allocatorIPN9Scintilla8Internal14SelectionRangeEEEEENS_19__allocation_resultINS_16allocator_traitsIT_E7pointerEEERS9_m, symObjAddr: 0x17078, symBinAddr: 0x61680, symSize: 0x34 }
  - { offset: 0x2784E9, size: 0x8, addend: 0x0, symName: __ZNKSt3__16vectorIN9Scintilla8Internal5RangeENS_9allocatorIS3_EEE20__throw_length_errorB8ne180100Ev, symObjAddr: 0x1664C, symBinAddr: 0x60E1C, symSize: 0x14 }
  - { offset: 0x2784F4, size: 0x8, addend: 0x0, symName: __ZN9Scintilla8Internal6Editor10NotifyCharEiNS_15CharacterSourceE, symObjAddr: 0x6A24, symBinAddr: 0x514B8, symSize: 0x64 }
  - { offset: 0x27854C, size: 0x8, addend: 0x0, symName: __ZN9Scintilla8Internal6Editor17NotifyMacroRecordENS_7MessageEml, symObjAddr: 0x6A88, symBinAddr: 0x5151C, symSize: 0x120 }
  - { offset: 0x2785A6, size: 0x8, addend: 0x0, symName: __ZN9Scintilla8Internal6Editor25ClearBeforeTentativeStartEv, symObjAddr: 0x6BA8, symBinAddr: 0x5163C, symSize: 0x228 }
  - { offset: 0x2788F4, size: 0x8, addend: 0x0, symName: __ZN9Scintilla8Internal6Editor11InsertPasteEPKcl, symObjAddr: 0x6DD0, symBinAddr: 0x51864, symSize: 0x25C }
  - { offset: 0x278C54, size: 0x8, addend: 0x0, symName: __ZN9Scintilla8Internal6Editor16InsertPasteShapeEPKclNS1_10PasteShapeE, symObjAddr: 0x702C, symBinAddr: 0x51AC0, symSize: 0x1B8 }
  - { offset: 0x279136, size: 0x8, addend: 0x0, symName: __ZN9Scintilla8Internal6Editor16PasteRectangularENS0_17SelectionPositionEPKcl, symObjAddr: 0x71E4, symBinAddr: 0x51C78, symSize: 0x354 }
  - { offset: 0x2795E7, size: 0x8, addend: 0x0, symName: __ZN9Scintilla8Internal6Editor8ClearAllEv, symObjAddr: 0x7538, symBinAddr: 0x51FCC, symSize: 0x114 }
  - { offset: 0x27980C, size: 0x8, addend: 0x0, symName: __ZN9Scintilla8Internal6Editor18ClearDocumentStyleEv, symObjAddr: 0x764C, symBinAddr: 0x520E0, symSize: 0x9C }
  - { offset: 0x2798E3, size: 0x8, addend: 0x0, symName: __ZN9Scintilla8Internal6Editor20SetAnnotationHeightsEll, symObjAddr: 0x76E8, symBinAddr: 0x5217C, symSize: 0x1D4 }
  - { offset: 0x279DC9, size: 0x8, addend: 0x0, symName: __ZN9Scintilla8Internal6Editor13CopyAllowLineEv, symObjAddr: 0x78BC, symBinAddr: 0x52350, symSize: 0x80 }
  - { offset: 0x27A138, size: 0x8, addend: 0x0, symName: __ZN9Scintilla8Internal6Editor18CopySelectionRangeEPNS0_13SelectionTextEb, symObjAddr: 0x793C, symBinAddr: 0x523D0, symSize: 0x2C4 }
  - { offset: 0x27AF9E, size: 0x8, addend: 0x0, symName: __ZN9Scintilla8Internal6Editor13CopyLineRangeEPNS0_13SelectionTextEb, symObjAddr: 0x7CD0, symBinAddr: 0x52764, symSize: 0x134 }
  - { offset: 0x27B361, size: 0x8, addend: 0x0, symName: __ZNSt3__16vectorIN9Scintilla8Internal14SelectionRangeENS_9allocatorIS3_EEE16__init_with_sizeB8ne180100IPS3_S8_EEvT_T0_m, symObjAddr: 0x163F4, symBinAddr: 0x60DA4, symSize: 0x78 }
  - { offset: 0x27B849, size: 0x8, addend: 0x0, symName: __ZN9Scintilla8Internal6Editor12CutAllowLineEv, symObjAddr: 0x7C00, symBinAddr: 0x52694, symSize: 0xD0 }
  - { offset: 0x27BC02, size: 0x8, addend: 0x0, symName: __ZN9Scintilla8Internal6Editor10LineDeleteEv, symObjAddr: 0x7E04, symBinAddr: 0x52898, symSize: 0x7C }
  - { offset: 0x27BC84, size: 0x8, addend: 0x0, symName: __ZN9Scintilla8Internal6Editor3CutEv, symObjAddr: 0x7E80, symBinAddr: 0x52914, symSize: 0x64 }
  - { offset: 0x27BD05, size: 0x8, addend: 0x0, symName: __ZN9Scintilla8Internal6Editor8CanPasteEv, symObjAddr: 0x7EE4, symBinAddr: 0x52978, symSize: 0x40 }
  - { offset: 0x27BD5F, size: 0x8, addend: 0x0, symName: __ZN9Scintilla8Internal6Editor5ClearEv, symObjAddr: 0x7F24, symBinAddr: 0x529B8, symSize: 0x2AC }
  - { offset: 0x27C0CA, size: 0x8, addend: 0x0, symName: __ZN9Scintilla8Internal6Editor9SelectAllEv, symObjAddr: 0x81D0, symBinAddr: 0x52C64, symSize: 0x58 }
  - { offset: 0x27C16D, size: 0x8, addend: 0x0, symName: __ZN9Scintilla8Internal6Editor4UndoEv, symObjAddr: 0x8228, symBinAddr: 0x52CBC, symSize: 0x6C }
  - { offset: 0x27C255, size: 0x8, addend: 0x0, symName: __ZN9Scintilla8Internal6Editor4RedoEv, symObjAddr: 0x8294, symBinAddr: 0x52D28, symSize: 0x64 }
  - { offset: 0x27C329, size: 0x8, addend: 0x0, symName: __ZN9Scintilla8Internal6Editor11DelCharBackEb, symObjAddr: 0x82F8, symBinAddr: 0x52D8C, symSize: 0x36C }
  - { offset: 0x27C8EF, size: 0x8, addend: 0x0, symName: __ZN9Scintilla8Internal6Editor11NotifyFocusEb, symObjAddr: 0x8664, symBinAddr: 0x530F8, symSize: 0x64 }
  - { offset: 0x27C954, size: 0x8, addend: 0x0, symName: __ZN9Scintilla8Internal6Editor9SetCtrlIDEi, symObjAddr: 0x86C8, symBinAddr: 0x5315C, symSize: 0x8 }
  - { offset: 0x27C98A, size: 0x8, addend: 0x0, symName: __ZN9Scintilla8Internal6Editor19NotifyStyleToNeededEl, symObjAddr: 0x86D0, symBinAddr: 0x53164, symSize: 0x50 }
  - { offset: 0x27C9EE, size: 0x8, addend: 0x0, symName: __ZN9Scintilla8Internal6Editor17NotifyStyleNeededEPNS0_8DocumentEPvl, symObjAddr: 0x8720, symBinAddr: 0x531B4, symSize: 0x10 }
  - { offset: 0x27CA72, size: 0x8, addend: 0x0, symName: __ZThn296_N9Scintilla8Internal6Editor17NotifyStyleNeededEPNS0_8DocumentEPvl, symObjAddr: 0x8730, symBinAddr: 0x531C4, symSize: 0x14 }
  - { offset: 0x27CAC0, size: 0x8, addend: 0x0, symName: __ZN9Scintilla8Internal6Editor19NotifyErrorOccurredEPNS0_8DocumentEPvNS_6StatusE, symObjAddr: 0x8744, symBinAddr: 0x531D8, symSize: 0x8 }
  - { offset: 0x27CB27, size: 0x8, addend: 0x0, symName: __ZThn296_N9Scintilla8Internal6Editor19NotifyErrorOccurredEPNS0_8DocumentEPvNS_6StatusE, symObjAddr: 0x874C, symBinAddr: 0x531E0, symSize: 0x8 }
  - { offset: 0x27CB42, size: 0x8, addend: 0x0, symName: __ZThn296_N9Scintilla8Internal6Editor19NotifyErrorOccurredEPNS0_8DocumentEPvNS_6StatusE, symObjAddr: 0x874C, symBinAddr: 0x531E0, symSize: 0x8 }
  - { offset: 0x27CB65, size: 0x8, addend: 0x0, symName: __ZN9Scintilla8Internal6Editor15NotifySavePointEb, symObjAddr: 0x8754, symBinAddr: 0x531E8, symSize: 0x90 }
  - { offset: 0x27CBC6, size: 0x8, addend: 0x0, symName: __ZN9Scintilla8Internal6Editor19NotifyModifyAttemptEv, symObjAddr: 0x87E4, symBinAddr: 0x53278, symSize: 0x5C }
  - { offset: 0x27CC48, size: 0x8, addend: 0x0, symName: __ZN9Scintilla8Internal6Editor17NotifyDoubleClickENS0_5PointENS_6KeyModE, symObjAddr: 0x8840, symBinAddr: 0x532D4, symSize: 0xD4 }
  - { offset: 0x27CD5A, size: 0x8, addend: 0x0, symName: __ZN9Scintilla8Internal6Editor26NotifyHotSpotDoubleClickedElNS_6KeyModE, symObjAddr: 0x8914, symBinAddr: 0x533A8, symSize: 0x64 }
  - { offset: 0x27CDB2, size: 0x8, addend: 0x0, symName: __ZN9Scintilla8Internal6Editor20NotifyHotSpotClickedElNS_6KeyModE, symObjAddr: 0x8978, symBinAddr: 0x5340C, symSize: 0x64 }
  - { offset: 0x27CE0A, size: 0x8, addend: 0x0, symName: __ZN9Scintilla8Internal6Editor25NotifyHotSpotReleaseClickElNS_6KeyModE, symObjAddr: 0x89DC, symBinAddr: 0x53470, symSize: 0x64 }
  - { offset: 0x27CE62, size: 0x8, addend: 0x0, symName: __ZN9Scintilla8Internal6Editor20NotifyIndicatorClickEblNS_6KeyModE, symObjAddr: 0x8A40, symBinAddr: 0x534D4, symSize: 0xDC }
  - { offset: 0x27CFC2, size: 0x8, addend: 0x0, symName: __ZN9Scintilla8Internal6Editor17NotifyMarginClickENS0_5PointENS_6KeyModE, symObjAddr: 0x8B1C, symBinAddr: 0x535B0, symSize: 0x1A8 }
  - { offset: 0x27D1A4, size: 0x8, addend: 0x0, symName: __ZN9Scintilla8Internal6Editor7FoldAllENS_10FoldActionE, symObjAddr: 0x8CC4, symBinAddr: 0x53758, symSize: 0x1D4 }
  - { offset: 0x27D49E, size: 0x8, addend: 0x0, symName: __ZN9Scintilla8Internal6Editor8FoldLineElNS_10FoldActionE, symObjAddr: 0x8FFC, symBinAddr: 0x53A90, symSize: 0x18C }
  - { offset: 0x27D6C6, size: 0x8, addend: 0x0, symName: __ZN9Scintilla8Internal6Editor10FoldExpandElNS_10FoldActionENS_9FoldLevelE, symObjAddr: 0x8E98, symBinAddr: 0x5392C, symSize: 0x164 }
  - { offset: 0x27D971, size: 0x8, addend: 0x0, symName: __ZN9Scintilla8Internal6Editor17EnsureLineVisibleElb, symObjAddr: 0x10EF4, symBinAddr: 0x5B904, symSize: 0x330 }
  - { offset: 0x27DC7E, size: 0x8, addend: 0x0, symName: __ZN9Scintilla8Internal6Editor10ExpandLineEl, symObjAddr: 0x10DA8, symBinAddr: 0x5B7B8, symSize: 0x104 }
  - { offset: 0x27DDC2, size: 0x8, addend: 0x0, symName: __ZN9Scintilla8Internal6Editor22NotifyMarginRightClickENS0_5PointENS_6KeyModE, symObjAddr: 0x9188, symBinAddr: 0x53C1C, symSize: 0xFC }
  - { offset: 0x27DEE7, size: 0x8, addend: 0x0, symName: __ZN9Scintilla8Internal6Editor15NotifyNeedShownEll, symObjAddr: 0x9284, symBinAddr: 0x53D18, symSize: 0x54 }
  - { offset: 0x27DF3F, size: 0x8, addend: 0x0, symName: __ZN9Scintilla8Internal6Editor10NotifyZoomEv, symObjAddr: 0x938C, symBinAddr: 0x53E20, symSize: 0x5C }
  - { offset: 0x27DFA9, size: 0x8, addend: 0x0, symName: __ZN9Scintilla8Internal6Editor19NotifyModifyAttemptEPNS0_8DocumentEPv, symObjAddr: 0x93E8, symBinAddr: 0x53E7C, symSize: 0x5C }
  - { offset: 0x27E040, size: 0x8, addend: 0x0, symName: __ZThn296_N9Scintilla8Internal6Editor19NotifyModifyAttemptEPNS0_8DocumentEPv, symObjAddr: 0x9444, symBinAddr: 0x53ED8, symSize: 0x60 }
  - { offset: 0x27E0DE, size: 0x8, addend: 0x0, symName: __ZN9Scintilla8Internal6Editor15NotifySavePointEPNS0_8DocumentEPvb, symObjAddr: 0x94A4, symBinAddr: 0x53F38, symSize: 0x90 }
  - { offset: 0x27E195, size: 0x8, addend: 0x0, symName: __ZThn296_N9Scintilla8Internal6Editor15NotifySavePointEPNS0_8DocumentEPvb, symObjAddr: 0x9534, symBinAddr: 0x53FC8, symSize: 0x90 }
  - { offset: 0x27E215, size: 0x8, addend: 0x0, symName: __ZN9Scintilla8Internal6Editor24CheckModificationForWrapENS0_15DocModificationE, symObjAddr: 0x95C4, symBinAddr: 0x54058, symSize: 0x98 }
  - { offset: 0x27E388, size: 0x8, addend: 0x0, symName: __ZN9Scintilla8Internal6Editor14NotifyModifiedEPNS0_8DocumentENS0_15DocModificationEPv, symObjAddr: 0x965C, symBinAddr: 0x540F0, symSize: 0x7A4 }
  - { offset: 0x27EBD1, size: 0x8, addend: 0x0, symName: __ZN9Scintilla8Internal6Editor26CheckForChangeOutsidePaintENS0_5RangeE, symObjAddr: 0x9E00, symBinAddr: 0x54894, symSize: 0xBC }
  - { offset: 0x27ECAA, size: 0x8, addend: 0x0, symName: __ZN9Scintilla8Internal6Editor9NeedShownEll, symObjAddr: 0x9EBC, symBinAddr: 0x54950, symSize: 0xC4 }
  - { offset: 0x27EDAF, size: 0x8, addend: 0x0, symName: __ZN9Scintilla8Internal6Editor19PaintContainsMarginEv, symObjAddr: 0x9F80, symBinAddr: 0x54A14, symSize: 0x54 }
  - { offset: 0x27EE3D, size: 0x8, addend: 0x0, symName: __ZN9Scintilla8Internal6Editor11FoldChangedElNS_9FoldLevelES2_, symObjAddr: 0x9FD4, symBinAddr: 0x54A68, symSize: 0x230 }
  - { offset: 0x27F28E, size: 0x8, addend: 0x0, symName: __ZThn296_N9Scintilla8Internal6Editor14NotifyModifiedEPNS0_8DocumentENS0_15DocModificationEPv, symObjAddr: 0xA204, symBinAddr: 0x54C98, symSize: 0x8 }
  - { offset: 0x27F2BC, size: 0x8, addend: 0x0, symName: __ZN9Scintilla8Internal6Editor13NotifyDeletedEPNS0_8DocumentEPv, symObjAddr: 0xA20C, symBinAddr: 0x54CA0, symSize: 0x4 }
  - { offset: 0x27F2F1, size: 0x8, addend: 0x0, symName: __ZThn296_N9Scintilla8Internal6Editor13NotifyDeletedEPNS0_8DocumentEPv, symObjAddr: 0xA210, symBinAddr: 0x54CA4, symSize: 0x4 }
  - { offset: 0x27F331, size: 0x8, addend: 0x0, symName: __ZN9Scintilla8Internal6Editor8PageMoveEiNS0_9Selection8SelTypesEb, symObjAddr: 0xA214, symBinAddr: 0x54CA8, symSize: 0x2E4 }
  - { offset: 0x27F724, size: 0x8, addend: 0x0, symName: __ZN9Scintilla8Internal6Editor21ChangeCaseOfSelectionENS1_11CaseMappingE, symObjAddr: 0xA4F8, symBinAddr: 0x54F8C, symSize: 0x440 }
  - { offset: 0x28028E, size: 0x8, addend: 0x0, symName: __ZN9Scintilla8Internal6Editor13LineTransposeEv, symObjAddr: 0xA938, symBinAddr: 0x553CC, symSize: 0x224 }
  - { offset: 0x280B3A, size: 0x8, addend: 0x0, symName: __ZN9Scintilla8Internal6Editor11LineReverseEv, symObjAddr: 0xAB5C, symBinAddr: 0x555F0, symSize: 0x2D4 }
  - { offset: 0x2814CB, size: 0x8, addend: 0x0, symName: __ZN9Scintilla8Internal6Editor9DuplicateEb, symObjAddr: 0xAE30, symBinAddr: 0x558C4, symSize: 0x2E0 }
  - { offset: 0x281A76, size: 0x8, addend: 0x0, symName: __ZN9Scintilla8Internal6Editor11CancelModesEv, symObjAddr: 0xB110, symBinAddr: 0x55BA4, symSize: 0xC }
  - { offset: 0x281A9F, size: 0x8, addend: 0x0, symName: __ZN9Scintilla8Internal6Editor7NewLineEv, symObjAddr: 0xB11C, symBinAddr: 0x55BB0, symSize: 0x2EC }
  - { offset: 0x281EA9, size: 0x8, addend: 0x0, symName: __ZN9Scintilla8Internal6Editor16PositionUpOrDownENS0_17SelectionPositionEii, symObjAddr: 0xB408, symBinAddr: 0x55E9C, symSize: 0x25C }
  - { offset: 0x2822F8, size: 0x8, addend: 0x0, symName: __ZN9Scintilla8Internal6Editor14CursorUpOrDownEiNS0_9Selection8SelTypesE, symObjAddr: 0xB664, symBinAddr: 0x560F8, symSize: 0x354 }
  - { offset: 0x282573, size: 0x8, addend: 0x0, symName: __ZN9Scintilla8Internal6Editor12ParaUpOrDownEiNS0_9Selection8SelTypesE, symObjAddr: 0xB9B8, symBinAddr: 0x5644C, symSize: 0x140 }
  - { offset: 0x282694, size: 0x8, addend: 0x0, symName: __ZN9Scintilla8Internal6Editor16RangeDisplayLineEl, symObjAddr: 0xBAF8, symBinAddr: 0x5658C, symSize: 0xA4 }
  - { offset: 0x28294C, size: 0x8, addend: 0x0, symName: __ZN9Scintilla8Internal6Editor19StartEndDisplayLineElb, symObjAddr: 0xBB9C, symBinAddr: 0x56630, symSize: 0xB0 }
  - { offset: 0x282C56, size: 0x8, addend: 0x0, symName: __ZN9Scintilla8Internal6Editor16HomeWrapPositionEl, symObjAddr: 0xBC4C, symBinAddr: 0x566E0, symSize: 0x58 }
  - { offset: 0x282D17, size: 0x8, addend: 0x0, symName: __ZN9Scintilla8Internal6Editor21VCHomeDisplayPositionEl, symObjAddr: 0xBCA4, symBinAddr: 0x56738, symSize: 0x4C }
  - { offset: 0x282D75, size: 0x8, addend: 0x0, symName: __ZN9Scintilla8Internal6Editor18VCHomeWrapPositionEl, symObjAddr: 0xBCF0, symBinAddr: 0x56784, symSize: 0x50 }
  - { offset: 0x282DD3, size: 0x8, addend: 0x0, symName: __ZN9Scintilla8Internal6Editor19LineEndWrapPositionEl, symObjAddr: 0xBD40, symBinAddr: 0x567D4, symSize: 0x4C }
  - { offset: 0x282F06, size: 0x8, addend: 0x0, symName: __ZN9Scintilla8Internal6Editor12PositionMoveENS_7MessageENS0_17SelectionPositionE, symObjAddr: 0xBD8C, symBinAddr: 0x56820, symSize: 0x278 }
  - { offset: 0x283133, size: 0x8, addend: 0x0, symName: __ZN9Scintilla8Internal6Editor13SelectionMoveENS_7MessageEm, symObjAddr: 0xC004, symBinAddr: 0x56A98, symSize: 0x1CC }
  - { offset: 0x2832C3, size: 0x8, addend: 0x0, symName: __ZN9Scintilla8Internal6Editor14HorizontalMoveENS_7MessageE, symObjAddr: 0xC1D0, symBinAddr: 0x56C64, symSize: 0x5DC }
  - { offset: 0x283678, size: 0x8, addend: 0x0, symName: __ZN9Scintilla8Internal6Editor13DelWordOrLineENS_7MessageE, symObjAddr: 0xC7AC, symBinAddr: 0x57240, symSize: 0x318 }
  - { offset: 0x283B39, size: 0x8, addend: 0x0, symName: __ZN9Scintilla8Internal6Editor10KeyCommandENS_7MessageE, symObjAddr: 0xCAC4, symBinAddr: 0x57558, symSize: 0x618 }
  - { offset: 0x284170, size: 0x8, addend: 0x0, symName: __ZN9Scintilla8Internal6Editor6IndentEbb, symObjAddr: 0xD0DC, symBinAddr: 0x57B70, symSize: 0x568 }
  - { offset: 0x2849C9, size: 0x8, addend: 0x0, symName: __ZN9Scintilla8Internal6Editor20CopyRangeToClipboardEll, symObjAddr: 0xD644, symBinAddr: 0x580D8, symSize: 0xF8 }
  - { offset: 0x284FE4, size: 0x8, addend: 0x0, symName: __ZN9Scintilla8Internal6Editor10KeyDefaultENS_4KeysENS_6KeyModE, symObjAddr: 0xD73C, symBinAddr: 0x581D0, symSize: 0x8 }
  - { offset: 0x285019, size: 0x8, addend: 0x0, symName: __ZN9Scintilla8Internal6Editor20KeyDownWithModifiersENS_4KeysENS_6KeyModEPb, symObjAddr: 0xD744, symBinAddr: 0x581D8, symSize: 0xA0 }
  - { offset: 0x2851F3, size: 0x8, addend: 0x0, symName: __ZN9Scintilla8Internal6Editor21CaseFolderForEncodingEv, symObjAddr: 0xD7E4, symBinAddr: 0x58278, symSize: 0x2C }
  - { offset: 0x2852BB, size: 0x8, addend: 0x0, symName: __ZN9Scintilla8Internal6Editor8FindTextEml, symObjAddr: 0xD810, symBinAddr: 0x582A4, symSize: 0xD8 }
  - { offset: 0x285403, size: 0x8, addend: 0x0, symName: __ZN9Scintilla8Internal6Editor12FindTextFullEml, symObjAddr: 0xD8E8, symBinAddr: 0x5837C, symSize: 0xD8 }
  - { offset: 0x28554B, size: 0x8, addend: 0x0, symName: __ZN9Scintilla8Internal6Editor12SearchAnchorEv, symObjAddr: 0xD9C0, symBinAddr: 0x58454, symSize: 0x50 }
  - { offset: 0x2855AE, size: 0x8, addend: 0x0, symName: __ZN9Scintilla8Internal6Editor10SearchTextENS_7MessageEml, symObjAddr: 0xDA10, symBinAddr: 0x584A4, symSize: 0x140 }
  - { offset: 0x2857E7, size: 0x8, addend: 0x0, symName: __ZN9Scintilla8Internal6Editor13CaseMapStringERKNSt3__112basic_stringIcNS2_11char_traitsIcEENS2_9allocatorIcEEEENS1_11CaseMappingE, symObjAddr: 0xDB50, symBinAddr: 0x585E4, symSize: 0xB4 }
  - { offset: 0x285C10, size: 0x8, addend: 0x0, symName: __ZNSt3__111__introsortINS_17_ClassicAlgPolicyERNS_6__lessIvvEEPN9Scintilla8Internal14SelectionRangeELb0EEEvT1_S9_T0_NS_15iterator_traitsIS9_E15difference_typeEb, symObjAddr: 0x17BF8, symBinAddr: 0x62174, symSize: 0x34C }
  - { offset: 0x285C21, size: 0x8, addend: 0x0, symName: __ZN9Scintilla8Internal6Editor14SearchInTargetEPKcl, symObjAddr: 0xDC04, symBinAddr: 0x58698, symSize: 0xDC }
  - { offset: 0x285E1E, size: 0x8, addend: 0x0, symName: __ZN9Scintilla8Internal6Editor8CopyTextEmPKc, symObjAddr: 0xDD64, symBinAddr: 0x58774, symSize: 0xD8 }
  - { offset: 0x2866A3, size: 0x8, addend: 0x0, symName: __ZN9Scintilla8Internal6Editor15SetDragPositionENS0_17SelectionPositionE, symObjAddr: 0xDE3C, symBinAddr: 0x5884C, symSize: 0x104 }
  - { offset: 0x2867BC, size: 0x8, addend: 0x0, symName: __ZN9Scintilla8Internal6Editor13DisplayCursorENS0_6Window6CursorE, symObjAddr: 0xDF40, symBinAddr: 0x58950, symSize: 0x14 }
  - { offset: 0x286815, size: 0x8, addend: 0x0, symName: __ZN9Scintilla8Internal6Editor13DragThresholdENS0_5PointES2_, symObjAddr: 0xDF54, symBinAddr: 0x58964, symSize: 0x20 }
  - { offset: 0x28687B, size: 0x8, addend: 0x0, symName: __ZN9Scintilla8Internal6Editor13DragThresholdENS0_5PointES2_, symObjAddr: 0xDF54, symBinAddr: 0x58964, symSize: 0x20 }
  - { offset: 0x286898, size: 0x8, addend: 0x0, symName: __ZN9Scintilla8Internal6Editor9StartDragEv, symObjAddr: 0xDF74, symBinAddr: 0x58984, symSize: 0x4 }
  - { offset: 0x2868BD, size: 0x8, addend: 0x0, symName: __ZN9Scintilla8Internal6Editor6DropAtENS0_17SelectionPositionEPKcmbb, symObjAddr: 0xDF78, symBinAddr: 0x58988, symSize: 0x45C }
  - { offset: 0x28718F, size: 0x8, addend: 0x0, symName: __ZN9Scintilla8Internal6Editor19PositionInSelectionEl, symObjAddr: 0xE3D4, symBinAddr: 0x58DE4, symSize: 0x9C }
  - { offset: 0x28727D, size: 0x8, addend: 0x0, symName: __ZN9Scintilla8Internal6Editor6DropAtENS0_17SelectionPositionEPKcbb, symObjAddr: 0xE470, symBinAddr: 0x58E80, symSize: 0x64 }
  - { offset: 0x287308, size: 0x8, addend: 0x0, symName: __ZN9Scintilla8Internal6Editor16PointInSelectionENS0_5PointE, symObjAddr: 0xE4D4, symBinAddr: 0x58EE4, symSize: 0x130 }
  - { offset: 0x28747B, size: 0x8, addend: 0x0, symName: __ZN9Scintilla8Internal6Editor18SelectionFromPointENS0_5PointE, symObjAddr: 0xE604, symBinAddr: 0x59014, symSize: 0x11C }
  - { offset: 0x2875E4, size: 0x8, addend: 0x0, symName: __ZNK9Scintilla8Internal6Editor16PointInSelMarginENS0_5PointE, symObjAddr: 0xE720, symBinAddr: 0x59130, symSize: 0xBC }
  - { offset: 0x2876E3, size: 0x8, addend: 0x0, symName: __ZNK9Scintilla8Internal6Editor15GetMarginCursorENS0_5PointE, symObjAddr: 0xE7DC, symBinAddr: 0x591EC, symSize: 0x4C }
  - { offset: 0x28773D, size: 0x8, addend: 0x0, symName: __ZNK9Scintilla8Internal6Editor15GetMarginCursorENS0_5PointE, symObjAddr: 0xE7DC, symBinAddr: 0x591EC, symSize: 0x4C }
  - { offset: 0x2877A2, size: 0x8, addend: 0x0, symName: __ZN9Scintilla8Internal6Editor13DropSelectionEm, symObjAddr: 0xE828, symBinAddr: 0x59238, symSize: 0x3C }
  - { offset: 0x287821, size: 0x8, addend: 0x0, symName: __ZN9Scintilla8Internal6Editor13LineSelectionEllb, symObjAddr: 0xE864, symBinAddr: 0x59274, symSize: 0x158 }
  - { offset: 0x28796A, size: 0x8, addend: 0x0, symName: __ZN9Scintilla8Internal6Editor13WordSelectionEl, symObjAddr: 0xE9BC, symBinAddr: 0x593CC, symSize: 0xFC }
  - { offset: 0x287A62, size: 0x8, addend: 0x0, symName: __ZN9Scintilla8Internal6Editor10MouseLeaveEv, symObjAddr: 0xEAB8, symBinAddr: 0x594C8, symSize: 0xA0 }
  - { offset: 0x287B68, size: 0x8, addend: 0x0, symName: __ZN9Scintilla8Internal6Editor15SetHotSpotRangeEPKNS0_5PointE, symObjAddr: 0xEB58, symBinAddr: 0x59568, symSize: 0xF4 }
  - { offset: 0x287E07, size: 0x8, addend: 0x0, symName: __ZN9Scintilla8Internal6Editor23ButtonDownWithModifiersENS0_5PointEjNS_6KeyModE, symObjAddr: 0xEC4C, symBinAddr: 0x5965C, symSize: 0x8CC }
  - { offset: 0x288821, size: 0x8, addend: 0x0, symName: __ZN9Scintilla8Internal6Editor22SetHoverIndicatorPointENS0_5PointE, symObjAddr: 0xF518, symBinAddr: 0x59F28, symSize: 0x54 }
  - { offset: 0x2888D8, size: 0x8, addend: 0x0, symName: __ZN9Scintilla8Internal6Editor14PointIsHotspotENS0_5PointE, symObjAddr: 0xF608, symBinAddr: 0x5A018, symSize: 0x68 }
  - { offset: 0x2889F2, size: 0x8, addend: 0x0, symName: __ZN9Scintilla8Internal6Editor18ChangeMouseCaptureEb, symObjAddr: 0xF56C, symBinAddr: 0x59F7C, symSize: 0x60 }
  - { offset: 0x288A67, size: 0x8, addend: 0x0, symName: __ZNK9Scintilla8Internal6Editor17PositionIsHotspotEl, symObjAddr: 0xF5CC, symBinAddr: 0x59FDC, symSize: 0x3C }
  - { offset: 0x288ADD, size: 0x8, addend: 0x0, symName: __ZN9Scintilla8Internal6Editor28RightButtonDownWithModifiersENS0_5PointEjNS_6KeyModE, symObjAddr: 0xF670, symBinAddr: 0x5A080, symSize: 0x8 }
  - { offset: 0x288BD5, size: 0x8, addend: 0x0, symName: __ZN9Scintilla8Internal6Editor23ButtonMoveWithModifiersENS0_5PointEjNS_6KeyModE, symObjAddr: 0xF678, symBinAddr: 0x5A088, symSize: 0x66C }
  - { offset: 0x28945E, size: 0x8, addend: 0x0, symName: __ZN9Scintilla8Internal6Editor21ButtonUpWithModifiersENS0_5PointEjNS_6KeyModE, symObjAddr: 0xFCE4, symBinAddr: 0x5A6F4, symSize: 0x594 }
  - { offset: 0x28A038, size: 0x8, addend: 0x0, symName: __ZN9Scintilla8Internal6Editor4IdleEv, symObjAddr: 0x10278, symBinAddr: 0x5AC88, symSize: 0xD8 }
  - { offset: 0x28A14C, size: 0x8, addend: 0x0, symName: __ZN9Scintilla8Internal6Editor9IdleStyleEv, symObjAddr: 0x10350, symBinAddr: 0x5AD60, symSize: 0x80 }
  - { offset: 0x28A22C, size: 0x8, addend: 0x0, symName: __ZN9Scintilla8Internal6Editor7TickForENS1_10TickReasonE, symObjAddr: 0x103D0, symBinAddr: 0x5ADE0, symSize: 0x120 }
  - { offset: 0x28A2E6, size: 0x8, addend: 0x0, symName: __ZN9Scintilla8Internal6Editor17FineTickerRunningENS1_10TickReasonE, symObjAddr: 0x104F0, symBinAddr: 0x5AF00, symSize: 0x8 }
  - { offset: 0x28A313, size: 0x8, addend: 0x0, symName: __ZN9Scintilla8Internal6Editor15FineTickerStartENS1_10TickReasonEii, symObjAddr: 0x104F8, symBinAddr: 0x5AF08, symSize: 0x4 }
  - { offset: 0x28A350, size: 0x8, addend: 0x0, symName: __ZN9Scintilla8Internal6Editor16FineTickerCancelENS1_10TickReasonE, symObjAddr: 0x104FC, symBinAddr: 0x5AF0C, symSize: 0x4 }
  - { offset: 0x28A37D, size: 0x8, addend: 0x0, symName: __ZN9Scintilla8Internal6Editor13SetFocusStateEb, symObjAddr: 0x10500, symBinAddr: 0x5AF10, symSize: 0x74 }
  - { offset: 0x28A40A, size: 0x8, addend: 0x0, symName: __ZN9Scintilla8Internal6Editor18UpdateBaseElementsEv, symObjAddr: 0x10574, symBinAddr: 0x5AF84, symSize: 0x4 }
  - { offset: 0x28A443, size: 0x8, addend: 0x0, symName: __ZN9Scintilla8Internal6Editor8IdleWorkEv, symObjAddr: 0x10840, symBinAddr: 0x5B250, symSize: 0xC8 }
  - { offset: 0x28A534, size: 0x8, addend: 0x0, symName: __ZN9Scintilla8Internal6Editor13QueueIdleWorkENS0_9WorkItemsEl, symObjAddr: 0x10908, symBinAddr: 0x5B318, symSize: 0x24 }
  - { offset: 0x28A57B, size: 0x8, addend: 0x0, symName: __ZN9Scintilla8Internal6Editor13QueueIdleWorkENS0_9WorkItemsEl, symObjAddr: 0x10908, symBinAddr: 0x5B318, symSize: 0x24 }
  - { offset: 0x28A5BB, size: 0x8, addend: 0x0, symName: __ZN9Scintilla8Internal6Editor15SupportsFeatureENS_8SupportsE, symObjAddr: 0x1092C, symBinAddr: 0x5B33C, symSize: 0x68 }
  - { offset: 0x28A7B6, size: 0x8, addend: 0x0, symName: __ZN9Scintilla8Internal6Editor13PaintContainsENS0_10PRectangleE, symObjAddr: 0x10994, symBinAddr: 0x5B3A4, symSize: 0x5C }
  - { offset: 0x28A7F2, size: 0x8, addend: 0x0, symName: __ZN9Scintilla8Internal6Editor13PaintContainsENS0_10PRectangleE, symObjAddr: 0x10994, symBinAddr: 0x5B3A4, symSize: 0x5C }
  - { offset: 0x28A807, size: 0x8, addend: 0x0, symName: __ZN9Scintilla8Internal6Editor13PaintContainsENS0_10PRectangleE, symObjAddr: 0x10994, symBinAddr: 0x5B3A4, symSize: 0x5C }
  - { offset: 0x28A83B, size: 0x8, addend: 0x0, symName: __ZN9Scintilla8Internal6Editor17SetBraceHighlightElli, symObjAddr: 0x109F0, symBinAddr: 0x5B400, symSize: 0xD8 }
  - { offset: 0x28A9E5, size: 0x8, addend: 0x0, symName: __ZN9Scintilla8Internal6Editor13SetDocPointerEPNS0_8DocumentE, symObjAddr: 0x10AC8, symBinAddr: 0x5B4D8, symSize: 0x1C0 }
  - { offset: 0x28ACA8, size: 0x8, addend: 0x0, symName: __ZN9Scintilla8Internal6Editor20SetAnnotationVisibleENS_17AnnotationVisibleE, symObjAddr: 0x10C88, symBinAddr: 0x5B698, symSize: 0x100 }
  - { offset: 0x28ADC9, size: 0x8, addend: 0x0, symName: __ZN9Scintilla8Internal6Editor23SetEOLAnnotationVisibleENS_20EOLAnnotationVisibleE, symObjAddr: 0x10D88, symBinAddr: 0x5B798, symSize: 0x20 }
  - { offset: 0x28ADFE, size: 0x8, addend: 0x0, symName: __ZN9Scintilla8Internal6Editor15SetFoldExpandedElb, symObjAddr: 0x10EAC, symBinAddr: 0x5B8BC, symSize: 0x48 }
  - { offset: 0x28AE81, size: 0x8, addend: 0x0, symName: __ZNK9Scintilla8Internal6Editor18ContractedFoldNextEl, symObjAddr: 0x11224, symBinAddr: 0x5BC34, symSize: 0x7C }
  - { offset: 0x28AF3E, size: 0x8, addend: 0x0, symName: __ZN9Scintilla8Internal6Editor6GetTagEPci, symObjAddr: 0x112A0, symBinAddr: 0x5BCB0, symSize: 0x8C }
  - { offset: 0x28B059, size: 0x8, addend: 0x0, symName: __ZN9Scintilla8Internal6Editor13ReplaceTargetENS1_11ReplaceTypeENSt3__117basic_string_viewIcNS3_11char_traitsIcEEEE, symObjAddr: 0x1132C, symBinAddr: 0x5BD3C, symSize: 0x1EC }
  - { offset: 0x28B6F8, size: 0x8, addend: 0x0, symName: __ZN9Scintilla8Internal16SelectionSegmentC1ENS0_17SelectionPositionES2_, symObjAddr: 0x11518, symBinAddr: 0x5BF28, symSize: 0x70 }
  - { offset: 0x28B7A6, size: 0x8, addend: 0x0, symName: __ZNK9Scintilla8Internal6Editor13IsUnicodeModeEv, symObjAddr: 0x11588, symBinAddr: 0x5BF98, symSize: 0x24 }
  - { offset: 0x28B7CF, size: 0x8, addend: 0x0, symName: __ZNK9Scintilla8Internal6Editor8CodePageEv, symObjAddr: 0x115AC, symBinAddr: 0x5BFBC, symSize: 0x18 }
  - { offset: 0x28B8F6, size: 0x8, addend: 0x0, symName: __ZNK9Scintilla8Internal6Editor24CreateMeasurementSurfaceEv, symObjAddr: 0x115C4, symBinAddr: 0x5BFD4, symSize: 0x9C }
  - { offset: 0x28BB16, size: 0x8, addend: 0x0, symName: __ZNK9Scintilla8Internal6Editor20CreateDrawingSurfaceEPvNSt3__18optionalINS_10TechnologyEEE, symObjAddr: 0x11660, symBinAddr: 0x5C070, symSize: 0xB0 }
  - { offset: 0x28BD59, size: 0x8, addend: 0x0, symName: __ZN9Scintilla8Internal6Editor9WrapCountEl, symObjAddr: 0x11710, symBinAddr: 0x5C120, symSize: 0x110 }
  - { offset: 0x28C143, size: 0x8, addend: 0x0, symName: __ZN9Scintilla8Internal6Editor13AddStyledTextEPKcl, symObjAddr: 0x11820, symBinAddr: 0x5C230, symSize: 0x194 }
  - { offset: 0x28C68E, size: 0x8, addend: 0x0, symName: __ZNK9Scintilla8Internal6Editor13GetStyledTextEPcll, symObjAddr: 0x119B4, symBinAddr: 0x5C3C4, symSize: 0x98 }
  - { offset: 0x28C762, size: 0x8, addend: 0x0, symName: __ZNK9Scintilla8Internal6Editor12GetTextRangeEPcll, symObjAddr: 0x11A4C, symBinAddr: 0x5C45C, symSize: 0x70 }
  - { offset: 0x28C7F1, size: 0x8, addend: 0x0, symName: __ZNK9Scintilla8Internal6Editor11ValidMarginEm, symObjAddr: 0x11ABC, symBinAddr: 0x5C4CC, symSize: 0x28 }
  - { offset: 0x28C81C, size: 0x8, addend: 0x0, symName: __ZNK9Scintilla8Internal6Editor11ValidMarginEm, symObjAddr: 0x11ABC, symBinAddr: 0x5C4CC, symSize: 0x28 }
  - { offset: 0x28C950, size: 0x8, addend: 0x0, symName: __ZN9Scintilla8Internal6Editor15StyleSetMessageENS_7MessageEml, symObjAddr: 0x11AE4, symBinAddr: 0x5C4F4, symSize: 0x2FC }
  - { offset: 0x28CFE1, size: 0x8, addend: 0x0, symName: __ZN9Scintilla8Internal6Editor15StyleGetMessageENS_7MessageEml, symObjAddr: 0x11DE0, symBinAddr: 0x5C7F0, symSize: 0x25C }
  - { offset: 0x28D37B, size: 0x8, addend: 0x0, symName: __ZN9Scintilla8Internal6Editor12StringResultElPKc, symObjAddr: 0x1203C, symBinAddr: 0x5CA4C, symSize: 0x60 }
  - { offset: 0x28D3C9, size: 0x8, addend: 0x0, symName: __ZN9Scintilla8Internal6Editor20SetSelectionNMessageENS_7MessageEml, symObjAddr: 0x1209C, symBinAddr: 0x5CAAC, symSize: 0x1A0 }
  - { offset: 0x28D56B, size: 0x8, addend: 0x0, symName: __ZN9Scintilla8Internal6Editor16SetSelectionModeEmb, symObjAddr: 0x1223C, symBinAddr: 0x5CC4C, symSize: 0xEC }
  - { offset: 0x28D640, size: 0x8, addend: 0x0, symName: __ZN9Scintilla8Internal6Editor11BytesResultElPKhm, symObjAddr: 0x12338, symBinAddr: 0x5CD38, symSize: 0x48 }
  - { offset: 0x28D688, size: 0x8, addend: 0x0, symName: __ZN9Scintilla8Internal6Editor11BytesResultElNSt3__117basic_string_viewIcNS2_11char_traitsIcEEEE, symObjAddr: 0x12380, symBinAddr: 0x5CD80, symSize: 0x30 }
  - { offset: 0x28DD92, size: 0x8, addend: 0x0, symName: __ZN9Scintilla8Internal6Editor7WndProcENS_7MessageEml, symObjAddr: 0x123B0, symBinAddr: 0x5CDB0, symSize: 0x3E84 }
  - { offset: 0x292A42, size: 0x8, addend: 0x0, symName: __ZNSt3__16__treeINS_12__value_typeIN9Scintilla7ElementENS_8optionalINS2_8Internal10ColourRGBAEEEEENS_19__map_value_compareIS3_S8_NS_4lessIS3_EELb1EEENS_9allocatorIS8_EEE25__emplace_unique_key_argsIS3_JRKNS_21piecewise_construct_tENS_5tupleIJOS3_EEENSK_IJEEEEEENS_4pairINS_15__tree_iteratorIS8_PNS_11__tree_nodeIS8_PvEElEEbEERKT_DpOT0_, symObjAddr: 0x18C60, symBinAddr: 0x631DC, symSize: 0xC4 }
  - { offset: 0x292E6A, size: 0x8, addend: 0x0, symName: __ZN9Scintilla8Internal6Editor13SetAppearanceINS_5AlphaEEEbRT_S4_, symObjAddr: 0x16298, symBinAddr: 0x60C98, symSize: 0x64 }
  - { offset: 0x292F1E, size: 0x8, addend: 0x0, symName: __ZN9Scintilla8Internal6Editor13SetAppearanceIiEEbRT_S3_, symObjAddr: 0x16234, symBinAddr: 0x60C34, symSize: 0x64 }
  - { offset: 0x292FD2, size: 0x8, addend: 0x0, symName: __ZNSt3__16vectorIN9Scintilla8Internal11MarginStyleENS_9allocatorIS3_EEE6resizeEm, symObjAddr: 0x16360, symBinAddr: 0x60D60, symSize: 0x3C }
  - { offset: 0x29301C, size: 0x8, addend: 0x0, symName: __ZNSt3__16vectorIN9Scintilla8Internal11MarginStyleENS_9allocatorIS3_EEE6resizeEm, symObjAddr: 0x16360, symBinAddr: 0x60D60, symSize: 0x3C }
  - { offset: 0x293092, size: 0x8, addend: 0x0, symName: __ZN9Scintilla8Internal6Editor13SetAppearanceINS_5LayerEEEbRT_S4_, symObjAddr: 0x162FC, symBinAddr: 0x60CFC, symSize: 0x64 }
  - { offset: 0x29319E, size: 0x8, addend: 0x0, symName: __ZNSt3__16vectorIN9Scintilla8Internal11MarginStyleENS_9allocatorIS3_EEE8__appendEm, symObjAddr: 0x18A68, symBinAddr: 0x62FE4, symSize: 0x1A0 }
  - { offset: 0x293664, size: 0x8, addend: 0x0, symName: __ZNKSt3__16vectorIN9Scintilla8Internal11MarginStyleENS_9allocatorIS3_EEE20__throw_length_errorB8ne180100Ev, symObjAddr: 0x18C08, symBinAddr: 0x63184, symSize: 0x14 }
  - { offset: 0x293676, size: 0x8, addend: 0x0, symName: __ZN9Scintilla8Internal6Editor7SetIdleEb, symObjAddr: 0x163A4, symBinAddr: 0x60D9C, symSize: 0x8 }
  - { offset: 0x293EFF, size: 0x8, addend: 0x0, symName: __ZNSt3__120__shared_ptr_emplaceIN9Scintilla8Internal10LineLayoutENS_9allocatorIS3_EEEC2B8ne180100IJiiES5_Li0EEES5_DpOT_, symObjAddr: 0x168B0, symBinAddr: 0x60FA8, symSize: 0x54 }
  - { offset: 0x29414F, size: 0x8, addend: 0x0, symName: '__ZNSt3__119__async_assoc_stateIvNS_12__async_funcIZN9Scintilla8Internal6Editor9WrapBlockEPNS3_7SurfaceEllE3$_0JEEEED1Ev', symObjAddr: 0x1694C, symBinAddr: 0x60FFC, symSize: 0x4C }
  - { offset: 0x2941CB, size: 0x8, addend: 0x0, symName: '__ZNSt3__119__async_assoc_stateIvNS_12__async_funcIZN9Scintilla8Internal6Editor9WrapBlockEPNS3_7SurfaceEllE3$_0JEEEED0Ev', symObjAddr: 0x16998, symBinAddr: 0x61048, symSize: 0x50 }
  - { offset: 0x29424F, size: 0x8, addend: 0x0, symName: '__ZNSt3__119__async_assoc_stateIvNS_12__async_funcIZN9Scintilla8Internal6Editor9WrapBlockEPNS3_7SurfaceEllE3$_0JEEEE16__on_zero_sharedEv', symObjAddr: 0x169E8, symBinAddr: 0x61098, symSize: 0x28 }
  - { offset: 0x294277, size: 0x8, addend: 0x0, symName: '__ZNSt3__119__async_assoc_stateIvNS_12__async_funcIZN9Scintilla8Internal6Editor9WrapBlockEPNS3_7SurfaceEllE3$_0JEEEE9__executeEv', symObjAddr: 0x16A10, symBinAddr: 0x610C0, symSize: 0x78 }
  - { offset: 0x2942C0, size: 0x8, addend: 0x0, symName: '__ZNSt3__112__async_funcIZN9Scintilla8Internal6Editor9WrapBlockEPNS2_7SurfaceEllE3$_0JEEclB8ne180100Ev', symObjAddr: 0x16A88, symBinAddr: 0x61138, symSize: 0x2A4 }
  - { offset: 0x294D38, size: 0x8, addend: 0x0, symName: __ZNSt3__110unique_ptrINS_15__thread_structENS_14default_deleteIS1_EEE5resetB8ne180100EPS1_, symObjAddr: 0x16DE8, symBinAddr: 0x61498, symSize: 0x2C }
  - { offset: 0x294DA6, size: 0x8, addend: 0x0, symName: '__ZNSt3__122__deferred_assoc_stateIvNS_12__async_funcIZN9Scintilla8Internal6Editor9WrapBlockEPNS3_7SurfaceEllE3$_0JEEEED1Ev', symObjAddr: 0x16E14, symBinAddr: 0x614C4, symSize: 0x4C }
  - { offset: 0x294E22, size: 0x8, addend: 0x0, symName: '__ZNSt3__122__deferred_assoc_stateIvNS_12__async_funcIZN9Scintilla8Internal6Editor9WrapBlockEPNS3_7SurfaceEllE3$_0JEEEED0Ev', symObjAddr: 0x16E60, symBinAddr: 0x61510, symSize: 0x50 }
  - { offset: 0x294EA6, size: 0x8, addend: 0x0, symName: '__ZNSt3__122__deferred_assoc_stateIvNS_12__async_funcIZN9Scintilla8Internal6Editor9WrapBlockEPNS3_7SurfaceEllE3$_0JEEEE9__executeEv', symObjAddr: 0x16EB0, symBinAddr: 0x61560, symSize: 0x78 }
  - { offset: 0x2950B9, size: 0x8, addend: 0x0, symName: __ZNK9Scintilla8Internal14SelectionRangeltERKS1_, symObjAddr: 0x17A70, symBinAddr: 0x62078, symSize: 0x68 }
  - { offset: 0x295582, size: 0x8, addend: 0x0, symName: __ZNKSt3__16vectorIN9Scintilla8Internal11MarginStyleENS_9allocatorIS3_EEE20__throw_length_errorB8ne180100Ev, symObjAddr: 0x18C08, symBinAddr: 0x63184, symSize: 0x14 }
  - { offset: 0x2955AA, size: 0x8, addend: 0x0, symName: __ZNSt3__119__allocate_at_leastB8ne180100INS_9allocatorIN9Scintilla8Internal11MarginStyleEEEEENS_19__allocation_resultINS_16allocator_traitsIT_E7pointerEEERS8_m, symObjAddr: 0x18C1C, symBinAddr: 0x63198, symSize: 0x44 }
  - { offset: 0x2959D5, size: 0x8, addend: 0x0, symName: __ZNSt3__16__treeINS_12__value_typeIN9Scintilla7ElementENS_8optionalINS2_8Internal10ColourRGBAEEEEENS_19__map_value_compareIS3_S8_NS_4lessIS3_EELb1EEENS_9allocatorIS8_EEE16__insert_node_atEPNS_15__tree_end_nodeIPNS_16__tree_node_baseIPvEEEERSK_SK_, symObjAddr: 0x18D24, symBinAddr: 0x632A0, symSize: 0x54 }
  - { offset: 0x2979A9, size: 0x8, addend: 0x0, symName: __ZN9Scintilla8Internal15CaseFolderTableC2Ev, symObjAddr: 0x0, symBinAddr: 0x632F4, symSize: 0x194 }
  - { offset: 0x297B8A, size: 0x8, addend: 0x0, symName: __ZN9Scintilla8Internal15CaseFolderTableC2Ev, symObjAddr: 0x0, symBinAddr: 0x632F4, symSize: 0x194 }
  - { offset: 0x297BEE, size: 0x8, addend: 0x0, symName: __ZN9Scintilla8Internal15CaseFolderTable13StandardASCIIEv, symObjAddr: 0x194, symBinAddr: 0x63488, symSize: 0x148 }
  - { offset: 0x297C52, size: 0x8, addend: 0x0, symName: __ZN9Scintilla8Internal15CaseFolderTableC1Ev, symObjAddr: 0x2DC, symBinAddr: 0x635D0, symSize: 0x194 }
  - { offset: 0x297CDD, size: 0x8, addend: 0x0, symName: __ZN9Scintilla8Internal15CaseFolderTable4FoldEPcmPKcm, symObjAddr: 0x470, symBinAddr: 0x63764, symSize: 0x3C }
  - { offset: 0x297D55, size: 0x8, addend: 0x0, symName: __ZN9Scintilla8Internal15CaseFolderTable14SetTranslationEcc, symObjAddr: 0x4AC, symBinAddr: 0x637A0, symSize: 0xC }
  - { offset: 0x297D9F, size: 0x8, addend: 0x0, symName: __ZN9Scintilla8Internal17CaseFolderUnicodeC2Ev, symObjAddr: 0x4B8, symBinAddr: 0x637AC, symSize: 0x1BC }
  - { offset: 0x297E3F, size: 0x8, addend: 0x0, symName: __ZN9Scintilla8Internal17CaseFolderUnicodeC1Ev, symObjAddr: 0x674, symBinAddr: 0x63968, symSize: 0x4 }
  - { offset: 0x297E6C, size: 0x8, addend: 0x0, symName: __ZN9Scintilla8Internal17CaseFolderUnicodeC1Ev, symObjAddr: 0x674, symBinAddr: 0x63968, symSize: 0x4 }
  - { offset: 0x297E7E, size: 0x8, addend: 0x0, symName: __ZN9Scintilla8Internal17CaseFolderUnicode4FoldEPcmPKcm, symObjAddr: 0x678, symBinAddr: 0x6396C, symSize: 0x34 }
  - { offset: 0x297EE6, size: 0x8, addend: 0x0, symName: __ZN9Scintilla8Internal15CaseFolderTableD1Ev, symObjAddr: 0x6AC, symBinAddr: 0x639A0, symSize: 0x4 }
  - { offset: 0x297F10, size: 0x8, addend: 0x0, symName: __ZN9Scintilla8Internal15CaseFolderTableD0Ev, symObjAddr: 0x6B0, symBinAddr: 0x639A4, symSize: 0x4 }
  - { offset: 0x297F3A, size: 0x8, addend: 0x0, symName: __ZN9Scintilla8Internal17CaseFolderUnicodeD1Ev, symObjAddr: 0x6B4, symBinAddr: 0x639A8, symSize: 0x4 }
  - { offset: 0x297F64, size: 0x8, addend: 0x0, symName: __ZN9Scintilla8Internal17CaseFolderUnicodeD0Ev, symObjAddr: 0x6B8, symBinAddr: 0x639AC, symSize: 0x4 }
  - { offset: 0x29AA10, size: 0x8, addend: 0x0, symName: __ZN9Scintilla8Internal8RESearchC2EPNS0_12CharClassifyE, symObjAddr: 0x0, symBinAddr: 0x639B0, symSize: 0x40 }
  - { offset: 0x29BF9E, size: 0x8, addend: 0x0, symName: __ZN9Scintilla8Internal8RESearchC2EPNS0_12CharClassifyE, symObjAddr: 0x0, symBinAddr: 0x639B0, symSize: 0x40 }
  - { offset: 0x29C03A, size: 0x8, addend: 0x0, symName: __ZN9Scintilla8Internal8RESearch5ClearEv, symObjAddr: 0x40, symBinAddr: 0x639F0, symSize: 0x1C }
  - { offset: 0x29C05C, size: 0x8, addend: 0x0, symName: __ZN9Scintilla8Internal8RESearch5ClearEv, symObjAddr: 0x40, symBinAddr: 0x639F0, symSize: 0x1C }
  - { offset: 0x29C07B, size: 0x8, addend: 0x0, symName: __ZN9Scintilla8Internal8RESearch5ClearEv, symObjAddr: 0x40, symBinAddr: 0x639F0, symSize: 0x1C }
  - { offset: 0x29C09F, size: 0x8, addend: 0x0, symName: __ZN9Scintilla8Internal8RESearch5ClearEv, symObjAddr: 0x40, symBinAddr: 0x639F0, symSize: 0x1C }
  - { offset: 0x29C0D9, size: 0x8, addend: 0x0, symName: __ZN9Scintilla8Internal8RESearchC1EPNS0_12CharClassifyE, symObjAddr: 0x5C, symBinAddr: 0x63A0C, symSize: 0x40 }
  - { offset: 0x29C112, size: 0x8, addend: 0x0, symName: __ZN9Scintilla8Internal8RESearchC1EPNS0_12CharClassifyE, symObjAddr: 0x5C, symBinAddr: 0x63A0C, symSize: 0x40 }
  - { offset: 0x29C1A8, size: 0x8, addend: 0x0, symName: __ZN9Scintilla8Internal8RESearch5ChSetEh, symObjAddr: 0x9C, symBinAddr: 0x63A4C, symSize: 0x28 }
  - { offset: 0x29C1F2, size: 0x8, addend: 0x0, symName: __ZN9Scintilla8Internal8RESearch13ChSetWithCaseEhb, symObjAddr: 0xC4, symBinAddr: 0x63A74, symSize: 0x68 }
  - { offset: 0x29C227, size: 0x8, addend: 0x0, symName: __ZN9Scintilla8Internal8RESearch13ChSetWithCaseEhb, symObjAddr: 0xC4, symBinAddr: 0x63A74, symSize: 0x68 }
  - { offset: 0x29C30A, size: 0x8, addend: 0x0, symName: __ZN9Scintilla8Internal8RESearch22GetBackslashExpressionEPKcRi, symObjAddr: 0x12C, symBinAddr: 0x63ADC, symSize: 0x2BC }
  - { offset: 0x29C60D, size: 0x8, addend: 0x0, symName: __ZN9Scintilla8Internal8RESearch7CompileEPKclbb, symObjAddr: 0x3E8, symBinAddr: 0x63D98, symSize: 0x924 }
  - { offset: 0x29CC5E, size: 0x8, addend: 0x0, symName: __ZN9Scintilla8Internal8RESearch7ExecuteERKNS0_16CharacterIndexerEll, symObjAddr: 0xD0C, symBinAddr: 0x646BC, symSize: 0x1E8 }
  - { offset: 0x29CE99, size: 0x8, addend: 0x0, symName: __ZN9Scintilla8Internal8RESearch6PMatchERKNS0_16CharacterIndexerEllPKc, symObjAddr: 0xEF4, symBinAddr: 0x648A4, symSize: 0x4C0 }
  - { offset: 0x2A479F, size: 0x8, addend: 0x0, symName: __ZN9Scintilla8Internal15ValidStyledTextERKNS0_9ViewStyleEmRKNS0_10StyledTextE, symObjAddr: 0x20, symBinAddr: 0x64D84, symSize: 0x8C }
  - { offset: 0x2A4807, size: 0x8, addend: 0x0, symName: __ZN9Scintilla8Internal15WidestLineWidthEPNS0_7SurfaceERKNS0_9ViewStyleEiRKNS0_10StyledTextE, symObjAddr: 0xAC, symBinAddr: 0x64E10, symSize: 0x1A8 }
  - { offset: 0x2A4A36, size: 0x8, addend: 0x0, symName: __ZN9Scintilla8Internal19DrawTextNoClipPhaseEPNS0_7SurfaceENS0_10PRectangleERKNS0_5StyleEdNSt3__117basic_string_viewIcNS7_11char_traitsIcEEEENS0_9DrawPhaseE, symObjAddr: 0x254, symBinAddr: 0x64FB8, symSize: 0x48 }
  - { offset: 0x2A4AF2, size: 0x8, addend: 0x0, symName: __ZN9Scintilla8Internal14DrawStyledTextEPNS0_7SurfaceERKNS0_9ViewStyleEiNS0_10PRectangleERKNS0_10StyledTextEmmNS0_9DrawPhaseE, symObjAddr: 0x29C, symBinAddr: 0x65000, symSize: 0x1C0 }
  - { offset: 0x2A5051, size: 0x8, addend: 0x0, symName: __ZN12_GLOBAL__N_119SelectionBackgroundERKN9Scintilla8Internal9EditModelERKNS1_9ViewStyleENS1_11InSelectionE, symObjAddr: 0x32EC, symBinAddr: 0x67FD8, symSize: 0xB0 }
  - { offset: 0x2A5161, size: 0x8, addend: 0x0, symName: __ZN12_GLOBAL__N_119SelectionForegroundERKN9Scintilla8Internal9EditModelERKNS1_9ViewStyleENS1_11InSelectionE, symObjAddr: 0x339C, symBinAddr: 0x68088, symSize: 0xB4 }
  - { offset: 0x2A5210, size: 0x8, addend: 0x0, symName: __ZN12_GLOBAL__N_114TextBackgroundERKN9Scintilla8Internal9EditModelERKNS1_9ViewStyleEPKNS1_10LineLayoutENSt3__18optionalINS1_10ColourRGBAEEENS1_11InSelectionEbil, symObjAddr: 0x3450, symBinAddr: 0x6813C, symSize: 0xC0 }
  - { offset: 0x2A5334, size: 0x8, addend: 0x0, symName: __ZN12_GLOBAL__N_112DrawTextBlobEPN9Scintilla8Internal7SurfaceERKNS1_9ViewStyleENS1_10PRectangleENSt3__117basic_string_viewIcNS8_11char_traitsIcEEEENS1_10ColourRGBAESD_b, symObjAddr: 0x3510, symBinAddr: 0x681FC, symSize: 0x168 }
  - { offset: 0x2A54C4, size: 0x8, addend: 0x0, symName: __ZN12_GLOBAL__N_117FillLineRemainderEPN9Scintilla8Internal7SurfaceERKNS1_9EditModelERKNS1_9ViewStyleEPKNS1_10LineLayoutElNS1_10PRectangleEi, symObjAddr: 0x3678, symBinAddr: 0x68364, symSize: 0x1F4 }
  - { offset: 0x2A58B6, size: 0x8, addend: 0x0, symName: __ZN12_GLOBAL__N_126CharacterInCursesSelectionElRKN9Scintilla8Internal9EditModelERKNS1_9ViewStyleE, symObjAddr: 0x5964, symBinAddr: 0x6A650, symSize: 0xD0 }
  - { offset: 0x2A5B3D, size: 0x8, addend: 0x0, symName: __ZN12_GLOBAL__N_119DrawCaretLineFramedEPN9Scintilla8Internal7SurfaceERKNS1_9ViewStyleEPKNS1_10LineLayoutENS1_10PRectangleEi, symObjAddr: 0x6894, symBinAddr: 0x6B580, symSize: 0x21C }
  - { offset: 0x2A5CC1, size: 0x8, addend: 0x0, symName: __ZN12_GLOBAL__N_114DrawIndicatorsEPN9Scintilla8Internal7SurfaceERKNS1_9EditModelERKNS1_9ViewStyleEPKNS1_10LineLayoutEliNS1_10PRectangleEilbi, symObjAddr: 0x6AB0, symBinAddr: 0x6B79C, symSize: 0x5DC }
  - { offset: 0x2A644B, size: 0x8, addend: 0x0, symName: __ZN12_GLOBAL__N_112DrawEdgeLineEPN9Scintilla8Internal7SurfaceERKNS1_9ViewStyleEPKNS1_10LineLayoutEiNS1_10PRectangleENS1_5RangeE, symObjAddr: 0x708C, symBinAddr: 0x6BD78, symSize: 0x170 }
  - { offset: 0x2A657E, size: 0x8, addend: 0x0, symName: __ZN12_GLOBAL__N_117DrawMarkUnderlineEPN9Scintilla8Internal7SurfaceERKNS1_9EditModelERKNS1_9ViewStyleElNS1_10PRectangleE, symObjAddr: 0x71FC, symBinAddr: 0x6BEE8, symSize: 0xD8 }
  - { offset: 0x2A666B, size: 0x8, addend: 0x0, symName: __ZN12_GLOBAL__N_124DrawTranslucentSelectionEPN9Scintilla8Internal7SurfaceERKNS1_9EditModelERKNS1_9ViewStyleEPKNS1_10LineLayoutEliNS1_10PRectangleEiNS1_5RangeEiNS0_5LayerE, symObjAddr: 0x72D4, symBinAddr: 0x6BFC0, symSize: 0x4D4 }
  - { offset: 0x2A7145, size: 0x8, addend: 0x0, symName: __ZN12_GLOBAL__N_124DrawTranslucentLineStateEPN9Scintilla8Internal7SurfaceERKNS1_9EditModelERKNS1_9ViewStyleEPKNS1_10LineLayoutElNS1_10PRectangleEiNS0_5LayerE, symObjAddr: 0x77A8, symBinAddr: 0x6C494, symSize: 0x228 }
  - { offset: 0x2A7333, size: 0x8, addend: 0x0, symName: __ZN12_GLOBAL__N_113DrawIndicatorEillPN9Scintilla8Internal7SurfaceERKNS1_9ViewStyleEPKNS1_10LineLayoutEiNS1_10PRectangleEliNS1_9Indicator5StateEibi, symObjAddr: 0x8DA0, symBinAddr: 0x6DA8C, symSize: 0x428 }
  - { offset: 0x2A8557, size: 0x8, addend: 0x0, symName: __ZN12_GLOBAL__N_113InvertedLightEN9Scintilla8Internal10ColourRGBAE, symObjAddr: 0x8D18, symBinAddr: 0x6DA04, symSize: 0x88 }
  - { offset: 0x2C3B52, size: 0x8, addend: 0x0, symName: __ZNSt3__119__allocate_at_leastB8ne180100INS_9allocatorIN9Scintilla8Internal11TextSegmentEEEEENS_19__allocation_resultINS_16allocator_traitsIT_E7pointerEEERS8_m, symObjAddr: 0x9310, symBinAddr: 0x6DF10, symSize: 0x34 }
  - { offset: 0x2C416D, size: 0x8, addend: 0x0, symName: __ZNSt3__119__allocate_at_leastB8ne180100INS_9allocatorIN9Scintilla8Internal9DrawPhaseEEEEENS_19__allocation_resultINS_16allocator_traitsIT_E7pointerEEERS8_m, symObjAddr: 0x9B9C, symBinAddr: 0x6E560, symSize: 0x34 }
  - { offset: 0x2C420A, size: 0x8, addend: 0x0, symName: __ZNSt3__16__treeINS_12__value_typeIN9Scintilla7ElementENS_8optionalINS2_8Internal10ColourRGBAEEEEENS_19__map_value_compareIS3_S8_NS_4lessIS3_EELb1EEENS_9allocatorIS8_EEE7destroyEPNS_11__tree_nodeIS8_PvEE, symObjAddr: 0x9BD0, symBinAddr: 0x6E594, symSize: 0x40 }
  - { offset: 0x2C4570, size: 0x8, addend: 0x0, symName: __ZNSt3__119__allocate_at_leastB8ne180100INS_9allocatorIN9Scintilla8Internal10PRectangleEEEEENS_19__allocation_resultINS_16allocator_traitsIT_E7pointerEEERS8_m, symObjAddr: 0x9250, symBinAddr: 0x6DEC8, symSize: 0x34 }
